 node-opus

 Timestamp is 5840d594 (Thu Dec  1 19:59:48 2016)

 Preferred load address is 0000000180000000

 Start         Length     Name                   Class
 0001:00000000 000001dbH .text                   CODE
 0001:000001e0 000593c0H .text$mn                CODE
 0001:000595a0 00000012H .text$mn$00             CODE
 0001:000595c0 00000270H .text$x                 CODE
 0002:00000000 00000258H .idata$5                DATA
 0002:00000258 00000010H .00cfg                  DATA
 0002:00000268 00000008H .CRT$XCA                DATA
 0002:00000270 00000008H .CRT$XCU                DATA
 0002:00000278 00000008H .CRT$XCZ                DATA
 0002:00000280 00000008H .CRT$XIA                DATA
 0002:00000288 00000018H .CRT$XIC                DATA
 0002:000002a0 00000008H .CRT$XIZ                DATA
 0002:000002a8 00000008H .CRT$XPA                DATA
 0002:000002b0 00000010H .CRT$XPX                DATA
 0002:000002c0 00000008H .CRT$XPXA               DATA
 0002:000002c8 00000008H .CRT$XPZ                DATA
 0002:000002d0 00000008H .CRT$XTA                DATA
 0002:000002d8 00000008H .CRT$XTZ                DATA
 0002:000002e0 000147d4H .rdata                  DATA
 0002:00014ab8 000001f4H .rdata$r                DATA
 0002:00014cb0 00000010H .rdata$zETW0            DATA
 0002:00014cc0 00000077H .rdata$zETW1            DATA
 0002:00014d37 0000002cH .rdata$zETW2            DATA
 0002:00014d63 00000001H .rdata$zETW9            DATA
 0002:00014d64 00000450H .rdata$zzzdbg           DATA
 0002:000151b8 00000008H .rtc$IAA                DATA
 0002:000151c0 00000008H .rtc$IZZ                DATA
 0002:000151c8 00000008H .rtc$TAA                DATA
 0002:000151d0 00000008H .rtc$TZZ                DATA
 0002:000151d8 000040c0H .xdata                  DATA
 0002:00019298 000000ecH .xdata$x                DATA
 0002:00019384 00000020H .didat$2                DATA
 0002:000193a4 00000020H .didat$3                DATA
 0002:000193c8 00000168H .didat$4                DATA
 0002:00019530 00000bceH .didat$6                DATA
 0002:0001a100 00000168H .didat$7                DATA
 0002:0001a270 000004dbH .edata                  DATA
 0002:0001a74c 00000028H .idata$2                DATA
 0002:0001a774 00000014H .idata$3                DATA
 0002:0001a788 00000258H .idata$4                DATA
 0002:0001a9e0 0000057eH .idata$6                DATA
 0003:00000000 000009c0H .data                   DATA
 0003:000009c0 000000a0H .data$r                 DATA
 0003:00000a60 00000168H .didat$5                DATA
 0003:00000bd0 00001100H .bss                    DATA
 0004:00000000 00002db4H .pdata                  DATA
 0005:00000000 00000080H .gfids$x                DATA
 0005:00000080 00000038H .gfids$y                DATA
 0006:00000000 00000058H .rsrc$01                DATA
 0006:00000060 00000180H .rsrc$02                DATA

  Address         Publics by Value              Rva+Base               Lib:Object

 0000:00000000       __guard_iat_table          0000000000000000     <absolute>
 0000:00000000       __guard_iat_count          0000000000000000     <absolute>
 0000:00000000       __guard_fids_count         0000000000000000     <absolute>
 0000:00000000       __guard_longjmp_table      0000000000000000     <absolute>
 0000:00000000       __guard_longjmp_count      0000000000000000     <absolute>
 0000:00000000       ___safe_se_handler_table   0000000000000000     <absolute>
 0000:00000000       ___safe_se_handler_count   0000000000000000     <absolute>
 0000:00000000       __guard_fids_table         0000000000000000     <absolute>
 0000:00000100       __guard_flags              0000000000000100     <absolute>
 0000:00000000       __ImageBase                0000000180000000     <linker-defined>
 0001:00000000       ?TraceLoggingRegister@__vcrt_trace_logging_provider@@YAJPEBU_TlgProvider_t@1@PEBU_GUID@@P6AX1KE_K2PEAU_EVENT_FILTER_DESCRIPTOR@@PEAX@Z4@Z 0000000180001000 f i libvcruntime:telemetry.obj
 0001:0000007c       ?_TlgEnableCallback@__vcrt_trace_logging_provider@@YAXPEBU_GUID@@KE_K1PEAU_EVENT_FILTER_DESCRIPTOR@@PEAX@Z 000000018000107c f i libvcruntime:telemetry.obj
 0001:00000140       ?_TlgWrite@__vcrt_trace_logging_provider@@YAJPEBU_TlgProvider_t@1@PEFBXPEBU_GUID@@2IPEAU_EVENT_DATA_DESCRIPTOR@@@Z 0000000180001140 f i libvcruntime:telemetry.obj
 0001:000001e0       ??1ObjectWrap@node@@UEAA@XZ 00000001800011e0 f i node-opus.obj
 0001:00000250       ?Wrap@ObjectWrap@node@@IEAAXV?$Local@VObject@v8@@@v8@@@Z 0000000180001250 f i node-opus.obj
 0001:00000330       ?Ref@ObjectWrap@node@@MEAAXXZ 0000000180001330 f i node-opus.obj
 0001:00000370       ?Unref@ObjectWrap@node@@MEAAXXZ 0000000180001370 f i node-opus.obj
 0001:00000420       ?WeakCallback@ObjectWrap@node@@CAXAEBV?$WeakCallbackInfo@VObjectWrap@node@@@v8@@@Z 0000000180001420 f i node-opus.obj
 0001:00000480       ??_EObjectWrap@node@@UEAAPEAXI@Z 0000000180001480 f i * CIL library *:* CIL module *
 0001:00000480       ??_GObjectWrap@node@@UEAAPEAXI@Z 0000000180001480 f i node-opus.obj
 0001:00000570       ?New@?$Factory@VFunctionTemplate@v8@@@imp@Nan@@SA?AV?$Local@VFunctionTemplate@v8@@@v8@@P6AXAEBV?$FunctionCallbackInfo@VValue@v8@@@3@@ZV?$Local@VValue@v8@@@5@V?$Local@VSignature@v8@@@5@@Z 0000000180001570 f i node-opus.obj
 0001:00000700       ?ThrowError@Nan@@YAXPEBD@Z 0000000180001700 f i node-opus.obj
 0001:00000790       ?ThrowTypeError@Nan@@YAXPEBD@Z 0000000180001790 f i node-opus.obj
 0001:00000820       ?SetPrototypeMethod@Nan@@YAXV?$Local@VFunctionTemplate@v8@@@v8@@PEBDP6AXAEBV?$FunctionCallbackInfo@VValue@v8@@@1@@Z@Z 0000000180001820 f i node-opus.obj
 0001:00000910       ?getDecodeError@@YAPEBDH@Z 0000000180001910 f   node-opus.obj
 0001:00000990       ?Encode@OpusEncoder@@SAXAEBV?$FunctionCallbackInfo@VValue@v8@@@Nan@@@Z 0000000180001990 f i node-opus.obj
 0001:00000b40       ?Decode@OpusEncoder@@SAXAEBV?$FunctionCallbackInfo@VValue@v8@@@Nan@@@Z 0000000180001b40 f i node-opus.obj
 0001:00000cc0       ?SetBitrate@OpusEncoder@@SAXAEBV?$FunctionCallbackInfo@VValue@v8@@@Nan@@@Z 0000000180001cc0 f i node-opus.obj
 0001:00000da0       ?GetBitrate@OpusEncoder@@SAXAEBV?$FunctionCallbackInfo@VValue@v8@@@Nan@@@Z 0000000180001da0 f i node-opus.obj
 0001:00000e90       ?New@OpusEncoder@@SAXAEBV?$FunctionCallbackInfo@VValue@v8@@@Nan@@@Z 0000000180001e90 f i node-opus.obj
 0001:00001060       ?Init@OpusEncoder@@SAXV?$Local@VObject@v8@@@v8@@@Z 0000000180002060 f i node-opus.obj
 0001:00001260       ??_GOpusEncoder@@UEAAPEAXI@Z 0000000180002260 f i node-opus.obj
 0001:00001260       ??_EOpusEncoder@@UEAAPEAXI@Z 0000000180002260 f i * CIL library *:* CIL module *
 0001:000012f0       ?NodeInit@@YAXV?$Local@VObject@v8@@@v8@@@Z 00000001800022f0 f   node-opus.obj
 0001:00001310       ??$Unwrap@VOpusEncoder@@@ObjectWrap@node@@SAPEAVOpusEncoder@@V?$Local@VObject@v8@@@v8@@@Z 0000000180002310 f i node-opus.obj
 0001:00001490       opus_encoder_get_size      0000000180002490 f   libopus:opus_encoder.obj
 0001:000014d0       opus_encoder_init          00000001800024d0 f   libopus:opus_encoder.obj
 0001:00002ab0       opus_encoder_create        0000000180003ab0 f   libopus:opus_encoder.obj
 0001:000036c0       downmix_float              00000001800046c0 f   libopus:opus_encoder.obj
 0001:00003b30       downmix_int                0000000180004b30 f   libopus:opus_encoder.obj
 0001:00003f90       frame_size_select          0000000180004f90 f   libopus:opus_encoder.obj
 0001:00004070       compute_frame_size         0000000180005070 f   libopus:opus_encoder.obj
 0001:00004180       compute_stereo_width       0000000180005180 f   libopus:opus_encoder.obj
 0001:000044d0       opus_encode_native         00000001800054d0 f   libopus:opus_encoder.obj
 0001:00006760       opus_encode                0000000180007760 f   libopus:opus_encoder.obj
 0001:000068e0       opus_encode_float          00000001800078e0 f   libopus:opus_encoder.obj
 0001:000069d0       opus_encoder_ctl           00000001800079d0 f   libopus:opus_encoder.obj
 0001:00007250       ??3@YAXPEAX@Z              0000000180008250 f   LIBCMT:delete_scalar.obj
 0001:00007250       opus_repacketizer_destroy  0000000180008250 f   libopus:repacketizer.obj
 0001:00007250       opus_decoder_destroy       0000000180008250 f   libopus:opus_decoder.obj
 0001:00007250       opus_encoder_destroy       0000000180008250 f   libopus:opus_encoder.obj
 0001:00007260       opus_decoder_get_size      0000000180008260 f   libopus:opus_decoder.obj
 0001:000072a0       opus_decoder_init          00000001800082a0 f   libopus:opus_decoder.obj
 0001:000073d0       opus_decoder_create        00000001800083d0 f   libopus:opus_decoder.obj
 0001:00008670       opus_decode_native         0000000180009670 f   libopus:opus_decoder.obj
 0001:000089c0       opus_decode                00000001800099c0 f   libopus:opus_decoder.obj
 0001:00008b40       opus_decode_float          0000000180009b40 f   libopus:opus_decoder.obj
 0001:00008b80       opus_decoder_ctl           0000000180009b80 f   libopus:opus_decoder.obj
 0001:00008d70       opus_packet_get_bandwidth  0000000180009d70 f   libopus:opus_decoder.obj
 0001:00008dc0       opus_packet_get_nb_channels 0000000180009dc0 f   libopus:opus_decoder.obj
 0001:00008dd0       opus_packet_get_nb_frames  0000000180009dd0 f   libopus:opus_decoder.obj
 0001:00008e10       opus_packet_get_nb_samples 0000000180009e10 f   libopus:opus_decoder.obj
 0001:00008ea0       opus_decoder_get_nb_samples 0000000180009ea0 f   libopus:opus_decoder.obj
 0001:00008ec0       silk_InitEncoder           0000000180009ec0 f   libopus:enc_API.obj
 0001:00009020       silk_Encode                000000018000a020 f   libopus:enc_API.obj
 0001:0000a4a0       tonality_get_info          000000018000b4a0 f   libopus:analysis.obj
 0001:0000c850       run_analysis               000000018000d850 f   libopus:analysis.obj
 0001:0000ca60       ec_encode                  000000018000da60 f   libopus:entenc.obj
 0001:0000cab0       ec_enc_uint                000000018000dab0 f   libopus:entenc.obj
 0001:0000cba0       ec_enc_bits                000000018000dba0 f   libopus:entenc.obj
 0001:0000cc30       ec_enc_done                000000018000dc30 f   libopus:entenc.obj
 0001:0000cea0       opus_repacketizer_get_size 000000018000dea0 f   libopus:repacketizer.obj
 0001:0000ceb0       opus_repacketizer_init     000000018000deb0 f   libopus:repacketizer.obj
 0001:0000cec0       opus_repacketizer_create   000000018000dec0 f   libopus:repacketizer.obj
 0001:0000d010       opus_repacketizer_cat      000000018000e010 f   libopus:repacketizer.obj
 0001:0000d020       opus_repacketizer_get_nb_frames 000000018000e020 f   libopus:repacketizer.obj
 0001:0000d030       opus_repacketizer_out_range_impl 000000018000e030 f   libopus:repacketizer.obj
 0001:0000d400       opus_repacketizer_out_range 000000018000e400 f   libopus:repacketizer.obj
 0001:0000d420       opus_repacketizer_out      000000018000e420 f   libopus:repacketizer.obj
 0001:0000d450       opus_packet_pad            000000018000e450 f   libopus:repacketizer.obj
 0001:0000d530       opus_packet_unpad          000000018000e530 f   libopus:repacketizer.obj
 0001:0000d5d0       opus_multistream_packet_pad 000000018000e5d0 f   libopus:repacketizer.obj
 0001:0000d6e0       opus_multistream_packet_unpad 000000018000e6e0 f   libopus:repacketizer.obj
 0001:0000d860       silk_log2lin               000000018000e860 f   libopus:log2lin.obj
 0001:0000dac0       celt_encoder_init          000000018000eac0 f   libopus:celt_encoder.obj
 0001:0000ecd0       celt_preemphasis           000000018000fcd0 f   libopus:celt_encoder.obj
 0001:00011f40       celt_encode_with_ec        0000000180012f40 f   libopus:celt_encoder.obj
 0001:00014cf0       opus_custom_encoder_ctl    0000000180015cf0 f   libopus:celt_encoder.obj
 0001:000150c0       silk_lin2log               00000001800160c0 f   libopus:lin2log.obj
 0001:00015130       silk_InitDecoder           0000000180016130 f   libopus:dec_API.obj
 0001:00015240       silk_Decode                0000000180016240 f   libopus:dec_API.obj
 0001:00016070       ec_dec_bit_logp            0000000180017070 f   libopus:entdec.obj
 0001:000160c0       ec_dec_uint                00000001800170c0 f   libopus:entdec.obj
 0001:00016200       ec_dec_bits                0000000180017200 f   libopus:entdec.obj
 0001:00016280       opus_pcm_soft_clip         0000000180017280 f   libopus:opus.obj
 0001:00016bd0       opus_packet_get_samples_per_frame 0000000180017bd0 f   libopus:opus.obj
 0001:00016c60       opus_packet_parse_impl     0000000180017c60 f   libopus:opus.obj
 0001:00017020       opus_packet_parse          0000000180018020 f   libopus:opus.obj
 0001:00017070       celt_decoder_init          0000000180018070 f   libopus:celt_decoder.obj
 0001:00018ec0       celt_decode_with_ec        0000000180019ec0 f   libopus:celt_decoder.obj
 0001:0001a4f0       opus_custom_decoder_ctl    000000018001b4f0 f   libopus:celt_decoder.obj
 0001:0001a7d0       silk_encode_frame_FLP      000000018001b7d0 f   libopus:encode_frame_FLP.obj
 0001:0001b5c0       silk_control_encoder       000000018001c5c0 f   libopus:control_codec.obj
 0001:0001bf10       silk_encode_indices        000000018001cf10 f   libopus:encode_indices.obj
 0001:0001c830       silk_stereo_encode_pred    000000018001d830 f   libopus:stereo_encode_pred.obj
 0001:0001c980       silk_init_encoder          000000018001d980 f   libopus:init_encoder.obj
 0001:0001cad0       check_control_input        000000018001dad0 f   libopus:check_control_input.obj
 0001:0001cc10       silk_encode_pulses         000000018001dc10 f   libopus:encode_pulses.obj
 0001:0001d480       silk_stereo_LR_to_MS       000000018001e480 f   libopus:stereo_LR_to_MS.obj
 0001:0001dd70       silk_control_SNR           000000018001ed70 f   libopus:control_SNR.obj
 0001:0001de50       silk_HP_variable_cutoff    000000018001ee50 f   libopus:HP_variable_cutoff.obj
 0001:0001e370       silk_resampler_init        000000018001f370 f   libopus:resampler.obj
 0001:0001e750       silk_resampler             000000018001f750 f   libopus:resampler.obj
 0001:0001f7d0       opus_fft_impl              00000001800207d0 f   libopus:kiss_fft.obj
 0001:0001f950       opus_fft_c                 0000000180020950 f   libopus:kiss_fft.obj
 0001:0001fc70       mlp_process                0000000180020c70 f   libopus:mlp.obj
 0001:00020200       comb_filter                0000000180021200 f   libopus:celt.obj
 0001:000209f0       init_caps                  00000001800219f0 f   libopus:celt.obj
 0001:00020aa0       opus_strerror              0000000180021aa0 f   libopus:celt.obj
 0001:00020ad0       opus_get_version_string    0000000180021ad0 f   libopus:celt.obj
 0001:00021130       quant_coarse_energy        0000000180022130 f   libopus:quant_bands.obj
 0001:00021700       quant_fine_energy          0000000180022700 f   libopus:quant_bands.obj
 0001:00021930       quant_energy_finalise      0000000180022930 f   libopus:quant_bands.obj
 0001:00021b20       unquant_coarse_energy      0000000180022b20 f   libopus:quant_bands.obj
 0001:00021e10       unquant_fine_energy        0000000180022e10 f   libopus:quant_bands.obj
 0001:00021f60       unquant_energy_finalise    0000000180022f60 f   libopus:quant_bands.obj
 0001:00022110       amp2Log2                   0000000180023110 f   libopus:quant_bands.obj
 0001:000224c0       compute_band_energies      00000001800234c0 f   libopus:bands.obj
 0001:00022680       normalise_bands            0000000180023680 f   libopus:bands.obj
 0001:00022820       denormalise_bands          0000000180023820 f   libopus:bands.obj
 0001:000229e0       anti_collapse              00000001800239e0 f   libopus:bands.obj
 0001:000234a0       spreading_decision         00000001800244a0 f   libopus:bands.obj
 0001:00023d70       haar1                      0000000180024d70 f   libopus:bands.obj
 0001:00025cc0       quant_all_bands            0000000180026cc0 f   libopus:bands.obj
 0001:000271b0       compute_allocation         00000001800281b0 f   libopus:rate.obj
 0001:00028190       pitch_downsample           0000000180029190 f   libopus:pitch.obj
 0001:00028560       celt_pitch_xcorr           0000000180029560 f   libopus:pitch.obj
 0001:00028660       pitch_search               0000000180029660 f   libopus:pitch.obj
 0001:000289b0       remove_doubling            00000001800299b0 f   libopus:pitch.obj
 0001:00028f90       opus_custom_mode_create    0000000180029f90 f   libopus:modes.obj
 0001:00029010       clt_mdct_forward_c         000000018002a010 f   libopus:mdct.obj
 0001:00029a60       clt_mdct_backward_c        000000018002aa60 f   libopus:mdct.obj
 0001:0002a280       silk_decode_frame          000000018002b280 f   libopus:decode_frame.obj
 0001:0002a510       silk_decode_indices        000000018002b510 f   libopus:decode_indices.obj
 0001:0002b060       silk_stereo_decode_pred    000000018002c060 f   libopus:stereo_decode_pred.obj
 0001:0002b270       silk_stereo_MS_to_LR       000000018002c270 f   libopus:stereo_MS_to_LR.obj
 0001:0002b640       silk_decode_pulses         000000018002c640 f   libopus:decode_pulses.obj
 0001:0002bac0       silk_decoder_set_fs        000000018002cac0 f   libopus:decoder_set_fs.obj
 0001:0002bde0       _celt_lpc                  000000018002cde0 f   libopus:celt_lpc.obj
 0001:0002c0a0       celt_fir_c                 000000018002d0a0 f   libopus:celt_lpc.obj
 0001:0002c440       celt_iir                   000000018002d440 f   libopus:celt_lpc.obj
 0001:0002c860       _celt_autocorr             000000018002d860 f   libopus:celt_lpc.obj
 0001:0002d1c0       alg_quant                  000000018002e1c0 f   libopus:vq.obj
 0001:0002d680       alg_unquant                000000018002e680 f   libopus:vq.obj
 0001:0002d7a0       renormalise_vector         000000018002e7a0 f   libopus:vq.obj
 0001:0002d8b0       stereo_itheta              000000018002e8b0 f   libopus:vq.obj
 0001:0002e6d0       silk_noise_shape_analysis_FLP 000000018002f6d0 f   libopus:noise_shape_analysis_FLP.obj
 0001:0002f1f0       silk_gains_quant           00000001800301f0 f   libopus:gain_quant.obj
 0001:0002f3d0       silk_gains_dequant         00000001800303d0 f   libopus:gain_quant.obj
 0001:0002f650       silk_prefilter_FLP         0000000180030650 f   libopus:prefilter_FLP.obj
 0001:0002ff40       silk_LP_variable_cutoff    0000000180030f40 f   libopus:LP_variable_cutoff.obj
 0001:00030000       silk_VAD_GetSA_Q8_c        0000000180031000 f   libopus:VAD.obj
 0001:00030a30       silk_find_pitch_lags_FLP   0000000180031a30 f   libopus:find_pitch_lags_FLP.obj
 0001:00030e40       silk_process_gains_FLP     0000000180031e40 f   libopus:process_gains_FLP.obj
 0001:000311d0       silk_NLSF2A_FLP            00000001800321d0 f   libopus:wrappers_FLP.obj
 0001:00031360       silk_NSQ_wrapper_FLP       0000000180032360 f   libopus:wrappers_FLP.obj
 0001:000317a0       silk_quant_LTP_gains_FLP   00000001800327a0 f   libopus:wrappers_FLP.obj
 0001:00031a40       silk_find_pred_coefs_FLP   0000000180032a40 f   libopus:find_pred_coefs_FLP.obj
 0001:00031e60       silk_control_audio_bandwidth 0000000180032e60 f   libopus:control_audio_bandwidth.obj
 0001:000320b0       silk_shell_encoder         00000001800330b0 f   libopus:shell_coder.obj
 0001:00032740       silk_shell_decoder         0000000180033740 f   libopus:shell_coder.obj
 0001:00032910       silk_encode_signs          0000000180033910 f   libopus:code_signs.obj
 0001:00032a30       silk_decode_signs          0000000180033a30 f   libopus:code_signs.obj
 0001:00032b60       silk_stereo_quant_pred     0000000180033b60 f   libopus:stereo_quant_pred.obj
 0001:00032cf0       silk_stereo_find_predictor 0000000180033cf0 f   libopus:stereo_find_predictor.obj
 0001:00032f20       silk_resampler_private_up2_HQ 0000000180033f20 f   libopus:resampler_private_up2_HQ.obj
 0001:00033230       silk_resampler_private_IIR_FIR 0000000180034230 f   libopus:resampler_private_IIR_FIR.obj
 0001:00033d80       silk_resampler_private_down_FIR 0000000180034d80 f   libopus:resampler_private_down_FIR.obj
 0001:00033f40       ec_laplace_encode          0000000180034f40 f   libopus:laplace.obj
 0001:00034080       ec_laplace_decode          0000000180035080 f   libopus:laplace.obj
 0001:00035200       silk_PLC_glue_frames       0000000180036200 f   libopus:PLC.obj
 0001:000355a0       silk_decode_core           00000001800365a0 f   libopus:decode_core.obj
 0001:00036070       silk_decode_parameters     0000000180037070 f   libopus:decode_parameters.obj
 0001:000364a0       silk_CNG_Reset             00000001800374a0 f   libopus:CNG.obj
 0001:00036510       silk_CNG                   0000000180037510 f   libopus:CNG.obj
 0001:00036f50       decode_pulses              0000000180037f50 f   libopus:cwrs.obj
 0001:00036fe0       silk_autocorrelation_FLP   0000000180037fe0 f   libopus:autocorrelation_FLP.obj
 0001:000371e0       silk_warped_autocorrelation_FLP 00000001800381e0 f   libopus:warped_autocorrelation_FLP.obj
 0001:000373c0       silk_energy_FLP            00000001800383c0 f   libopus:energy_FLP.obj
 0001:000374f0       silk_levinsondurbin_FLP    00000001800384f0 f   libopus:levinsondurbin_FLP.obj
 0001:000377e0       silk_apply_sine_window_FLP 00000001800387e0 f   libopus:apply_sine_window_FLP.obj
 0001:000378e0       silk_bwexpander_FLP        00000001800388e0 f   libopus:bwexpander_FLP.obj
 0001:00037990       silk_LPC_inverse_pred_gain_FLP 0000000180038990 f   libopus:LPC_inv_pred_gain_FLP.obj
 0001:00037c30       silk_biquad_alt            0000000180038c30 f   libopus:biquad_alt.obj
 0001:00037df0       silk_ana_filt_bank_1       0000000180038df0 f   libopus:ana_filt_bank_1.obj
 0001:00037f30       silk_schur_FLP             0000000180038f30 f   libopus:schur_FLP.obj
 0001:000381e0       silk_pitch_analysis_core_FLP 00000001800391e0 f   libopus:pitch_analysis_core_FLP.obj
 0001:0003af20       silk_k2a_FLP               000000018003bf20 f   libopus:k2a_FLP.obj
 0001:0003b0b0       silk_process_NLSFs         000000018003c0b0 f   libopus:process_NLSFs.obj
 0001:0003b2c0       silk_quant_LTP_gains       000000018003c2c0 f   libopus:quant_LTP_gains.obj
 0001:0003b690       silk_NSQ_c                 000000018003c690 f   libopus:NSQ.obj
 0001:0003cab0       silk_A2NLSF                000000018003dab0 f   libopus:A2NLSF.obj
 0001:0003ce60       silk_NSQ_del_dec_c         000000018003de60 f   libopus:NSQ_del_dec.obj
 0001:0003ebf0       silk_NLSF2A                000000018003fbf0 f   libopus:NLSF2A.obj
 0001:0003f300       silk_scale_copy_vector_FLP 0000000180040300 f   libopus:scale_copy_vector_FLP.obj
 0001:0003f4e0       silk_LTP_analysis_filter_FLP 00000001800404e0 f   libopus:LTP_analysis_filter_FLP.obj
 0001:0003f640       silk_find_LPC_FLP          0000000180040640 f   libopus:find_LPC_FLP.obj
 0001:0003f980       silk_residual_energy_covar_FLP 0000000180040980 f   libopus:residual_energy_FLP.obj
 0001:0003fc00       silk_residual_energy_FLP   0000000180040c00 f   libopus:residual_energy_FLP.obj
 0001:0003fe60       silk_find_LTP_FLP          0000000180040e60 f   libopus:find_LTP_FLP.obj
 0001:000405b0       silk_sum_sqr_shift         00000001800415b0 f   libopus:sum_sqr_shift.obj
 0001:000406b0       silk_inner_prod_aligned_scale 00000001800416b0 f   libopus:inner_prod_aligned.obj
 0001:00040980       silk_LPC_inverse_pred_gain 0000000180041980 f   libopus:LPC_inv_pred_gain.obj
 0001:00040be0       silk_LPC_analysis_filter   0000000180041be0 f   libopus:LPC_analysis_filter.obj
 0001:00040d40       silk_NLSF_decode           0000000180041d40 f   libopus:NLSF_decode.obj
 0001:00041010       silk_decode_pitch          0000000180042010 f   libopus:decode_pitch.obj
 0001:000410e0       silk_inner_product_FLP     00000001800420e0 f   libopus:inner_product_FLP.obj
 0001:00041280       silk_insertion_sort_decreasing_FLP 0000000180042280 f   libopus:sort_FLP.obj
 0001:00041590       silk_resampler_down2_3     0000000180042590 f   libopus:resampler_down2_3.obj
 0001:00041860       silk_NLSF_encode           0000000180042860 f   libopus:NLSF_encode.obj
 0001:00041e00       silk_NLSF_VQ_weights_laroia 0000000180042e00 f   libopus:NLSF_VQ_weights_laroia.obj
 0001:00041f60       silk_interpolate           0000000180042f60 f   libopus:interpolate.obj
 0001:000420a0       silk_VQ_WMat_EC_c          00000001800430a0 f   libopus:VQ_WMat_EC.obj
 0001:00042490       silk_bwexpander_32         0000000180043490 f   libopus:bwexpander_32.obj
 0001:00042540       silk_burg_modified_FLP     0000000180043540 f   libopus:burg_modified_FLP.obj
 0001:000435b0       silk_corrVector_FLP        00000001800445b0 f   libopus:corrMatrix_FLP.obj
 0001:00043780       silk_corrMatrix_FLP        0000000180044780 f   libopus:corrMatrix_FLP.obj
 0001:00044020       silk_NLSF_stabilize        0000000180045020 f   libopus:NLSF_stabilize.obj
 0001:00044310       silk_NLSF_VQ               0000000180045310 f   libopus:NLSF_VQ.obj
 0001:000443b0       silk_insertion_sort_increasing 00000001800453b0 f   libopus:sort.obj
 0001:00044560       silk_NLSF_del_dec_quant    0000000180045560 f   libopus:NLSF_del_dec_quant.obj
 0001:00044ae9       __imp_load_?Value@External@v8@@QEBAPEAXXZ 0000000180045ae9 f   node:node.exe
 0001:00044af5       __tailMerge_node_exe       0000000180045af5 f i node:node.exe
 0001:00044b6e       __imp_load_?New@External@v8@@SA?AV?$Local@VExternal@v8@@@2@PEAVIsolate@2@PEAX@Z 0000000180045b6e f   node:node.exe
 0001:00044b7a       __imp_load_?New@Integer@v8@@SA?AV?$Local@VInteger@v8@@@2@PEAVIsolate@2@H@Z 0000000180045b7a f   node:node.exe
 0001:00044b86       __imp_load_?New@Signature@v8@@SA?AV?$Local@VSignature@v8@@@2@PEAVIsolate@2@V?$Local@VFunctionTemplate@v8@@@2@@Z 0000000180045b86 f   node:node.exe
 0001:00044b92       __imp_load_?ThrowException@Isolate@v8@@QEAA?AV?$Local@VValue@v8@@@2@V32@@Z 0000000180045b92 f   node:node.exe
 0001:00044b9e       __imp_load_?GetCurrentContext@Isolate@v8@@QEAA?AV?$Local@VContext@v8@@@2@XZ 0000000180045b9e f   node:node.exe
 0001:00044baa       __imp_load_?GetCurrent@Isolate@v8@@SAPEAV12@XZ 0000000180045baa f   node:node.exe
 0001:00044bb6       __imp_load_?CreateHandle@HandleScope@v8@@KAPEAPEAVObject@internal@2@PEAVIsolate@42@PEAV342@@Z 0000000180045bb6 f   node:node.exe
 0001:00044bc2       __imp_load_?CreateHandle@HandleScope@v8@@CAPEAPEAVObject@internal@2@PEAVHeapObject@42@PEAV342@@Z 0000000180045bc2 f   node:node.exe
 0001:00044bce       __imp_load_??1HandleScope@v8@@QEAA@XZ 0000000180045bce f   node:node.exe
 0001:00044bda       __imp_load_??0HandleScope@v8@@QEAA@PEAVIsolate@1@@Z 0000000180045bda f   node:node.exe
 0001:00044be6       __imp_load_?Set@Template@v8@@QEAAXV?$Local@VName@v8@@@2@V?$Local@VData@v8@@@2@W4PropertyAttribute@2@@Z 0000000180045be6 f   node:node.exe
 0001:00044bf2       __imp_load_?Error@Exception@v8@@SA?AV?$Local@VValue@v8@@@2@V?$Local@VString@v8@@@2@@Z 0000000180045bf2 f   node:node.exe
 0001:00044bfe       __imp_load_?TypeError@Exception@v8@@SA?AV?$Local@VValue@v8@@@2@V?$Local@VString@v8@@@2@@Z 0000000180045bfe f   node:node.exe
 0001:00044c0a       __imp_load_?SetClassName@FunctionTemplate@v8@@QEAAXV?$Local@VString@v8@@@2@@Z 0000000180045c0a f   node:node.exe
 0001:00044c16       __imp_load_?PrototypeTemplate@FunctionTemplate@v8@@QEAA?AV?$Local@VObjectTemplate@v8@@@2@XZ 0000000180045c16 f   node:node.exe
 0001:00044c22       __imp_load_?InstanceTemplate@FunctionTemplate@v8@@QEAA?AV?$Local@VObjectTemplate@v8@@@2@XZ 0000000180045c22 f   node:node.exe
 0001:00044c2e       __imp_load_?GetFunction@FunctionTemplate@v8@@QEAA?AV?$Local@VFunction@v8@@@2@XZ 0000000180045c2e f   node:node.exe
 0001:00044c3a       __imp_load_?New@FunctionTemplate@v8@@SA?AV?$Local@VFunctionTemplate@v8@@@2@PEAVIsolate@2@P6AXAEBV?$FunctionCallbackInfo@VValue@v8@@@2@@ZV?$Local@VValue@v8@@@2@V?$Local@VSignature@v8@@@2@H@Z 0000000180045c3a f   node:node.exe
 0001:00044c46       __imp_load_?ToLocalEmpty@V8@v8@@CAXXZ 0000000180045c46 f   node:node.exe
 0001:00044c52       __imp_load_?ClearWeak@V8@v8@@CAPEAXPEAPEAVObject@internal@2@@Z 0000000180045c52 f   node:node.exe
 0001:00044c5e       __imp_load_?MakeWeak@V8@v8@@CAXPEAPEAVObject@internal@2@PEAXP6AXAEBV?$WeakCallbackInfo@X@2@@ZW4WeakCallbackType@2@@Z 0000000180045c5e f   node:node.exe
 0001:00044c6a       __imp_load_?DisposeGlobal@V8@v8@@CAXPEAPEAVObject@internal@2@@Z 0000000180045c6a f   node:node.exe
 0001:00044c76       __imp_load_?GlobalizeReference@V8@v8@@CAPEAPEAVObject@internal@2@PEAVIsolate@42@PEAPEAV342@@Z 0000000180045c76 f   node:node.exe
 0001:00044c82       __imp_load_?Int32Value@Value@v8@@QEBAHXZ 0000000180045c82 f   node:node.exe
 0001:00044c8e       __imp_load_?ToInteger@Value@v8@@QEBA?AV?$MaybeLocal@VInteger@v8@@@2@V?$Local@VContext@v8@@@2@@Z 0000000180045c8e f   node:node.exe
 0001:00044c9a       __imp_load_?IsNumber@Value@v8@@QEBA_NXZ 0000000180045c9a f   node:node.exe
 0001:00044ca6       __imp_load_?IsObject@Value@v8@@QEBA_NXZ 0000000180045ca6 f   node:node.exe
 0001:00044cb2       __imp_load_?Escape@EscapableHandleScope@v8@@AEAAPEAPEAVObject@internal@2@PEAPEAV342@@Z 0000000180045cb2 f   node:node.exe
 0001:00044cbe       __imp_load_??0EscapableHandleScope@v8@@QEAA@PEAVIsolate@1@@Z 0000000180045cbe f   node:node.exe
 0001:00044cca       __imp_load_?NewFromUtf8@String@v8@@SA?AV?$MaybeLocal@VString@v8@@@2@PEAVIsolate@2@PEBDW4NewStringType@2@H@Z 0000000180045cca f   node:node.exe
 0001:00044cd6       __imp_load_?SlowGetAlignedPointerFromInternalField@Object@v8@@AEAAPEAXH@Z 0000000180045cd6 f   node:node.exe
 0001:00044ce2       __imp_load_?SlowGetInternalField@Object@v8@@AEAA?AV?$Local@VValue@v8@@@2@H@Z 0000000180045ce2 f   node:node.exe
 0001:00044cee       __imp_load_?SetAlignedPointerInInternalField@Object@v8@@QEAAXHPEAX@Z 0000000180045cee f   node:node.exe
 0001:00044cfa       __imp_load_?SetInternalField@Object@v8@@QEAAXHV?$Local@VValue@v8@@@2@@Z 0000000180045cfa f   node:node.exe
 0001:00044d06       __imp_load_?InternalFieldCount@Object@v8@@QEAAHXZ 0000000180045d06 f   node:node.exe
 0001:00044d12       __imp_load_?Set@Object@v8@@QEAA_NV?$Local@VValue@v8@@@2@0@Z 0000000180045d12 f   node:node.exe
 0001:00044d1e       __imp_load_?SetInternalFieldCount@ObjectTemplate@v8@@QEAAXH@Z 0000000180045d1e f   node:node.exe
 0001:00044d2a       __imp_load_?NewInstance@ObjectTemplate@v8@@QEAA?AV?$MaybeLocal@VObject@v8@@@2@V?$Local@VContext@v8@@@2@@Z 0000000180045d2a f   node:node.exe
 0001:00044d36       __imp_load_?New@ObjectTemplate@v8@@SA?AV?$Local@VObjectTemplate@v8@@@2@PEAVIsolate@2@V?$Local@VFunctionTemplate@v8@@@2@@Z 0000000180045d36 f   node:node.exe
 0001:00044d42       __imp_load_node_module_register 0000000180045d42 f   node:node.exe
 0001:00044d4e       __imp_load_?Data@Buffer@node@@YAPEADV?$Local@VObject@v8@@@v8@@@Z 0000000180045d4e f   node:node.exe
 0001:00044d5a       __imp_load_?Copy@Buffer@node@@YA?AV?$MaybeLocal@VObject@v8@@@v8@@PEAVIsolate@4@PEBD_K@Z 0000000180045d5a f   node:node.exe
 0001:00044d66       __imp_load_?Length@Buffer@node@@YA_KV?$Local@VObject@v8@@@v8@@@Z 0000000180045d66 f   node:node.exe
 0001:00044d90       __security_check_cookie    0000000180045d90 f   LIBCMT:_amdsecgs_.obj
 0001:00044db4       ??2@YAPEAX_K@Z             0000000180045db4 f   LIBCMT:new_scalar.obj
 0001:00044df0       ??3@YAXPEAX_K@Z            0000000180045df0 f   LIBCMT:delete_scalar_size.obj
 0001:00044df8       ??_U@YAPEAX_K@Z            0000000180045df8 f   LIBCMT:new_array.obj
 0001:0004515c       _DllMainCRTStartup         000000018004615c f   LIBCMT:dll_dllmain.obj
 0001:0004519c       __raise_securityfailure    000000018004619c f   LIBCMT:gs_report.obj
 0001:000451d0       __report_gsfailure         00000001800461d0 f   LIBCMT:gs_report.obj
 0001:000452a4       __report_rangecheckfailure 00000001800462a4 f   LIBCMT:gs_report.obj
 0001:000452b8       __report_securityfailure   00000001800462b8 f   LIBCMT:gs_report.obj
 0001:00045438       ??0bad_alloc@std@@QEAA@AEBV01@@Z 0000000180046438 f i LIBCMT:throw_bad_alloc.obj
 0001:00045478       ??0bad_alloc@std@@QEAA@XZ  0000000180046478 f i LIBCMT:throw_bad_alloc.obj
 0001:00045498       ??0bad_array_new_length@std@@QEAA@AEBV01@@Z 0000000180046498 f i LIBCMT:throw_bad_alloc.obj
 0001:000454d8       ??0bad_array_new_length@std@@QEAA@XZ 00000001800464d8 f i LIBCMT:throw_bad_alloc.obj
 0001:000454f8       ??0exception@std@@QEAA@AEBV01@@Z 00000001800464f8 f i LIBCMT:throw_bad_alloc.obj
 0001:00045530       ??1bad_array_new_length@std@@UEAA@XZ 0000000180046530 f i LIBCMT:throw_bad_alloc.obj
 0001:00045530       ??1bad_alloc@std@@UEAA@XZ  0000000180046530 f i LIBCMT:throw_bad_alloc.obj
 0001:00045544       ??_Gbad_alloc@std@@UEAAPEAXI@Z 0000000180046544 f i LIBCMT:throw_bad_alloc.obj
 0001:00045544       ??_Ebad_array_new_length@std@@UEAAPEAXI@Z 0000000180046544 f i LIBCMT:throw_bad_alloc.obj
 0001:00045544       ??_Eexception@std@@UEAAPEAXI@Z 0000000180046544 f i LIBCMT:throw_bad_alloc.obj
 0001:00045544       ??_Gbad_array_new_length@std@@UEAAPEAXI@Z 0000000180046544 f i LIBCMT:throw_bad_alloc.obj
 0001:00045544       ??_Gexception@std@@UEAAPEAXI@Z 0000000180046544 f i LIBCMT:throw_bad_alloc.obj
 0001:00045544       ??_Ebad_alloc@std@@UEAAPEAXI@Z 0000000180046544 f i LIBCMT:throw_bad_alloc.obj
 0001:00045588       ?__scrt_throw_std_bad_alloc@@YAXXZ 0000000180046588 f   LIBCMT:throw_bad_alloc.obj
 0001:000455a8       ?__scrt_throw_std_bad_array_new_length@@YAXXZ 00000001800465a8 f   LIBCMT:throw_bad_alloc.obj
 0001:000455c8       ?what@exception@std@@UEBAPEBDXZ 00000001800465c8 f i LIBCMT:throw_bad_alloc.obj
 0001:000455dc       __scrt_acquire_startup_lock 00000001800465dc f   LIBCMT:utility.obj
 0001:00045618       __scrt_dllmain_after_initialize_c 0000000180046618 f   LIBCMT:utility.obj
 0001:00045638       __scrt_dllmain_before_initialize_c 0000000180046638 f   LIBCMT:utility.obj
 0001:00045650       __scrt_dllmain_crt_thread_attach 0000000180046650 f   LIBCMT:utility.obj
 0001:00045678       __scrt_dllmain_crt_thread_detach 0000000180046678 f   LIBCMT:utility.obj
 0001:00045690       __scrt_dllmain_exception_filter 0000000180046690 f   LIBCMT:utility.obj
 0001:000456f4       __scrt_dllmain_uninitialize_c 00000001800466f4 f   LIBCMT:utility.obj
 0001:00045724       __scrt_dllmain_uninitialize_critical 0000000180046724 f   LIBCMT:utility.obj
 0001:00045738       __scrt_initialize_crt      0000000180046738 f   LIBCMT:utility.obj
 0001:00045784       __scrt_initialize_onexit_tables 0000000180046784 f   LIBCMT:utility.obj
 0001:00045850       __scrt_is_nonwritable_in_current_image 0000000180046850 f   LIBCMT:utility.obj
 0001:000458ec       __scrt_release_startup_lock 00000001800468ec f   LIBCMT:utility.obj
 0001:00045910       __scrt_uninitialize_crt    0000000180046910 f   LIBCMT:utility.obj
 0001:0004593c       _onexit                    000000018004693c f   LIBCMT:utility.obj
 0001:0004598c       atexit                     000000018004698c f   LIBCMT:utility.obj
 0001:000459a4       __security_init_cookie     00000001800469a4 f   LIBCMT:gs_support.obj
 0001:00045a50       DllMain                    0000000180046a50 f   LIBCMT:dll_dllmain_stub.obj
 0001:00045a58       ?__scrt_initialize_type_info@@YAXXZ 0000000180046a58 f   LIBCMT:tncleanup.obj
 0001:00045a68       ?__scrt_uninitialize_type_info@@YAXXZ 0000000180046a68 f   LIBCMT:tncleanup.obj
 0001:00045a74       __local_stdio_printf_options 0000000180046a74 f i LIBCMT:default_local_stdio_options.obj
 0001:00045a7c       __local_stdio_scanf_options 0000000180046a7c f i LIBCMT:default_local_stdio_options.obj
 0001:00045a84       __scrt_initialize_default_local_stdio_options 0000000180046a84 f   LIBCMT:default_local_stdio_options.obj
 0001:00045aa0       __scrt_get_dyn_tls_init_callback 0000000180046aa0 f   LIBCMT:dyn_tls_init.obj
 0001:00045aa8       __crt_debugger_hook        0000000180046aa8 f   LIBCMT:utility_desktop.obj
 0001:00045ab0       __scrt_fastfail            0000000180046ab0 f   LIBCMT:utility_desktop.obj
 0001:00045bf8       _RTC_Initialize            0000000180046bf8 f   LIBCMT:_initsect_.obj
 0001:00045c44       _RTC_Terminate             0000000180046c44 f   LIBCMT:_initsect_.obj
 0001:00045c90       _guard_check_icall         0000000180046c90 f i LIBCMT:checkcfg.obj
 0001:00045c98       ??_Gtype_info@@UEAAPEAXI@Z 0000000180046c98 f i LIBCMT:std_type_info_static.obj
 0001:00045c98       ??_Etype_info@@UEAAPEAXI@Z 0000000180046c98 f i LIBCMT:std_type_info_static.obj
 0001:00045cc4       __isa_available_init       0000000180046cc4 f   LIBCMT:_cpu_disp_.obj
 0001:00045e88       __scrt_is_ucrt_dll_in_use  0000000180046e88 f   LIBCMT:ucrt_detection.obj
 0001:00045e94       _guard_check_icall_nop     0000000180046e94 f i LIBCMT:guard_support.obj
 0001:00045e94       __except_validate_context_record 0000000180046e94 f i libvcruntime:jbcxrval.obj
 0001:00045eb0       memmove                    0000000180046eb0 f   libvcruntime:memcpy.obj
 0001:00045eb0       memcpy                     0000000180046eb0 f   libvcruntime:memcpy.obj
 0001:000462ec       __telemetry_main_invoke_trigger 00000001800472ec f   libvcruntime:telemetry.obj
 0001:00046404       __telemetry_main_return_trigger 0000000180047404 f   libvcruntime:telemetry.obj
 0001:0004651c       __vcrt_initialize_telemetry_provider 000000018004751c f   libvcruntime:telemetry.obj
 0001:00046530       __vcrt_uninitialize_telemetry_provider 0000000180047530 f   libvcruntime:telemetry.obj
 0001:00046550       __C_specific_handler       0000000180047550 f   libvcruntime:_chandler_.obj
 0001:00046740       __std_exception_copy       0000000180047740 f   libvcruntime:std_exception.obj
 0001:000467d0       __std_exception_destroy    00000001800477d0 f   libvcruntime:std_exception.obj
 0001:000467f8       _CxxThrowException         00000001800477f8 f   libvcruntime:throw.obj
 0001:000468d0       __vcrt_initialize          00000001800478d0 f   libvcruntime:initialization.obj
 0001:00046908       __vcrt_thread_attach       0000000180047908 f   libvcruntime:initialization.obj
 0001:0004691c       __vcrt_thread_detach       000000018004791c f   libvcruntime:initialization.obj
 0001:00046930       __vcrt_uninitialize        0000000180047930 f   libvcruntime:initialization.obj
 0001:0004695c       __vcrt_uninitialize_critical 000000018004795c f   libvcruntime:initialization.obj
 0001:0004696c       __std_type_info_destroy_list 000000018004796c f   libvcruntime:std_type_info.obj
 0001:000469b0       memset                     00000001800479b0 f   libvcruntime:memset.obj
 0001:00046d18       __vcrt_EventRegister       0000000180047d18 f   libvcruntime:winapi_downlevel.obj
 0001:00046d9c       __vcrt_EventSetInformation 0000000180047d9c f   libvcruntime:winapi_downlevel.obj
 0001:00046e20       __vcrt_EventUnregister     0000000180047e20 f   libvcruntime:winapi_downlevel.obj
 0001:00046e74       __vcrt_EventWriteTransfer  0000000180047e74 f   libvcruntime:winapi_downlevel.obj
 0001:00046f0c       __vcrt_FlsAlloc            0000000180047f0c f   libvcruntime:winapi_downlevel.obj
 0001:00046f60       __vcrt_FlsFree             0000000180047f60 f   libvcruntime:winapi_downlevel.obj
 0001:00046fb4       __vcrt_FlsGetValue         0000000180047fb4 f   libvcruntime:winapi_downlevel.obj
 0001:00047008       __vcrt_FlsSetValue         0000000180048008 f   libvcruntime:winapi_downlevel.obj
 0001:00047070       __vcrt_InitializeCriticalSectionEx 0000000180048070 f   libvcruntime:winapi_downlevel.obj
 0001:000470e8       __vcrt_initialize_winapi_thunks 00000001800480e8 f   libvcruntime:winapi_downlevel.obj
 0001:00047120       __vcrt_uninitialize_winapi_thunks 0000000180048120 f   libvcruntime:winapi_downlevel.obj
 0001:00047170       _local_unwind              0000000180048170 f   libvcruntime:_jmpuwind_.obj
 0001:000471a0       _NLG_Notify                00000001800481a0 f   libvcruntime:_jmpuwind_.obj
 0001:000471c0       __NLG_Dispatch2            00000001800481c0 f   libvcruntime:_jmpuwind_.obj
 0001:000471d0       __NLG_Return2              00000001800481d0 f   libvcruntime:_jmpuwind_.obj
 0001:000471d4       __vcrt_freefls             00000001800481d4 f   libvcruntime:per_thread_data.obj
 0001:000471f4       __vcrt_freeptd             00000001800481f4 f   libvcruntime:per_thread_data.obj
 0001:00047244       __vcrt_getptd_noexit       0000000180048244 f   libvcruntime:per_thread_data.obj
 0001:000472ec       __vcrt_initialize_ptd      00000001800482ec f   libvcruntime:per_thread_data.obj
 0001:0004732c       __vcrt_uninitialize_ptd    000000018004832c f   libvcruntime:per_thread_data.obj
 0001:00047350       __vcrt_initialize_locks    0000000180048350 f   libvcruntime:locks.obj
 0001:00047398       __vcrt_uninitialize_locks  0000000180048398 f   libvcruntime:locks.obj
 0001:000473d0       __vcrt_initialize_pure_virtual_call_handler 00000001800483d0 f   libvcruntime:purevirt_data.obj
 0001:00047ddc       ??$ftprintf@PEAU_iobuf@@PEB_WAEBQEB_WAEBQEB_WAEBI@?$__crt_char_traits@_W@@SAH$$QEAPEAU_iobuf@@$$QEAPEB_WAEBQEB_W2AEBI@Z 0000000180048ddc f i libucrt:assert.obj
 0001:00047e04       _wassert                   0000000180048e04 f   libucrt:assert.obj
 0001:00047e88       fwprintf                   0000000180048e88 f i libucrt:assert.obj
 0001:00047ecc       swprintf                   0000000180048ecc f i libucrt:assert.obj
 0001:00047f20       ??0_LocaleUpdate@@QEAA@QEAU__crt_locale_pointers@@@Z 0000000180048f20 f i libucrt:stricmp.obj
 0001:00047fb0       __ascii_stricmp            0000000180048fb0 f   libucrt:stricmp.obj
 0001:00047fec       _stricmp                   0000000180048fec f   libucrt:stricmp.obj
 0001:00048034       _stricmp_l                 0000000180049034 f   libucrt:stricmp.obj
 0001:000480e8       free                       00000001800490e8 f   libucrt:free.obj
 0001:000480f0       malloc                     00000001800490f0 f   libucrt:malloc.obj
 0001:000480f8       __acrt_initialize_new_handler 00000001800490f8 f   libucrt:new_handler.obj
 0001:00048100       _callnewh                  0000000180049100 f   libucrt:new_handler.obj
 0001:00048140       _query_new_handler         0000000180049140 f   libucrt:new_handler.obj
 0001:00048174       _initterm                  0000000180049174 f   libucrt:initterm.obj
 0001:000481ec       _initterm_e                00000001800491ec f   libucrt:initterm.obj
 0001:00048238       _seh_filter_dll            0000000180049238 f   libucrt:exception_filter.obj
 0001:0004824c       _seh_filter_exe            000000018004924c f   libucrt:exception_filter.obj
 0001:0004860c       __acrt_initialize_thread_local_exit_callback 000000018004960c f   libucrt:exit.obj
 0001:00048614       _cexit                     0000000180049614 f   libucrt:exit.obj
 0001:00048624       _exit                      0000000180049624 f   libucrt:exit.obj
 0001:00048630       _is_c_termination_complete 0000000180049630 f   libucrt:exit.obj
 0001:0004881c       __dcrt_uninitialize_environments_nolock 000000018004981c f   libucrt:environment_initialization.obj
 0001:00048854       _initialize_narrow_environment 0000000180049854 f   libucrt:environment_initialization.obj
 0001:0004885c       ??$?RV<lambda_b8c45f8f788dd370798f47cfe8ac3a86>@@AEAV<lambda_4e60a939b0d047cfe11ddc22648dfba9>@@V<lambda_332c3edc96d0294ec56c57d38c1cdfd5>@@@?$__crt_seh_guarded_call@H@@QEAAH$$QEAV<lambda_b8c45f8f788dd370798f47cfe8ac3a86>@@AEAV<lambda_4e60a939b0d047cfe11ddc22648dfba9>@@$$QEAV<lambda_332c3edc96d0294ec56c57d38c1cdfd5>@@@Z 000000018004985c f i libucrt:onexit.obj
 0001:00048898       ??$?RV<lambda_e24bbb7b643b32fcea6fa61b31d4c984>@@AEAV<lambda_275893d493268fdec8709772e3fcec0e>@@V<lambda_9d71df4d7cf3f480f8d633942495c3b0>@@@?$__crt_seh_guarded_call@H@@QEAAH$$QEAV<lambda_e24bbb7b643b32fcea6fa61b31d4c984>@@AEAV<lambda_275893d493268fdec8709772e3fcec0e>@@$$QEAV<lambda_9d71df4d7cf3f480f8d633942495c3b0>@@@Z 0000000180049898 f i libucrt:onexit.obj
 0001:00048c14       _crt_atexit                0000000180049c14 f   libucrt:onexit.obj
 0001:00048c24       _execute_onexit_table      0000000180049c24 f   libucrt:onexit.obj
 0001:00048c60       _initialize_onexit_table   0000000180049c60 f   libucrt:onexit.obj
 0001:00048ca0       _register_onexit_function  0000000180049ca0 f   libucrt:onexit.obj
 0001:00048d30       __acrt_uninitialize_command_line 0000000180049d30 f   libucrt:argv_data.obj
 0001:00048e20       __acrt_initialize          0000000180049e20 f   libucrt:initialization.obj
 0001:00048e34       __acrt_thread_attach       0000000180049e34 f   libucrt:initialization.obj
 0001:00048e48       __acrt_thread_detach       0000000180049e48 f   libucrt:initialization.obj
 0001:00048e58       __acrt_uninitialize        0000000180049e58 f   libucrt:initialization.obj
 0001:00048e6c       __acrt_uninitialize_critical 0000000180049e6c f   libucrt:initialization.obj
 0001:00048e7c       terminate                  0000000180049e7c f   libucrt:terminate.obj
 0001:00048ea4       strcpy_s                   0000000180049ea4 f   libucrt:strcpy_s.obj
 0001:00048f04       _free_base                 0000000180049f04 f   libucrt:free_base.obj
 0001:00048f44       _malloc_base               0000000180049f44 f   libucrt:malloc_base.obj
 0001:00048fa4       abort                      0000000180049fa4 f   libucrt:abort.obj
 0001:00048ffc       _calloc_base               0000000180049ffc f   libucrt:calloc_base.obj
 0001:00049074       ??$?RV<lambda_7b91131dde12e1c3dfc74ff76b3f2eac>@@AEAV<lambda_dd75445284c072d0bd3768540cc698fa>@@V<lambda_16bc4ecb55b4718497c16bceaea2ceaf>@@@?$__crt_seh_guarded_call@H@@QEAAH$$QEAV<lambda_7b91131dde12e1c3dfc74ff76b3f2eac>@@AEAV<lambda_dd75445284c072d0bd3768540cc698fa>@@$$QEAV<lambda_16bc4ecb55b4718497c16bceaea2ceaf>@@@Z 000000018004a074 f i libucrt:output.obj
 0001:000490b4       ??$ensure_buffer_is_big_enough@D@formatting_buffer@__crt_stdio_output@@QEAA_N_K@Z 000000018004a0b4 f i libucrt:output.obj
 0001:00049160       ??$is_wide_character_specifier@_W@__crt_stdio_output@@YA_N_K_WW4length_modifier@0@@Z 000000018004a160 f i libucrt:output.obj
 0001:000491a4       ??$type_case_integer_parse_into_buffer@I@?$output_processor@_WV?$stream_output_adapter@_W@__crt_stdio_output@@V?$standard_base@_WV?$stream_output_adapter@_W@__crt_stdio_output@@@2@@__crt_stdio_output@@AEAAXII_N@Z 000000018004a1a4 f i libucrt:output.obj
 0001:000491a4       ??$type_case_integer_parse_into_buffer@I@?$output_processor@_WV?$string_output_adapter@_W@__crt_stdio_output@@V?$standard_base@_WV?$string_output_adapter@_W@__crt_stdio_output@@@2@@__crt_stdio_output@@AEAAXII_N@Z 000000018004a1a4 f i libucrt:output.obj
 0001:00049240       ??$type_case_integer_parse_into_buffer@_K@?$output_processor@_WV?$string_output_adapter@_W@__crt_stdio_output@@V?$standard_base@_WV?$string_output_adapter@_W@__crt_stdio_output@@@2@@__crt_stdio_output@@AEAAX_KI_N@Z 000000018004a240 f i libucrt:output.obj
 0001:00049240       ??$type_case_integer_parse_into_buffer@_K@?$output_processor@_WV?$stream_output_adapter@_W@__crt_stdio_output@@V?$standard_base@_WV?$stream_output_adapter@_W@__crt_stdio_output@@@2@@__crt_stdio_output@@AEAAX_KI_N@Z 000000018004a240 f i libucrt:output.obj
 0001:000492dc       ??$write_multiple_characters@V?$stream_output_adapter@_W@__crt_stdio_output@@D@__crt_stdio_output@@YAXAEBV?$stream_output_adapter@_W@0@DHQEAH@Z 000000018004a2dc f i libucrt:output.obj
 0001:0004936c       ??$write_multiple_characters@V?$string_output_adapter@_W@__crt_stdio_output@@D@__crt_stdio_output@@YAXAEBV?$string_output_adapter@_W@0@DHQEAH@Z 000000018004a36c f i libucrt:output.obj
 0001:000493dc       ??0?$output_processor@_WV?$string_output_adapter@_W@__crt_stdio_output@@V?$standard_base@_WV?$string_output_adapter@_W@__crt_stdio_output@@@2@@__crt_stdio_output@@QEAA@AEBV?$string_output_adapter@_W@1@_KQEB_WQEAU__crt_locale_pointers@@QEAD@Z 000000018004a3dc f i libucrt:output.obj
 0001:000493dc       ??0?$output_processor@_WV?$stream_output_adapter@_W@__crt_stdio_output@@V?$standard_base@_WV?$stream_output_adapter@_W@__crt_stdio_output@@@2@@__crt_stdio_output@@QEAA@AEBV?$stream_output_adapter@_W@1@_KQEB_WQEAU__crt_locale_pointers@@QEAD@Z 000000018004a3dc f i libucrt:output.obj
 0001:0004954c       ?force_decimal_point@__crt_stdio_output@@YAXPEADQEAU__crt_locale_pointers@@@Z 000000018004a54c f i libucrt:output.obj
 0001:000495bc       ?parse_int_from_format_string@?$output_processor@_WV?$string_output_adapter@_W@__crt_stdio_output@@V?$standard_base@_WV?$string_output_adapter@_W@__crt_stdio_output@@@2@@__crt_stdio_output@@AEAA_NQEAH@Z 000000018004a5bc f i libucrt:output.obj
 0001:000495bc       ?parse_int_from_format_string@?$output_processor@_WV?$stream_output_adapter@_W@__crt_stdio_output@@V?$standard_base@_WV?$stream_output_adapter@_W@__crt_stdio_output@@@2@@__crt_stdio_output@@AEAA_NQEAH@Z 000000018004a5bc f i libucrt:output.obj
 0001:0004963c       ?process@?$output_processor@_WV?$stream_output_adapter@_W@__crt_stdio_output@@V?$standard_base@_WV?$stream_output_adapter@_W@__crt_stdio_output@@@2@@__crt_stdio_output@@QEAAHXZ 000000018004a63c f i libucrt:output.obj
 0001:000498b4       ?process@?$output_processor@_WV?$string_output_adapter@_W@__crt_stdio_output@@V?$standard_base@_WV?$string_output_adapter@_W@__crt_stdio_output@@@2@@__crt_stdio_output@@QEAAHXZ 000000018004a8b4 f i libucrt:output.obj
 0001:00049b30       ?state_case_size@?$output_processor@_WV?$stream_output_adapter@_W@__crt_stdio_output@@V?$standard_base@_WV?$stream_output_adapter@_W@__crt_stdio_output@@@2@@__crt_stdio_output@@AEAA_NXZ 000000018004ab30 f i libucrt:output.obj
 0001:00049cd4       ?state_case_size@?$output_processor@_WV?$string_output_adapter@_W@__crt_stdio_output@@V?$standard_base@_WV?$string_output_adapter@_W@__crt_stdio_output@@@2@@__crt_stdio_output@@AEAA_NXZ 000000018004acd4 f i libucrt:output.obj
 0001:00049e78       ?state_case_type@?$output_processor@_WV?$stream_output_adapter@_W@__crt_stdio_output@@V?$standard_base@_WV?$stream_output_adapter@_W@__crt_stdio_output@@@2@@__crt_stdio_output@@AEAA_NXZ 000000018004ae78 f i libucrt:output.obj
 0001:0004a144       ?state_case_type@?$output_processor@_WV?$string_output_adapter@_W@__crt_stdio_output@@V?$standard_base@_WV?$string_output_adapter@_W@__crt_stdio_output@@@2@@__crt_stdio_output@@AEAA_NXZ 000000018004b144 f i libucrt:output.obj
 0001:0004a410       ?type_case_Z@?$output_processor@_WV?$string_output_adapter@_W@__crt_stdio_output@@V?$standard_base@_WV?$string_output_adapter@_W@__crt_stdio_output@@@2@@__crt_stdio_output@@AEAA_NXZ 000000018004b410 f i libucrt:output.obj
 0001:0004a410       ?type_case_Z@?$output_processor@_WV?$stream_output_adapter@_W@__crt_stdio_output@@V?$standard_base@_WV?$stream_output_adapter@_W@__crt_stdio_output@@@2@@__crt_stdio_output@@AEAA_NXZ 000000018004b410 f i libucrt:output.obj
 0001:0004a490       ?type_case_a@?$output_processor@_WV?$string_output_adapter@_W@__crt_stdio_output@@V?$standard_base@_WV?$string_output_adapter@_W@__crt_stdio_output@@@2@@__crt_stdio_output@@AEAA_NXZ 000000018004b490 f i libucrt:output.obj
 0001:0004a490       ?type_case_a@?$output_processor@_WV?$stream_output_adapter@_W@__crt_stdio_output@@V?$standard_base@_WV?$stream_output_adapter@_W@__crt_stdio_output@@@2@@__crt_stdio_output@@AEAA_NXZ 000000018004b490 f i libucrt:output.obj
 0001:0004a6d4       ?type_case_c_tchar@?$output_processor@_WV?$string_output_adapter@_W@__crt_stdio_output@@V?$standard_base@_WV?$string_output_adapter@_W@__crt_stdio_output@@@2@@__crt_stdio_output@@AEAA_N_W@Z 000000018004b6d4 f i libucrt:output.obj
 0001:0004a6d4       ?type_case_c_tchar@?$output_processor@_WV?$stream_output_adapter@_W@__crt_stdio_output@@V?$standard_base@_WV?$stream_output_adapter@_W@__crt_stdio_output@@@2@@__crt_stdio_output@@AEAA_N_W@Z 000000018004b6d4 f i libucrt:output.obj
 0001:0004a77c       ?type_case_integer@?$output_processor@_WV?$stream_output_adapter@_W@__crt_stdio_output@@V?$standard_base@_WV?$stream_output_adapter@_W@__crt_stdio_output@@@2@@__crt_stdio_output@@AEAA_NI_N@Z 000000018004b77c f i libucrt:output.obj
 0001:0004a77c       ?type_case_integer@?$output_processor@_WV?$string_output_adapter@_W@__crt_stdio_output@@V?$standard_base@_WV?$string_output_adapter@_W@__crt_stdio_output@@@2@@__crt_stdio_output@@AEAA_NI_N@Z 000000018004b77c f i libucrt:output.obj
 0001:0004a91c       ?type_case_n@?$output_processor@_WV?$stream_output_adapter@_W@__crt_stdio_output@@V?$standard_base@_WV?$stream_output_adapter@_W@__crt_stdio_output@@@2@@__crt_stdio_output@@AEAA_NXZ 000000018004b91c f i libucrt:output.obj
 0001:0004a91c       ?type_case_n@?$output_processor@_WV?$string_output_adapter@_W@__crt_stdio_output@@V?$standard_base@_WV?$string_output_adapter@_W@__crt_stdio_output@@@2@@__crt_stdio_output@@AEAA_NXZ 000000018004b91c f i libucrt:output.obj
 0001:0004a9f8       ?type_case_s@?$output_processor@_WV?$string_output_adapter@_W@__crt_stdio_output@@V?$standard_base@_WV?$string_output_adapter@_W@__crt_stdio_output@@@2@@__crt_stdio_output@@AEAA_NXZ 000000018004b9f8 f i libucrt:output.obj
 0001:0004a9f8       ?type_case_s@?$output_processor@_WV?$stream_output_adapter@_W@__crt_stdio_output@@V?$standard_base@_WV?$stream_output_adapter@_W@__crt_stdio_output@@@2@@__crt_stdio_output@@AEAA_NXZ 000000018004b9f8 f i libucrt:output.obj
 0001:0004aac0       ?write_stored_string_tchar@?$output_processor@_WV?$stream_output_adapter@_W@__crt_stdio_output@@V?$standard_base@_WV?$stream_output_adapter@_W@__crt_stdio_output@@@2@@__crt_stdio_output@@AEAA_N_W@Z 000000018004bac0 f i libucrt:output.obj
 0001:0004abac       ?write_stored_string_tchar@?$output_processor@_WV?$string_output_adapter@_W@__crt_stdio_output@@V?$standard_base@_WV?$string_output_adapter@_W@__crt_stdio_output@@@2@@__crt_stdio_output@@AEAA_N_W@Z 000000018004bbac f i libucrt:output.obj
 0001:0004ac9c       ?write_string@?$stream_output_adapter@_W@__crt_stdio_output@@QEBAXQEB_WHQEAH1@Z 000000018004bc9c f i libucrt:output.obj
 0001:0004ada8       ?write_string@?$string_output_adapter@_W@__crt_stdio_output@@QEBAXQEB_WHQEAH1@Z 000000018004bda8 f i libucrt:output.obj
 0001:0004ae68       __stdio_common_vfwprintf   000000018004be68 f   libucrt:output.obj
 0001:0004aef4       __stdio_common_vswprintf   000000018004bef4 f   libucrt:output.obj
 0001:0004b12c       ??$is_overflow_condition@K@__crt_strtox@@YA_NIK@Z 000000018004c12c f i libucrt:atox.obj
 0001:0004b158       ??$parse_integer@KV?$c_string_character_source@_W@__crt_strtox@@@__crt_strtox@@YAKQEAU__crt_locale_pointers@@V?$c_string_character_source@_W@0@H_N@Z 000000018004c158 f i libucrt:atox.obj
 0001:0004b82c       __acrt_call_reportfault    000000018004c82c f   libucrt:invalid_parameter.obj
 0001:0004b988       __acrt_initialize_invalid_parameter_handler 000000018004c988 f   libucrt:invalid_parameter.obj
 0001:0004b990       _invalid_parameter         000000018004c990 f   libucrt:invalid_parameter.obj
 0001:0004ba38       _invalid_parameter_noinfo  000000018004ca38 f   libucrt:invalid_parameter.obj
 0001:0004ba58       _invoke_watson             000000018004ca58 f   libucrt:invalid_parameter.obj
 0001:0004baa0       _query_app_type            000000018004caa0 f   libucrt:report_runtime_error.obj
 0001:0004baa8       __acrt_errno_from_os_error 000000018004caa8 f   libucrt:errno.obj
 0001:0004baf0       __acrt_errno_map_os_error  000000018004caf0 f   libucrt:errno.obj
 0001:0004bb40       __doserrno                 000000018004cb40 f   libucrt:errno.obj
 0001:0004bb60       _errno                     000000018004cb60 f   libucrt:errno.obj
 0001:0004bca8       _itow_s                    000000018004cca8 f   libucrt:xtoa.obj
 0001:0004bcc8       _set_error_mode            000000018004ccc8 f   libucrt:set_error_mode.obj
 0001:0004bd08       wcscat_s                   000000018004cd08 f   libucrt:wcscat_s.obj
 0001:0004bd88       wcscpy_s                   000000018004cd88 f   libucrt:wcscpy_s.obj
 0001:0004bdf0       wcsncat_s                  000000018004cdf0 f   libucrt:wcsncat_s.obj
 0001:0004bf18       __acrt_show_wide_message_box 000000018004cf18 f   libucrt:crtmbox.obj
 0001:0004c034       __acrt_initialize_stdio    000000018004d034 f   libucrt:_file.obj
 0001:0004c154       __acrt_iob_func            000000018004d154 f   libucrt:_file.obj
 0001:0004c168       __acrt_uninitialize_stdio  000000018004d168 f   libucrt:_file.obj
 0001:0004c1c4       _lock_file                 000000018004d1c4 f   libucrt:_file.obj
 0001:0004c1d0       _unlock_file               000000018004d1d0 f   libucrt:_file.obj
 0001:0004c1dc       __acrt_stdio_flush_nolock  000000018004d1dc f   libucrt:fflush.obj
 0001:0004c254       _fflush_nolock             000000018004d254 f   libucrt:fflush.obj
 0001:0004c2a0       _flushall                  000000018004d2a0 f   libucrt:fflush.obj
 0001:0004c390       fflush                     000000018004d390 f   libucrt:fflush.obj
 0001:0004c3d4       ??$?RV<lambda_7a5ef57ff966f610505f1d28a3d40618>@@AEAV<lambda_b721fa326cdb32351d23dfa67958c160>@@V<lambda_5e0fb27672408a07956fe59e48ccb2aa>@@@?$__crt_seh_guarded_call@H@@QEAAH$$QEAV<lambda_7a5ef57ff966f610505f1d28a3d40618>@@AEAV<lambda_b721fa326cdb32351d23dfa67958c160>@@$$QEAV<lambda_5e0fb27672408a07956fe59e48ccb2aa>@@@Z 000000018004d3d4 f i libucrt:setvbuf.obj
 0001:0004c504       setvbuf                    000000018004d504 f   libucrt:setvbuf.obj
 0001:0004c5a4       ??$?RV<lambda_c36588078e9f5dfd39652860aa6b3aaf>@@AEAV<lambda_ec61778202f4f5fc7e7711acc23c3bca>@@V<lambda_dc9d2797ccde5d239b4a0efae8ebd7db>@@@?$__crt_seh_guarded_call@P6AXH@Z@@QEAAP6AXH@Z$$QEAV<lambda_c36588078e9f5dfd39652860aa6b3aaf>@@AEAV<lambda_ec61778202f4f5fc7e7711acc23c3bca>@@$$QEAV<lambda_dc9d2797ccde5d239b4a0efae8ebd7db>@@@Z 000000018004d5a4 f i libucrt:signal.obj
 0001:0004c5ec       __acrt_get_sigabrt_handler 000000018004d5ec f   libucrt:signal.obj
 0001:0004c61c       __acrt_initialize_signal_handlers 000000018004d61c f   libucrt:signal.obj
 0001:0004c63c       raise                      000000018004d63c f   libucrt:signal.obj
 0001:0004c928       _tolower_l                 000000018004d928 f   libucrt:tolower_toupper.obj
 0001:0004ca68       tolower                    000000018004da68 f   libucrt:tolower_toupper.obj
 0001:0004ca94       ??$?RV<lambda_46352004c1216016012b18bd6f87e700>@@AEAV<lambda_3bd07e1a1191394380780325891bf33f>@@V<lambda_334532d3f185bcaa59b5be82d7d22bff>@@@?$__crt_seh_guarded_call@X@@QEAAX$$QEAV<lambda_46352004c1216016012b18bd6f87e700>@@AEAV<lambda_3bd07e1a1191394380780325891bf33f>@@$$QEAV<lambda_334532d3f185bcaa59b5be82d7d22bff>@@@Z 000000018004da94 f i libucrt:per_thread_data.obj
 0001:0004caf4       ??$?RV<lambda_5e887d1dcbef67a5eb4283622ba103bf>@@AEAV<lambda_4466841279450cc726390878d4a41900>@@V<lambda_341c25c0346d94847f1f3c463c57e077>@@@?$__crt_seh_guarded_call@X@@QEAAX$$QEAV<lambda_5e887d1dcbef67a5eb4283622ba103bf>@@AEAV<lambda_4466841279450cc726390878d4a41900>@@$$QEAV<lambda_341c25c0346d94847f1f3c463c57e077>@@@Z 000000018004daf4 f i libucrt:per_thread_data.obj
 0001:0004cb3c       ??$?RV<lambda_72d1df2b273a38828b1ce30cbf4cdab5>@@AEAV<lambda_876a65b173b8412d3a47c70a915b0cf4>@@V<lambda_41932305e351933ebe8f8be3ed8bb5dc>@@@?$__crt_seh_guarded_call@X@@QEAAX$$QEAV<lambda_72d1df2b273a38828b1ce30cbf4cdab5>@@AEAV<lambda_876a65b173b8412d3a47c70a915b0cf4>@@$$QEAV<lambda_41932305e351933ebe8f8be3ed8bb5dc>@@@Z 000000018004db3c f i libucrt:per_thread_data.obj
 0001:0004cb7c       ??$?RV<lambda_fb3a7dec4e47f37f22dae91bb15c9095>@@AEAV<lambda_698284760c8add0bfb0756c19673e34b>@@V<lambda_dfb8eca1e75fef3034a8fb18dd509707>@@@?$__crt_seh_guarded_call@X@@QEAAX$$QEAV<lambda_fb3a7dec4e47f37f22dae91bb15c9095>@@AEAV<lambda_698284760c8add0bfb0756c19673e34b>@@$$QEAV<lambda_dfb8eca1e75fef3034a8fb18dd509707>@@@Z 000000018004db7c f i libucrt:per_thread_data.obj
 0001:0004ce0c       __acrt_freeptd             000000018004de0c f   libucrt:per_thread_data.obj
 0001:0004ce50       __acrt_getptd              000000018004de50 f   libucrt:per_thread_data.obj
 0001:0004cee4       __acrt_getptd_noexit       000000018004dee4 f   libucrt:per_thread_data.obj
 0001:0004cf84       __acrt_initialize_ptd      000000018004df84 f   libucrt:per_thread_data.obj
 0001:0004cfc0       __acrt_uninitialize_ptd    000000018004dfc0 f   libucrt:per_thread_data.obj
 0001:0004cfe4       __acrt_update_locale_info  000000018004dfe4 f   libucrt:locale_update.obj
 0001:0004d018       __acrt_update_multibyte_info 000000018004e018 f   libucrt:locale_update.obj
 0001:0004d04c       __acrt_set_locale_changed  000000018004e04c f   libucrt:wsetlocale.obj
 0001:0004d058       __acrt_uninitialize_locale 000000018004e058 f   libucrt:wsetlocale.obj
 0001:0004d0a0       __acrt_initialize_locks    000000018004e0a0 f   libucrt:locks.obj
 0001:0004d0e8       __acrt_lock                000000018004e0e8 f   libucrt:locks.obj
 0001:0004d104       __acrt_uninitialize_locks  000000018004e104 f   libucrt:locks.obj
 0001:0004d13c       __acrt_unlock              000000018004e13c f   libucrt:locks.obj
 0001:0004d2f8       __acrt_FlsAlloc            000000018004e2f8 f   libucrt:winapi_thunks.obj
 0001:0004d350       __acrt_FlsFree             000000018004e350 f   libucrt:winapi_thunks.obj
 0001:0004d3a8       __acrt_FlsGetValue         000000018004e3a8 f   libucrt:winapi_thunks.obj
 0001:0004d400       __acrt_FlsSetValue         000000018004e400 f   libucrt:winapi_thunks.obj
 0001:0004d468       __acrt_InitializeCriticalSectionEx 000000018004e468 f   libucrt:winapi_thunks.obj
 0001:0004d4e0       __acrt_LCMapStringEx       000000018004e4e0 f   libucrt:winapi_thunks.obj
 0001:0004d5d0       __acrt_LocaleNameToLCID    000000018004e5d0 f   libucrt:winapi_thunks.obj
 0001:0004d638       __acrt_MessageBoxW         000000018004e638 f   libucrt:winapi_thunks.obj
 0001:0004d6c0       __acrt_can_show_message_box 000000018004e6c0 f   libucrt:winapi_thunks.obj
 0001:0004d71c       __acrt_get_parent_window   000000018004e71c f   libucrt:winapi_thunks.obj
 0001:0004d7ac       __acrt_initialize_winapi_thunks 000000018004e7ac f   libucrt:winapi_thunks.obj
 0001:0004d7e4       __acrt_is_interactive      000000018004e7e4 f   libucrt:winapi_thunks.obj
 0001:0004d8b8       __acrt_is_packaged_app     000000018004e8b8 f   libucrt:winapi_thunks.obj
 0001:0004d940       __acrt_uninitialize_winapi_thunks 000000018004e940 f   libucrt:winapi_thunks.obj
 0001:0004d984       ??$?RV<lambda_99476a1ad63dd22509b5d3e65b0ffc95>@@AEAV<lambda_ad1ced32f4ac17aa236e5ef05d6b3b7c>@@V<lambda_f7424dd8d45958661754dc4f2697e9c3>@@@?$__crt_seh_guarded_call@X@@QEAAX$$QEAV<lambda_99476a1ad63dd22509b5d3e65b0ffc95>@@AEAV<lambda_ad1ced32f4ac17aa236e5ef05d6b3b7c>@@$$QEAV<lambda_f7424dd8d45958661754dc4f2697e9c3>@@@Z 000000018004e984 f i libucrt:mbctype.obj
 0001:0004e080       __acrt_initialize_multibyte 000000018004f080 f   libucrt:mbctype.obj
 0001:0004e0a8       __acrt_update_thread_multibyte_data 000000018004f0a8 f   libucrt:mbctype.obj
 0001:0004e168       _setmbcp_nolock            000000018004f168 f   libucrt:mbctype.obj
 0001:0004e410       __dcrt_get_narrow_environment_from_os 000000018004f410 f   libucrt:get_environment_from_os.obj
 0001:0004e514       _recalloc                  000000018004f514 f   libucrt:recalloc.obj
 0001:0004e51c       _recalloc_base             000000018004f51c f   libucrt:recalloc.obj
 0001:0004e5b4       __acrt_initialize_heap     000000018004f5b4 f   libucrt:heap_handle.obj
 0001:0004e5d0       __acrt_uninitialize_heap   000000018004f5d0 f   libucrt:heap_handle.obj
 0001:0004e7c4       __acrt_initialize_lowio    000000018004f7c4 f   libucrt:ioinit.obj
 0001:0004e800       __acrt_uninitialize_lowio  000000018004f800 f   libucrt:ioinit.obj
 0001:0004e840       __acrt_initialize_command_line 000000018004f840 f   libucrt:argv_data.obj
 0001:0004e868       __acrt_execute_initializers 000000018004f868 f   libucrt:shared_initialization.obj
 0001:0004e8fc       __acrt_execute_uninitializers 000000018004f8fc f   libucrt:shared_initialization.obj
 0001:0004e94c       __acrt_has_user_matherr    000000018004f94c f   libucrt:matherr.obj
 0001:0004e96c       __acrt_initialize_user_matherr 000000018004f96c f   libucrt:matherr.obj
 0001:0004e974       __acrt_invoke_user_matherr 000000018004f974 f   libucrt:matherr.obj
 0001:0004e9bc       __acrt_stdio_begin_temporary_buffering_nolock 000000018004f9bc f   libucrt:_sftbuf.obj
 0001:0004ea8c       __acrt_stdio_end_temporary_buffering_nolock 000000018004fa8c f   libucrt:_sftbuf.obj
 0001:0004eac8       _query_new_mode            000000018004fac8 f   libucrt:new_mode.obj
 0001:0004ead0       isdigit                    000000018004fad0 f i libucrt:_ctype.obj
 0001:0004eb44       ??$make_c_string_character_source@_WPEAPEA_W@__crt_strtox@@YA?AV?$c_string_character_source@_W@0@QEB_WQEAPEA_W@Z 000000018004fb44 f i libucrt:strtox.obj
 0001:0004eb58       wcstol                     000000018004fb58 f   libucrt:strtox.obj
 0001:0004eb88       _mbtowc_l                  000000018004fb88 f   libucrt:mbtowc.obj
 0001:0004ecd0       mbtowc                     000000018004fcd0 f   libucrt:mbtowc.obj
 0001:0004ecd8       _wctomb_s_l                000000018004fcd8 f   libucrt:wctomb.obj
 0001:0004ee5c       wctomb_s                   000000018004fe5c f   libucrt:wctomb.obj
 0001:0004ee70       wcsnlen                    000000018004fe70 f   libucrt:strnlen.obj
 0001:0004f060       ?__acrt_fp_classify@@YA?AW4__acrt_fp_class@@AEBN@Z 0000000180050060 f i libucrt:cvt.obj
 0001:0004fa98       __acrt_fp_format           0000000180050a98 f   libucrt:cvt.obj
 0001:0004fcdc       _fputwc_nolock             0000000180050cdc f   libucrt:fputwc.obj
 0001:0004fe58       _fileno                    0000000180050e58 f   libucrt:fileno.obj
 0001:0004fe80       _fputc_nolock              0000000180050e80 f   libucrt:fputc.obj
 0001:0004fe98       _get_printf_count_output   0000000180050e98 f   libucrt:printf_count_output.obj
 0001:0004feb0       __pctype_func              0000000180050eb0 f   libucrt:ctype.obj
 0001:0004fee0       iswctype                   0000000180050ee0 f   libucrt:iswctype.obj
 0001:0004ff50       _isctype_l                 0000000180050f50 f   libucrt:isctype.obj
 0001:00050060       _fcloseall                 0000000180051060 f   libucrt:closeall.obj
 0001:00050114       __acrt_stdio_free_buffer_nolock 0000000180051114 f   libucrt:_freebuf.obj
 0001:00050154       ??$?RV<lambda_b521505b218e5242e90febf6bfebc422>@@AEAV<lambda_6978c1fb23f02e42e1d9e99668cc68aa>@@V<lambda_314360699dd331753a4119843814e9a7>@@@?$__crt_seh_guarded_call@H@@QEAAH$$QEAV<lambda_b521505b218e5242e90febf6bfebc422>@@AEAV<lambda_6978c1fb23f02e42e1d9e99668cc68aa>@@$$QEAV<lambda_314360699dd331753a4119843814e9a7>@@@Z 0000000180051154 f i libucrt:commit.obj
 0001:000501e0       _commit                    00000001800511e0 f   libucrt:commit.obj
 0001:00050814       _write                     0000000180051814 f   libucrt:write.obj
 0001:00050900       _write_nolock              0000000180051900 f   libucrt:write.obj
 0001:00050be4       _isleadbyte_l              0000000180051be4 f i libucrt:_wctype.obj
 0001:00050f80       __acrt_LCMapStringA        0000000180051f80 f   libucrt:lcmapstringa.obj
 0001:00051018       __acrt_add_locale_ref      0000000180052018 f   libucrt:locale_refcounting.obj
 0001:000510a4       __acrt_free_locale         00000001800520a4 f   libucrt:locale_refcounting.obj
 0001:0005121c       __acrt_locale_add_lc_time_reference 000000018005221c f   libucrt:locale_refcounting.obj
 0001:00051244       __acrt_locale_free_lc_time_if_unreferenced 0000000180052244 f   libucrt:locale_refcounting.obj
 0001:0005127c       __acrt_locale_release_lc_time_reference 000000018005227c f   libucrt:locale_refcounting.obj
 0001:000512a4       __acrt_release_locale_ref  00000001800522a4 f   libucrt:locale_refcounting.obj
 0001:0005134c       __acrt_update_thread_locale_data 000000018005234c f   libucrt:locale_refcounting.obj
 0001:000513bc       _updatetlocinfoEx_nolock   00000001800523bc f   libucrt:locale_refcounting.obj
 0001:00051424       __acrt_locale_free_monetary 0000000180052424 f   libucrt:initmon.obj
 0001:00051530       __acrt_locale_free_numeric 0000000180052530 f   libucrt:initnum.obj
 0001:000515f4       __acrt_locale_free_time    00000001800525f4 f   libucrt:inittime.obj
 0001:000516fc       __acrt_GetStringTypeA      00000001800526fc f   libucrt:getstringtypea.obj
 0001:00051978       __acrt_DownlevelLocaleNameToLCID 0000000180052978 f   libucrt:lcidtoname_downlevel.obj
 0001:000519c4       _msize                     00000001800529c4 f   libucrt:msize.obj
 0001:00051a00       _realloc_base              0000000180052a00 f   libucrt:realloc_base.obj
 0001:00051a84       __acrt_lowio_create_handle_array 0000000180052a84 f   libucrt:osfinfo.obj
 0001:00051b1c       __acrt_lowio_destroy_handle_array 0000000180052b1c f   libucrt:osfinfo.obj
 0001:00051b6c       __acrt_lowio_ensure_fh_exists 0000000180052b6c f   libucrt:osfinfo.obj
 0001:00051c24       __acrt_lowio_lock_fh       0000000180052c24 f   libucrt:osfinfo.obj
 0001:00051c48       __acrt_lowio_unlock_fh     0000000180052c48 f   libucrt:osfinfo.obj
 0001:00051c6c       _free_osfhnd               0000000180052c6c f   libucrt:osfinfo.obj
 0001:00051d28       _get_osfhandle             0000000180052d28 f   libucrt:osfinfo.obj
 0001:00051da0       _isatty                    0000000180052da0 f   libucrt:isatty.obj
 0001:00051e00       __acrt_fp_strflt_to_string 0000000180052e00 f   libucrt:_fptostr.obj
 0001:00051ec0       ?divide@__crt_strtox@@YA_KAEAUbig_integer@1@AEBU21@@Z 0000000180052ec0 f i libucrt:cfout.obj
 0001:00052390       __acrt_fltout              0000000180053390 f   libucrt:cfout.obj
 0001:00053994       __acrt_stdio_flush_and_write_narrow_nolock 0000000180054994 f   libucrt:_flsbuf.obj
 0001:00053a7c       __acrt_stdio_flush_and_write_wide_nolock 0000000180054a7c f   libucrt:_flsbuf.obj
 0001:00053b68       _fclose_nolock             0000000180054b68 f   libucrt:fclose.obj
 0001:00053bec       fclose                     0000000180054bec f   libucrt:fclose.obj
 0001:00053de4       _lseeki64                  0000000180054de4 f   libucrt:lseek.obj
 0001:00053dec       _lseeki64_nolock           0000000180054dec f   libucrt:lseek.obj
 0001:00053df4       _putwch_nolock             0000000180054df4 f   libucrt:putwch.obj
 0001:00053e50       __strncnt                  0000000180054e50 f   libucrt:strncnt.obj
 0001:00053e68       fegetenv                   0000000180054e68 f   libucrt:fegetenv.obj
 0001:00053e88       fesetenv                   0000000180054e88 f   libucrt:fesetenv.obj
 0001:00053ed4       feholdexcept               0000000180054ed4 f   libucrt:feholdexcept.obj
 0001:00053f24       ceil                       0000000180054f24 f   libucrt:ceil.obj
 0001:00053ff0       log10                      0000000180054ff0 f   libucrt:log10.obj
 0001:0005459c       __acrt_stdio_allocate_buffer_nolock 000000018005559c f   libucrt:_getbuf.obj
 0001:00054600       ??$?RV<lambda_bfedae4ebbf01fab1bb6dcc6a9e276e0>@@AEAV<lambda_2fe9b910cf3cbf4a0ab98a02ba45b3ec>@@V<lambda_237c231691f317818eb88cc1d5d642d6>@@@?$__crt_seh_guarded_call@H@@QEAAH$$QEAV<lambda_bfedae4ebbf01fab1bb6dcc6a9e276e0>@@AEAV<lambda_2fe9b910cf3cbf4a0ab98a02ba45b3ec>@@$$QEAV<lambda_237c231691f317818eb88cc1d5d642d6>@@@Z 0000000180055600 f i libucrt:close.obj
 0001:00054674       _close                     0000000180055674 f   libucrt:close.obj
 0001:00054718       _close_nolock              0000000180055718 f   libucrt:close.obj
 0001:000547d4       ?__acrt_stdio_free_stream@@YAXV__crt_stdio_stream@@@Z 00000001800557d4 f   libucrt:stream.obj
 0001:00054818       __dcrt_lowio_initialize_console_output 0000000180055818 f   libucrt:initcon.obj
 0001:00054854       __dcrt_terminate_console_output 0000000180055854 f   libucrt:initcon.obj
 0001:00054874       _getfpcontrolword          0000000180055874 f   libucrt:_fenvutils.obj
 0001:0005488c       _getfpstatusword           000000018005588c f   libucrt:_fenvutils.obj
 0001:000548a0       _setfpcontrolword          00000001800558a0 f   libucrt:_fenvutils.obj
 0001:000548ac       _setfpstatusword           00000001800558ac f   libucrt:_fenvutils.obj
 0001:000548fc       _clearfp                   00000001800558fc f   libucrt:ieee.obj
 0001:00054950       _controlfp                 0000000180055950 f   libucrt:ieee.obj
 0001:0005495c       _statusfp                  000000018005595c f   libucrt:ieee.obj
 0001:00054d60       _handle_error              0000000180055d60 f   libucrt:libm_error.obj
 0001:00054e88       _handle_nan                0000000180055e88 f   libucrt:libm_error.obj
 0001:00054eb0       __acrt_initialize_fma3     0000000180055eb0 f   libucrt:fma3_available.obj
 0001:00054f20       _log10_special             0000000180055f20 f   libucrt:log_special.obj
 0001:00054f40       _log_special               0000000180055f40 f   libucrt:log_special.obj
 0001:00055010       _get_fpsr                  0000000180056010 f   libucrt:fpsr.obj
 0001:00055020       _set_fpsr                  0000000180056020 f   libucrt:fpsr.obj
 0001:0005502a       _fclrf                     000000018005602a f   libucrt:fpsr.obj
 0001:0005503e       _frnd                      000000018005603e f   libucrt:fpsr.obj
 0001:00055060       _raise_exc                 0000000180056060 f   libucrt:fpexcept.obj
 0001:00055088       _raise_exc_ex              0000000180056088 f   libucrt:fpexcept.obj
 0001:00055390       _set_errno_from_matherr    0000000180056390 f   libucrt:fpexcept.obj
 0001:000553c0       _clrfp                     00000001800563c0 f   libucrt:fpctrl.obj
 0001:000553e0       _ctrlfp                    00000001800563e0 f   libucrt:fpctrl.obj
 0001:0005545c       _set_statfp                000000018005645c f   libucrt:fpctrl.obj
 0001:0005547c       _statfp                    000000018005647c f   libucrt:fpctrl.obj
 0001:0005548e       IsProcessorFeaturePresent  000000018005648e f   kernel32:KERNEL32.dll
 0001:00055494       RtlUnwindEx                0000000180056494 f   kernel32:KERNEL32.dll
 0001:0005549a       SystemFunction036          000000018005649a f   advapi32:ADVAPI32.dll
 0001:000554a0       ?DloadAcquireSectionWriteAccess@@YAXXZ 00000001800564a0 f i DelayImp:delayhlp.obj
 0001:0005555c       ?DloadGetSRWLockFunctionPointers@@YAEXZ 000000018005655c f i DelayImp:delayhlp.obj
 0001:000555f8       ?DloadMakePermanentImageCommit@@YAXPEAX_K@Z 00000001800565f8 f i DelayImp:delayhlp.obj
 0001:00055690       ?DloadObtainSection@@YAPEAXPEAK0@Z 0000000180056690 f i DelayImp:delayhlp.obj
 0001:00055728       ?DloadProtectSection@@YAXKPEAK@Z 0000000180056728 f i DelayImp:delayhlp.obj
 0001:000557b8       ?DloadReleaseSectionWriteAccess@@YAXXZ 00000001800567b8 f i DelayImp:delayhlp.obj
 0001:0005585c       __delayLoadHelper2         000000018005685c f   DelayImp:delayhlp.obj
 0001:00055b64       __GSHandlerCheck           0000000180056b64 f   LIBCMT:_gshandler_.obj
 0001:00055b84       __GSHandlerCheckCommon     0000000180056b84 f   LIBCMT:_gshandler_.obj
 0001:00055be0       _FindPESection             0000000180056be0 f   LIBCMT:pesect.obj
 0001:00055c30       _IsNonwritableInCurrentImage 0000000180056c30 f   LIBCMT:pesect.obj
 0001:00055c80       _ValidateImageBase         0000000180056c80 f   LIBCMT:pesect.obj
 0001:00055cc0       _alloca_probe              0000000180056cc0 f   LIBCMT:_chkstk_.obj
 0001:00055cc0       __chkstk                   0000000180056cc0 f   LIBCMT:_chkstk_.obj
 0001:00055d30       memcmp                     0000000180056d30 f   libvcruntime:memcmp.obj
 0001:00055df8       strrchr                    0000000180056df8 f   libvcruntime:strrchr.obj
 0001:00055f3c       atan2                      0000000180056f3c f   libucrt:atan2.obj
 0001:00056690       cos                        0000000180057690 f   libucrt:cos.obj
 0001:00056c10       exp                        0000000180057c10 f   libucrt:exp.obj
 0001:00057008       floor                      0000000180058008 f   libucrt:floor.obj
 0001:000570c0       log                        00000001800580c0 f   libucrt:log.obj
 0001:000575f0       pow                        00000001800585f0 f   libucrt:pow.obj
 0001:00058c84       sqrt                       0000000180059c84 f   libucrt:sqrt.obj
 0001:00058d60       __remainder_piby2_forAsm   0000000180059d60 f   libucrt:remainder_piby2_forasm.obj
 0001:00058f70       __remainder_piby2_cw_forAsm 0000000180059f70 f   libucrt:remainder_piby2_forasm.obj
 0001:000590b0       __remainder_piby2_fma3     000000018005a0b0 f   libucrt:remainder_piby2_forfma3.obj
 0001:000592a0       __remainder_piby2_fma3_bdl 000000018005a2a0 f   libucrt:remainder_piby2_forfma3.obj
 0001:00059318       _cos_special               000000018005a318 f   libucrt:sincos_special.obj
 0001:000593d0       _exp_special               000000018005a3d0 f   libucrt:exp_special.obj
 0001:00059470       _pow_special               000000018005a470 f   libucrt:pow_special.obj
 0001:000595b0       _guard_dispatch_icall_nop  000000018005a5b0 f   LIBCMT:_guard_dispatch_.obj
 0002:00000000       __imp_SystemFunction036    000000018005b000     advapi32:ADVAPI32.dll
 0002:00000008       \177ADVAPI32_NULL_THUNK_DATA 000000018005b008     advapi32:ADVAPI32.dll
 0002:00000010       __imp_RtlCaptureContext    000000018005b010     kernel32:KERNEL32.dll
 0002:00000018       __imp_RtlLookupFunctionEntry 000000018005b018     kernel32:KERNEL32.dll
 0002:00000020       __imp_RtlVirtualUnwind     000000018005b020     kernel32:KERNEL32.dll
 0002:00000028       __imp_UnhandledExceptionFilter 000000018005b028     kernel32:KERNEL32.dll
 0002:00000030       __imp_SetUnhandledExceptionFilter 000000018005b030     kernel32:KERNEL32.dll
 0002:00000038       __imp_GetCurrentProcess    000000018005b038     kernel32:KERNEL32.dll
 0002:00000040       __imp_TerminateProcess     000000018005b040     kernel32:KERNEL32.dll
 0002:00000048       __imp_IsProcessorFeaturePresent 000000018005b048     kernel32:KERNEL32.dll
 0002:00000050       __imp_QueryPerformanceCounter 000000018005b050     kernel32:KERNEL32.dll
 0002:00000058       __imp_GetCurrentProcessId  000000018005b058     kernel32:KERNEL32.dll
 0002:00000060       __imp_GetCurrentThreadId   000000018005b060     kernel32:KERNEL32.dll
 0002:00000068       __imp_GetSystemTimeAsFileTime 000000018005b068     kernel32:KERNEL32.dll
 0002:00000070       __imp_InitializeSListHead  000000018005b070     kernel32:KERNEL32.dll
 0002:00000078       __imp_IsDebuggerPresent    000000018005b078     kernel32:KERNEL32.dll
 0002:00000080       __imp_GetStartupInfoW      000000018005b080     kernel32:KERNEL32.dll
 0002:00000088       __imp_GetModuleHandleW     000000018005b088     kernel32:KERNEL32.dll
 0002:00000090       __imp_GetLastError         000000018005b090     kernel32:KERNEL32.dll
 0002:00000098       __imp_GetModuleFileNameW   000000018005b098     kernel32:KERNEL32.dll
 0002:000000a0       __imp_RtlUnwindEx          000000018005b0a0     kernel32:KERNEL32.dll
 0002:000000a8       __imp_RtlPcToFileHeader    000000018005b0a8     kernel32:KERNEL32.dll
 0002:000000b0       __imp_RaiseException       000000018005b0b0     kernel32:KERNEL32.dll
 0002:000000b8       __imp_InterlockedFlushSList 000000018005b0b8     kernel32:KERNEL32.dll
 0002:000000c0       __imp_InitializeCriticalSectionAndSpinCount 000000018005b0c0     kernel32:KERNEL32.dll
 0002:000000c8       __imp_TlsAlloc             000000018005b0c8     kernel32:KERNEL32.dll
 0002:000000d0       __imp_TlsGetValue          000000018005b0d0     kernel32:KERNEL32.dll
 0002:000000d8       __imp_TlsSetValue          000000018005b0d8     kernel32:KERNEL32.dll
 0002:000000e0       __imp_TlsFree              000000018005b0e0     kernel32:KERNEL32.dll
 0002:000000e8       __imp_FreeLibrary          000000018005b0e8     kernel32:KERNEL32.dll
 0002:000000f0       __imp_GetProcAddress       000000018005b0f0     kernel32:KERNEL32.dll
 0002:000000f8       __imp_LoadLibraryExW       000000018005b0f8     kernel32:KERNEL32.dll
 0002:00000100       __imp_SetLastError         000000018005b100     kernel32:KERNEL32.dll
 0002:00000108       __imp_EnterCriticalSection 000000018005b108     kernel32:KERNEL32.dll
 0002:00000110       __imp_LeaveCriticalSection 000000018005b110     kernel32:KERNEL32.dll
 0002:00000118       __imp_DeleteCriticalSection 000000018005b118     kernel32:KERNEL32.dll
 0002:00000120       __imp_GetStdHandle         000000018005b120     kernel32:KERNEL32.dll
 0002:00000128       __imp_GetFileType          000000018005b128     kernel32:KERNEL32.dll
 0002:00000130       __imp_GetModuleHandleExW   000000018005b130     kernel32:KERNEL32.dll
 0002:00000138       __imp_WriteConsoleW        000000018005b138     kernel32:KERNEL32.dll
 0002:00000140       __imp_MultiByteToWideChar  000000018005b140     kernel32:KERNEL32.dll
 0002:00000148       __imp_WideCharToMultiByte  000000018005b148     kernel32:KERNEL32.dll
 0002:00000150       __imp_HeapFree             000000018005b150     kernel32:KERNEL32.dll
 0002:00000158       __imp_HeapAlloc            000000018005b158     kernel32:KERNEL32.dll
 0002:00000160       __imp_WriteFile            000000018005b160     kernel32:KERNEL32.dll
 0002:00000168       __imp_OutputDebugStringW   000000018005b168     kernel32:KERNEL32.dll
 0002:00000170       __imp_CloseHandle          000000018005b170     kernel32:KERNEL32.dll
 0002:00000178       __imp_WaitForSingleObjectEx 000000018005b178     kernel32:KERNEL32.dll
 0002:00000180       __imp_CreateThread         000000018005b180     kernel32:KERNEL32.dll
 0002:00000188       __imp_GetACP               000000018005b188     kernel32:KERNEL32.dll
 0002:00000190       __imp_LCMapStringW         000000018005b190     kernel32:KERNEL32.dll
 0002:00000198       __imp_IsValidCodePage      000000018005b198     kernel32:KERNEL32.dll
 0002:000001a0       __imp_GetOEMCP             000000018005b1a0     kernel32:KERNEL32.dll
 0002:000001a8       __imp_GetCPInfo            000000018005b1a8     kernel32:KERNEL32.dll
 0002:000001b0       __imp_GetEnvironmentStringsW 000000018005b1b0     kernel32:KERNEL32.dll
 0002:000001b8       __imp_FreeEnvironmentStringsW 000000018005b1b8     kernel32:KERNEL32.dll
 0002:000001c0       __imp_GetProcessHeap       000000018005b1c0     kernel32:KERNEL32.dll
 0002:000001c8       __imp_GetCommandLineA      000000018005b1c8     kernel32:KERNEL32.dll
 0002:000001d0       __imp_GetCommandLineW      000000018005b1d0     kernel32:KERNEL32.dll
 0002:000001d8       __imp_GetStringTypeW       000000018005b1d8     kernel32:KERNEL32.dll
 0002:000001e0       __imp_FlushFileBuffers     000000018005b1e0     kernel32:KERNEL32.dll
 0002:000001e8       __imp_GetConsoleCP         000000018005b1e8     kernel32:KERNEL32.dll
 0002:000001f0       __imp_GetConsoleMode       000000018005b1f0     kernel32:KERNEL32.dll
 0002:000001f8       __imp_HeapSize             000000018005b1f8     kernel32:KERNEL32.dll
 0002:00000200       __imp_HeapReAlloc          000000018005b200     kernel32:KERNEL32.dll
 0002:00000208       __imp_SetStdHandle         000000018005b208     kernel32:KERNEL32.dll
 0002:00000210       __imp_SetFilePointerEx     000000018005b210     kernel32:KERNEL32.dll
 0002:00000218       __imp_CreateFileW          000000018005b218     kernel32:KERNEL32.dll
 0002:00000220       __imp_ExitProcess          000000018005b220     kernel32:KERNEL32.dll
 0002:00000228       __imp_GetModuleHandleA     000000018005b228     kernel32:KERNEL32.dll
 0002:00000230       __imp_GetSystemInfo        000000018005b230     kernel32:KERNEL32.dll
 0002:00000238       __imp_VirtualProtect       000000018005b238     kernel32:KERNEL32.dll
 0002:00000240       __imp_VirtualQuery         000000018005b240     kernel32:KERNEL32.dll
 0002:00000248       __imp_LoadLibraryExA       000000018005b248     kernel32:KERNEL32.dll
 0002:00000250       \177KERNEL32_NULL_THUNK_DATA 000000018005b250     kernel32:KERNEL32.dll
 0002:00000258       __guard_check_icall_fptr   000000018005b258     LIBCMT:guard_support.obj
 0002:00000260       __guard_dispatch_icall_fptr 000000018005b260     LIBCMT:guard_support.obj
 0002:00000268       __xc_a                     000000018005b268     LIBCMT:initializers.obj
 0002:00000270       _register_node_opus_       000000018005b270     node-opus.obj
 0002:00000278       __xc_z                     000000018005b278     LIBCMT:initializers.obj
 0002:00000280       __xi_a                     000000018005b280     LIBCMT:initializers.obj
 0002:00000288       __acrt_stdio_initializer   000000018005b288     libucrt:stdio_initializer.obj
 0002:00000290       __acrt_multibyte_initializer 000000018005b290     libucrt:multibyte_initializer.obj
 0002:00000298       __acrt_tran_fma3_initializer 000000018005b298     libucrt:fma3_initializer.obj
 0002:000002a0       __xi_z                     000000018005b2a0     LIBCMT:initializers.obj
 0002:000002a8       __xp_a                     000000018005b2a8     LIBCMT:initializers.obj
 0002:000002b0       __acrt_locale_terminator   000000018005b2b0     libucrt:locale_initializer.obj
 0002:000002b8       __dcrt_console_output_terminator 000000018005b2b8     libucrt:console_output_initializer.obj
 0002:000002c0       __acrt_stdio_terminator    000000018005b2c0     libucrt:stdio_initializer.obj
 0002:000002c8       __xp_z                     000000018005b2c8     LIBCMT:initializers.obj
 0002:000002d0       __xt_a                     000000018005b2d0     LIBCMT:initializers.obj
 0002:000002d8       __xt_z                     000000018005b2d8     LIBCMT:initializers.obj
 0002:000002e0       __sz_node_exe              000000018005b2e0     node:node.exe
 0002:000002f0       _pDefaultRawDllMain        000000018005b2f0     LIBCMT:dll_dllmain.obj
 0002:000002f0       _pRawDllMain               000000018005b2f0     LIBCMT:dll_dllmain.obj
 0002:00000310       ??_7exception@std@@6B@     000000018005b310     LIBCMT:throw_bad_alloc.obj
 0002:00000320       ??_C@_0BC@EOODALEL@Unknown?5exception?$AA@ 000000018005b320     LIBCMT:throw_bad_alloc.obj
 0002:00000340       ??_7bad_alloc@std@@6B@     000000018005b340     LIBCMT:throw_bad_alloc.obj
 0002:00000350       ??_C@_0P@GHFPNOJB@bad?5allocation?$AA@ 000000018005b350     LIBCMT:throw_bad_alloc.obj
 0002:00000368       ??_7bad_array_new_length@std@@6B@ 000000018005b368     LIBCMT:throw_bad_alloc.obj
 0002:00000378       ??_C@_0BF@KINCDENJ@bad?5array?5new?5length?$AA@ 000000018005b378     LIBCMT:throw_bad_alloc.obj
 0002:00000398       ??_7type_info@@6B@         000000018005b398     LIBCMT:std_type_info_static.obj
 0002:000003a0       _Microsoft_CRTProvider     000000018005b3a0     libvcruntime:telemetry.obj
 0002:000003a8       ??_C@_00CNPNBAHC@?$AA@     000000018005b3a8     libvcruntime:telemetry.obj
 0002:000003ac       ??_C@_11LOCGONAA@?$AA?$AA@ 000000018005b3ac     libvcruntime:telemetry.obj
 0002:000003b0       ??_C@_0O@JEOPJOMI@Main?5Invoked?4?$AA@ 000000018005b3b0     libvcruntime:telemetry.obj
 0002:000003c0       ??_C@_0P@NEAEIBDO@Main?5Returned?4?$AA@ 000000018005b3c0     libvcruntime:telemetry.obj
 0002:00000430       ??_C@_1BC@DNHGCMLG@?$AAa?$AAd?$AAv?$AAa?$AAp?$AAi?$AA3?$AA2?$AA?$AA@ 000000018005b430     libvcruntime:winapi_downlevel.obj
 0002:00000448       ??_C@_1DM@KHCHBNEB@?$AAa?$AAp?$AAi?$AA?9?$AAm?$AAs?$AA?9?$AAw?$AAi?$AAn?$AA?9?$AAc?$AAo?$AAr?$AAe?$AA?9?$AAf?$AAi?$AAb?$AAe?$AAr?$AAs?$AA?9?$AAl?$AA1?$AA?9?$AA1?$AA?9?$AA1?$AA?$AA@ 000000018005b448     libvcruntime:winapi_downlevel.obj
 0002:00000488       ??_C@_1DK@LPPGFMPP@?$AAa?$AAp?$AAi?$AA?9?$AAm?$AAs?$AA?9?$AAw?$AAi?$AAn?$AA?9?$AAc?$AAo?$AAr?$AAe?$AA?9?$AAs?$AAy?$AAn?$AAc?$AAh?$AA?9?$AAl?$AA1?$AA?9?$AA2?$AA?9?$AA0?$AA?$AA@ 000000018005b488     libvcruntime:winapi_downlevel.obj
 0002:000004c8       ??_C@_1BC@GDMECMAK@?$AAk?$AAe?$AAr?$AAn?$AAe?$AAl?$AA3?$AA2?$AA?$AA@ 000000018005b4c8     libvcruntime:winapi_downlevel.obj
 0002:000004e0       ??_C@_0O@BAMBGLIE@EventRegister?$AA@ 000000018005b4e0     libvcruntime:winapi_downlevel.obj
 0002:000004f8       ??_C@_0BE@BJEEGHGK@EventSetInformation?$AA@ 000000018005b4f8     libvcruntime:winapi_downlevel.obj
 0002:00000510       ??_C@_0BA@FAKLIPIC@EventUnregister?$AA@ 000000018005b510     libvcruntime:winapi_downlevel.obj
 0002:00000528       ??_C@_0BD@PKLHJPHD@EventWriteTransfer?$AA@ 000000018005b528     libvcruntime:winapi_downlevel.obj
 0002:00000548       ??_C@_08KNHFBNJ@FlsAlloc?$AA@ 000000018005b548     libvcruntime:winapi_downlevel.obj
 0002:00000560       ??_C@_07PEJMOBNF@FlsFree?$AA@ 000000018005b560     libvcruntime:winapi_downlevel.obj
 0002:00000570       ??_C@_0M@GDNOONDI@FlsGetValue?$AA@ 000000018005b570     libvcruntime:winapi_downlevel.obj
 0002:00000588       ??_C@_0M@JCPCPOEF@FlsSetValue?$AA@ 000000018005b588     libvcruntime:winapi_downlevel.obj
 0002:000005a0       ??_C@_0BM@HCFOFFN@InitializeCriticalSectionEx?$AA@ 000000018005b5a0     libvcruntime:winapi_downlevel.obj
 0002:000005bc       ??_C@_01JOAMLHOP@?9?$AA@   000000018005b5bc     libvcruntime:undname.obj
 0002:000005c0       ??_C@_01MIFGBAGJ@?$CL?$AA@ 000000018005b5c0     libvcruntime:undname.obj
 0002:000005c4       ??_C@_01HNPIGOCE@?$CG?$AA@ 000000018005b5c4     libvcruntime:undname.obj
 0002:000005c8       ??_C@_03MNHNFDLC@?9?$DO?$CK?$AA@ 000000018005b5c8     libvcruntime:undname.obj
 0002:000005cc       ??_C@_01KMDKNFGN@?1?$AA@   000000018005b5cc     libvcruntime:undname.obj
 0002:000005d0       ??_C@_01FGNFDNOH@?$CF?$AA@ 000000018005b5d0     libvcruntime:undname.obj
 0002:000005d4       ??_C@_01MNNFJEPP@?$DM?$AA@ 000000018005b5d4     libvcruntime:undname.obj
 0002:000005d8       ??_C@_02EHCHHCKH@?$DM?$DN?$AA@ 000000018005b5d8     libvcruntime:undname.obj
 0002:000005dc       ??_C@_01PPODPGHN@?$DO?$AA@ 000000018005b5dc     libvcruntime:undname.obj
 0002:000005e0       ??_C@_02EEKDKGMJ@?$DO?$DN?$AA@ 000000018005b5e0     libvcruntime:undname.obj
 0002:000005e4       ??_C@_01IHBHIGKO@?0?$AA@   000000018005b5e4     libvcruntime:undname.obj
 0002:000005e8       ??_C@_02HCKGKOFO@?$CI?$CJ?$AA@ 000000018005b5e8     libvcruntime:undname.obj
 0002:000005ec       ??_C@_01PJKLJHI@?$HO?$AA@  000000018005b5ec     libvcruntime:undname.obj
 0002:000005f0       ??_C@_01JKBOJNNK@?$FO?$AA@ 000000018005b5f0     libvcruntime:undname.obj
 0002:000005f4       ??_C@_01DNKMNLPK@?$HM?$AA@ 000000018005b5f4     libvcruntime:undname.obj
 0002:000005f8       ??_C@_02PPKAJPJL@?$CG?$CG?$AA@ 000000018005b5f8     libvcruntime:undname.obj
 0002:000005fc       ??_C@_02NONPIBCD@?$HM?$HM?$AA@ 000000018005b5fc     libvcruntime:undname.obj
 0002:00000600       ??_C@_02FPIMKNGF@?$CK?$DN?$AA@ 000000018005b600     libvcruntime:undname.obj
 0002:00000604       ??_C@_02FOEOMHFC@?$CL?$DN?$AA@ 000000018005b604     libvcruntime:undname.obj
 0002:00000608       ??_C@_02FKMDLLOA@?9?$DN?$AA@ 000000018005b608     libvcruntime:undname.obj
 0002:0000060c       ??_C@_02FJEHGPIO@?1?$DN?$AA@ 000000018005b60c     libvcruntime:undname.obj
 0002:00000610       ??_C@_02FENAOKFI@?$CF?$DN?$AA@ 000000018005b610     libvcruntime:undname.obj
 0002:00000614       ??_C@_03IKFCCPFF@?$DO?$DO?$DN?$AA@ 000000018005b614     libvcruntime:undname.obj
 0002:00000618       ??_C@_03CDNPDDLA@?$DM?$DM?$DN?$AA@ 000000018005b618     libvcruntime:undname.obj
 0002:0000061c       ??_C@_02FGJGFEAB@?$CG?$DN?$AA@ 000000018005b61c     libvcruntime:undname.obj
 0002:00000620       ??_C@_02DHLNPPGH@?$HM?$DN?$AA@ 000000018005b620     libvcruntime:undname.obj
 0002:00000624       ??_C@_02MHEGNOJ@?$FO?$DN?$AA@ 000000018005b624     libvcruntime:undname.obj
 0002:00000628       ??_C@_09IFPLHPGF@?$GAvftable?8?$AA@ 000000018005b628     libvcruntime:undname.obj
 0002:00000638       ??_C@_09BLBHBJP@?$GAvbtable?8?$AA@ 000000018005b638     libvcruntime:undname.obj
 0002:00000648       ??_C@_07FEEIOKP@?$GAvcall?8?$AA@ 000000018005b648     libvcruntime:undname.obj
 0002:00000650       ??_C@_08LLFFHHDJ@?$GAtypeof?8?$AA@ 000000018005b650     libvcruntime:undname.obj
 0002:00000660       ??_C@_0BF@KDPPACIK@?$GAlocal?5static?5guard?8?$AA@ 000000018005b660     libvcruntime:undname.obj
 0002:00000678       ??_C@_08OBABFOLI@?$GAstring?8?$AA@ 000000018005b678     libvcruntime:undname.obj
 0002:00000688       ??_C@_0BD@JDLKDPAB@?$GAvbase?5destructor?8?$AA@ 000000018005b688     libvcruntime:undname.obj
 0002:000006a0       ??_C@_0BN@DEGPLNFK@?$GAvector?5deleting?5destructor?8?$AA@ 000000018005b6a0     libvcruntime:undname.obj
 0002:000006c0       ??_C@_0BO@OBMKPJIG@?$GAdefault?5constructor?5closure?8?$AA@ 000000018005b6c0     libvcruntime:undname.obj
 0002:000006e0       ??_C@_0BN@IMDCHIKM@?$GAscalar?5deleting?5destructor?8?$AA@ 000000018005b6e0     libvcruntime:undname.obj
 0002:00000700       ??_C@_0BO@PFGOCPJJ@?$GAvector?5constructor?5iterator?8?$AA@ 000000018005b700     libvcruntime:undname.obj
 0002:00000720       ??_C@_0BN@LFPFMEDL@?$GAvector?5destructor?5iterator?8?$AA@ 000000018005b720     libvcruntime:undname.obj
 0002:00000740       ??_C@_0CE@IKBNEHA@?$GAvector?5vbase?5constructor?5iterat@ 000000018005b740     libvcruntime:undname.obj
 0002:00000768       ??_C@_0BL@NILFHHPC@?$GAvirtual?5displacement?5map?8?$AA@ 000000018005b768     libvcruntime:undname.obj
 0002:00000788       ??_C@_0CB@JONCMFFK@?$GAeh?5vector?5constructor?5iterator?8@ 000000018005b788     libvcruntime:undname.obj
 0002:000007b0       ??_C@_0CA@GCEOPDGL@?$GAeh?5vector?5destructor?5iterator?8?$AA@ 000000018005b7b0     libvcruntime:undname.obj
 0002:000007d0       ??_C@_0CH@OOJPLCPH@?$GAeh?5vector?5vbase?5constructor?5ite@ 000000018005b7d0     libvcruntime:undname.obj
 0002:000007f8       ??_C@_0BL@LLKPOHJI@?$GAcopy?5constructor?5closure?8?$AA@ 000000018005b7f8     libvcruntime:undname.obj
 0002:00000818       ??_C@_0BA@KBCDOMBN@?$GAudt?5returning?8?$AA@ 000000018005b818     libvcruntime:undname.obj
 0002:00000828       ??_C@_03KLGMFNMG@?$GAEH?$AA@ 000000018005b828     libvcruntime:undname.obj
 0002:0000082c       ??_C@_05KHLCHHI@?$GARTTI?$AA@ 000000018005b82c     libvcruntime:undname.obj
 0002:00000838       ??_C@_0BA@KKLDJDLB@?$GAlocal?5vftable?8?$AA@ 000000018005b838     libvcruntime:undname.obj
 0002:00000848       ??_C@_0CE@IIHCMGGL@?$GAlocal?5vftable?5constructor?5closu@ 000000018005b848     libvcruntime:undname.obj
 0002:0000086c       ??_C@_06FHBGPFGH@?5new?$FL?$FN?$AA@ 000000018005b86c     libvcruntime:undname.obj
 0002:00000878       ??_C@_09LBNFPBCA@?5delete?$FL?$FN?$AA@ 000000018005b878     libvcruntime:undname.obj
 0002:00000888       ??_C@_0P@HJKNJFNN@?$GAomni?5callsig?8?$AA@ 000000018005b888     libvcruntime:undname.obj
 0002:00000898       ??_C@_0BL@CNOONJFP@?$GAplacement?5delete?5closure?8?$AA@ 000000018005b898     libvcruntime:undname.obj
 0002:000008b8       ??_C@_0BN@CKNJLHMB@?$GAplacement?5delete?$FL?$FN?5closure?8?$AA@ 000000018005b8b8     libvcruntime:undname.obj
 0002:000008d8       ??_C@_0CG@CFDHKGGD@?$GAmanaged?5vector?5constructor?5iter@ 000000018005b8d8     libvcruntime:undname.obj
 0002:00000900       ??_C@_0CF@IMGKMJNO@?$GAmanaged?5vector?5destructor?5itera@ 000000018005b900     libvcruntime:undname.obj
 0002:00000928       ??_C@_0CG@HLDDJMAG@?$GAeh?5vector?5copy?5constructor?5iter@ 000000018005b928     libvcruntime:undname.obj
 0002:00000950       ??_C@_0CM@FCBBDIGB@?$GAeh?5vector?5vbase?5copy?5constructo@ 000000018005b950     libvcruntime:undname.obj
 0002:00000980       ??_C@_0BL@CLIPGLGB@?$GAdynamic?5initializer?5for?5?8?$AA@ 000000018005b980     libvcruntime:undname.obj
 0002:000009a0       ??_C@_0CB@PDBIFEP@?$GAdynamic?5atexit?5destructor?5for?5?8@ 000000018005b9a0     libvcruntime:undname.obj
 0002:000009c8       ??_C@_0CD@CGAJBKEJ@?$GAvector?5copy?5constructor?5iterato@ 000000018005b9c8     libvcruntime:undname.obj
 0002:000009f0       ??_C@_0CJ@GJELGAMM@?$GAvector?5vbase?5copy?5constructor?5i@ 000000018005b9f0     libvcruntime:undname.obj
 0002:00000a20       ??_C@_0CL@FGIJHLCE@?$GAmanaged?5vector?5copy?5constructor@ 000000018005ba20     libvcruntime:undname.obj
 0002:00000a50       ??_C@_0BM@PMGGMLDN@?$GAlocal?5static?5thread?5guard?8?$AA@ 000000018005ba50     libvcruntime:undname.obj
 0002:00000a70       ??_C@_0N@BDNMDMOL@operator?5?$CC?$CC?5?$AA@ 000000018005ba70     libvcruntime:undname.obj
 0002:00000da8       ??_C@_0BC@DAFEJGAK@?5Type?5Descriptor?8?$AA@ 000000018005bda8     libvcruntime:undname.obj
 0002:00000dc0       ??_C@_0BM@LDKODKLH@?5Base?5Class?5Descriptor?5at?5?$CI?$AA@ 000000018005bdc0     libvcruntime:undname.obj
 0002:00000de0       ??_C@_0BD@LGICGFMM@?5Base?5Class?5Array?8?$AA@ 000000018005bde0     libvcruntime:undname.obj
 0002:00000df8       ??_C@_0BN@MECKDCOJ@?5Class?5Hierarchy?5Descriptor?8?$AA@ 000000018005bdf8     libvcruntime:undname.obj
 0002:00000e18       ??_C@_0BK@CFCOFLF@?5Complete?5Object?5Locator?8?$AA@ 000000018005be18     libvcruntime:undname.obj
 0002:00000e38       ??_C@_08EHJDFFNH@__based?$CI?$AA@ 000000018005be38     libvcruntime:undname.obj
 0002:00000e48       ??_C@_07KOLFKCDI@__cdecl?$AA@ 000000018005be48     libvcruntime:undname.obj
 0002:00000e50       ??_C@_08GHMPAG@__pascal?$AA@ 000000018005be50     libvcruntime:undname.obj
 0002:00000e60       ??_C@_09IFJBGAPI@__stdcall?$AA@ 000000018005be60     libvcruntime:undname.obj
 0002:00000e70       ??_C@_0L@NPHFGOKO@__thiscall?$AA@ 000000018005be70     libvcruntime:undname.obj
 0002:00000e80       ??_C@_0L@JMKHOMEK@__fastcall?$AA@ 000000018005be80     libvcruntime:undname.obj
 0002:00000e90       ??_C@_0N@BCKKPABJ@__vectorcall?$AA@ 000000018005be90     libvcruntime:undname.obj
 0002:00000ea0       ??_C@_09HIJEGCPM@__clrcall?$AA@ 000000018005bea0     libvcruntime:undname.obj
 0002:00000eac       ??_C@_06GHPCKEAG@__eabi?$AA@ 000000018005beac     libvcruntime:undname.obj
 0002:00000eb8       ??_C@_07JOMMBBKO@__ptr64?$AA@ 000000018005beb8     libvcruntime:undname.obj
 0002:00000ec0       ??_C@_0L@PILCLIHE@__restrict?$AA@ 000000018005bec0     libvcruntime:undname.obj
 0002:00000ed0       ??_C@_0M@GFIIJFMG@__unaligned?$AA@ 000000018005bed0     libvcruntime:undname.obj
 0002:00000ee0       ??_C@_09DHDLOLLB@restrict?$CI?$AA@ 000000018005bee0     libvcruntime:undname.obj
 0002:00000eec       ??_C@_04NIHEBCM@?5new?$AA@ 000000018005beec     libvcruntime:undname.obj
 0002:00000ef8       ??_C@_07FPCDHGMM@?5delete?$AA@ 000000018005bef8     libvcruntime:undname.obj
 0002:00000f00       ??_C@_01NEMOKFLO@?$DN?$AA@ 000000018005bf00     libvcruntime:undname.obj
 0002:00000f04       ??_C@_02GPIOPFAK@?$DO?$DO?$AA@ 000000018005bf04     libvcruntime:undname.obj
 0002:00000f08       ??_C@_02FODMEDOG@?$DM?$DM?$AA@ 000000018005bf08     libvcruntime:undname.obj
 0002:00000f0c       ??_C@_01DCLJPIOD@?$CB?$AA@ 000000018005bf0c     libvcruntime:undname.obj
 0002:00000f10       ??_C@_02EGOFBIJA@?$DN?$DN?$AA@ 000000018005bf10     libvcruntime:undname.obj
 0002:00000f14       ??_C@_02FDNJECIE@?$CB?$DN?$AA@ 000000018005bf14     libvcruntime:undname.obj
 0002:00000f18       ??_C@_02GPECMEKF@?$FL?$FN?$AA@ 000000018005bf18     libvcruntime:undname.obj
 0002:00000f20       ??_C@_08LHJFAFGD@operator?$AA@ 000000018005bf20     libvcruntime:undname.obj
 0002:00000f2c       ??_C@_02HBOOOICD@?9?$DO?$AA@ 000000018005bf2c     libvcruntime:undname.obj
 0002:00000f30       ??_C@_01NBENCBCI@?$CK?$AA@ 000000018005bf30     libvcruntime:undname.obj
 0002:00000f34       ??_C@_02ECNGHCIF@?$CL?$CL?$AA@ 000000018005bf34     libvcruntime:undname.obj
 0002:00000f38       ??_C@_02BAABKJLB@?9?9?$AA@ 000000018005bf38     libvcruntime:undname.obj
 0002:00000f40       ??_C@_1EK@MBDPDCGA@?$AAM?$AAi?$AAc?$AAr?$AAo?$AAs?$AAo?$AAf?$AAt?$AA?5?$AAV?$AAi?$AAs?$AAu?$AAa?$AAl?$AA?5?$AAC?$AA?$CL?$AA?$CL?$AA?5?$AAR?$AAu?$AAn?$AAt?$AAi?$AAm?$AAe?$AA?5?$AAL?$AAi?$AAb@ 000000018005bf40     libucrt:assert.obj
 0002:00000f90       ??_C@_1FE@LHBLIKM@?$AAA?$AAs?$AAs?$AAe?$AAr?$AAt?$AAi?$AAo?$AAn?$AA?5?$AAf?$AAa?$AAi?$AAl?$AAe?$AAd?$AA?3?$AA?5?$AA?$CF?$AAT?$AAs?$AA?0?$AA?5?$AAf?$AAi?$AAl?$AAe?$AA?5?$AA?$CF?$AAT?$AAs?$AA?0@ 000000018005bf90     libucrt:assert.obj
 0002:00000fe8       ??_C@_1CE@OJBNHDMO@?$AAA?$AAs?$AAs?$AAe?$AAr?$AAt?$AAi?$AAo?$AAn?$AA?5?$AAf?$AAa?$AAi?$AAl?$AAe?$AAd?$AA?$CB?$AA?$AA@ 000000018005bfe8     libucrt:assert.obj
 0002:00001010       ??_C@_1BE@PHKBBGE@?$AAP?$AAr?$AAo?$AAg?$AAr?$AAa?$AAm?$AA?3?$AA?5?$AA?$AA@ 000000018005c010     libucrt:assert.obj
 0002:00001028       ??_C@_1O@HEMHKNDC@?$AAF?$AAi?$AAl?$AAe?$AA?3?$AA?5?$AA?$AA@ 000000018005c028     libucrt:assert.obj
 0002:00001038       ??_C@_1O@KCAFKHJE@?$AAL?$AAi?$AAn?$AAe?$AA?3?$AA?5?$AA?$AA@ 000000018005c038     libucrt:assert.obj
 0002:00001048       ??_C@_1BK@PEDCIPMA@?$AAE?$AAx?$AAp?$AAr?$AAe?$AAs?$AAs?$AAi?$AAo?$AAn?$AA?3?$AA?5?$AA?$AA@ 000000018005c048     libucrt:assert.obj
 0002:00001070       ??_C@_1OA@EGMLFBHJ@?$AAF?$AAo?$AAr?$AA?5?$AAi?$AAn?$AAf?$AAo?$AAr?$AAm?$AAa?$AAt?$AAi?$AAo?$AAn?$AA?5?$AAo?$AAn?$AA?5?$AAh?$AAo?$AAw?$AA?5?$AAy?$AAo?$AAu?$AAr?$AA?5?$AAp?$AAr?$AAo?$AAg@ 000000018005c070     libucrt:assert.obj
 0002:00001150       ??_C@_1HK@POCJMFGK@?$AA?$CI?$AAP?$AAr?$AAe?$AAs?$AAs?$AA?5?$AAR?$AAe?$AAt?$AAr?$AAy?$AA?5?$AAt?$AAo?$AA?5?$AAd?$AAe?$AAb?$AAu?$AAg?$AA?5?$AAt?$AAh?$AAe?$AA?5?$AAa?$AAp?$AAp?$AAl?$AAi?$AAc@ 000000018005c150     libucrt:assert.obj
 0002:000011d0       ??_C@_17LGKOMLJ@?$AA?4?$AA?4?$AA?4?$AA?$AA@ 000000018005c1d0     libucrt:assert.obj
 0002:000011d8       ??_C@_13LBAGMAIH@?$AA?6?$AA?$AA@ 000000018005c1d8     libucrt:assert.obj
 0002:000011dc       ??_C@_15IABLJNFO@?$AA?6?$AA?6?$AA?$AA@ 000000018005c1dc     libucrt:assert.obj
 0002:000011e8       ??_C@_1CO@EAEJAADC@?$AA?$DM?$AAp?$AAr?$AAo?$AAg?$AAr?$AAa?$AAm?$AA?5?$AAn?$AAa?$AAm?$AAe?$AA?5?$AAu?$AAn?$AAk?$AAn?$AAo?$AAw?$AAn?$AA?$DO?$AA?$AA@ 000000018005c1e8     libucrt:assert.obj
 0002:00001220       __acrt_exception_action_table 000000018005c220     libucrt:exception_filter.obj
 0002:000012e0       __acrt_signal_action_table_count 000000018005c2e0     libucrt:exception_filter.obj
 0002:000012e8       __acrt_signal_action_first_fpe_index 000000018005c2e8     libucrt:exception_filter.obj
 0002:000012f0       __acrt_signal_action_fpe_count 000000018005c2f0     libucrt:exception_filter.obj
 0002:000012f8       ??_C@_1BI@BGOHAHKC@?$AAm?$AAs?$AAc?$AAo?$AAr?$AAe?$AAe?$AA?4?$AAd?$AAl?$AAl?$AA?$AA@ 000000018005c2f8     libucrt:exit.obj
 0002:00001310       ??_C@_0P@MIGLKIOC@CorExitProcess?$AA@ 000000018005c310     libucrt:exit.obj
 0002:00001410       standard_lookup_table      000000018005c410     libucrt:output.obj
 0002:0000146c       ??_C@_06OJHGLDPL@?$CInull?$CJ?$AA@ 000000018005c46c     libucrt:output.obj
 0002:00001478       ??_C@_1O@CEDCILHN@?$AA?$CI?$AAn?$AAu?$AAl?$AAl?$AA?$CJ?$AA?$AA@ 000000018005c478     libucrt:output.obj
 0002:00001600       __lc_time_c                000000018005c600     libucrt:nlsdata.obj
 0002:000018c0       ??_C@_03KOEHGMDN@Sun?$AA@  000000018005c8c0     libucrt:nlsdata.obj
 0002:000018c4       ??_C@_03PDAGKDH@Mon?$AA@   000000018005c8c4     libucrt:nlsdata.obj
 0002:000018c8       ??_C@_03NAGEINEP@Tue?$AA@  000000018005c8c8     libucrt:nlsdata.obj
 0002:000018cc       ??_C@_03MHOMLAJA@Wed?$AA@  000000018005c8cc     libucrt:nlsdata.obj
 0002:000018d0       ??_C@_03IOFIKPDN@Thu?$AA@  000000018005c8d0     libucrt:nlsdata.obj
 0002:000018d4       ??_C@_03IDIOELNC@Fri?$AA@  000000018005c8d4     libucrt:nlsdata.obj
 0002:000018d8       ??_C@_03FEFJNEK@Sat?$AA@   000000018005c8d8     libucrt:nlsdata.obj
 0002:000018dc       ??_C@_06OOPIFAJ@Sunday?$AA@ 000000018005c8dc     libucrt:nlsdata.obj
 0002:000018e4       ??_C@_06JLEDEDGH@Monday?$AA@ 000000018005c8e4     libucrt:nlsdata.obj
 0002:000018f0       ??_C@_07BAAGCFCM@Tuesday?$AA@ 000000018005c8f0     libucrt:nlsdata.obj
 0002:000018f8       ??_C@_09DLIGFAKA@Wednesday?$AA@ 000000018005c8f8     libucrt:nlsdata.obj
 0002:00001908       ??_C@_08HACCIKIA@Thursday?$AA@ 000000018005c908     libucrt:nlsdata.obj
 0002:00001914       ??_C@_06JECMNKMI@Friday?$AA@ 000000018005c914     libucrt:nlsdata.obj
 0002:00001920       ??_C@_08INBOOONO@Saturday?$AA@ 000000018005c920     libucrt:nlsdata.obj
 0002:0000192c       ??_C@_03JIHJHPIE@Jan?$AA@  000000018005c92c     libucrt:nlsdata.obj
 0002:00001930       ??_C@_03HJBDCHOM@Feb?$AA@  000000018005c930     libucrt:nlsdata.obj
 0002:00001934       ??_C@_03ODNJBKGA@Mar?$AA@  000000018005c934     libucrt:nlsdata.obj
 0002:00001938       ??_C@_03LEOLGMJP@Apr?$AA@  000000018005c938     libucrt:nlsdata.obj
 0002:0000193c       ??_C@_03CNMDKL@May?$AA@    000000018005c93c     libucrt:nlsdata.obj
 0002:00001940       ??_C@_03IDFGHECI@Jun?$AA@  000000018005c940     libucrt:nlsdata.obj
 0002:00001944       ??_C@_03LBGABGKK@Jul?$AA@  000000018005c944     libucrt:nlsdata.obj
 0002:00001948       ??_C@_03IFJFEIGA@Aug?$AA@  000000018005c948     libucrt:nlsdata.obj
 0002:0000194c       ??_C@_03GGCAPAJC@Sep?$AA@  000000018005c94c     libucrt:nlsdata.obj
 0002:00001950       ??_C@_03BMAOKBAD@Oct?$AA@  000000018005c950     libucrt:nlsdata.obj
 0002:00001954       ??_C@_03JPJOFNIA@Nov?$AA@  000000018005c954     libucrt:nlsdata.obj
 0002:00001958       ??_C@_03MKABNOCG@Dec?$AA@  000000018005c958     libucrt:nlsdata.obj
 0002:00001960       ??_C@_07CGJPFGJA@January?$AA@ 000000018005c960     libucrt:nlsdata.obj
 0002:00001968       ??_C@_08GNJGEPFN@February?$AA@ 000000018005c968     libucrt:nlsdata.obj
 0002:00001974       ??_C@_05HPCKOFNC@March?$AA@ 000000018005c974     libucrt:nlsdata.obj
 0002:0000197c       ??_C@_05DMJDNLEJ@April?$AA@ 000000018005c97c     libucrt:nlsdata.obj
 0002:00001984       ??_C@_04CNLMGBGM@June?$AA@ 000000018005c984     libucrt:nlsdata.obj
 0002:0000198c       ??_C@_04MIEPOIFP@July?$AA@ 000000018005c98c     libucrt:nlsdata.obj
 0002:00001994       ??_C@_06LBBHFDDG@August?$AA@ 000000018005c994     libucrt:nlsdata.obj
 0002:000019a0       ??_C@_09BHHEALKD@September?$AA@ 000000018005c9a0     libucrt:nlsdata.obj
 0002:000019b0       ??_C@_07JJNFCEND@October?$AA@ 000000018005c9b0     libucrt:nlsdata.obj
 0002:000019b8       ??_C@_08HCHEGEOA@November?$AA@ 000000018005c9b8     libucrt:nlsdata.obj
 0002:000019c8       ??_C@_08EDHMEBNP@December?$AA@ 000000018005c9c8     libucrt:nlsdata.obj
 0002:000019d4       ??_C@_02DEDBPAFC@AM?$AA@   000000018005c9d4     libucrt:nlsdata.obj
 0002:000019d8       ??_C@_02CJNFDJBF@PM?$AA@   000000018005c9d8     libucrt:nlsdata.obj
 0002:000019e0       ??_C@_08BPBNCDIB@MM?1dd?1yy?$AA@ 000000018005c9e0     libucrt:nlsdata.obj
 0002:000019f0       ??_C@_0BE@CKGJFCPC@dddd?0?5MMMM?5dd?0?5yyyy?$AA@ 000000018005c9f0     libucrt:nlsdata.obj
 0002:00001a08       ??_C@_08JCCMCCIL@HH?3mm?3ss?$AA@ 000000018005ca08     libucrt:nlsdata.obj
 0002:00001a18       ??_C@_17MBGCMIPB@?$AAS?$AAu?$AAn?$AA?$AA@ 000000018005ca18     libucrt:nlsdata.obj
 0002:00001a20       ??_C@_17KBOMKBF@?$AAM?$AAo?$AAn?$AA?$AA@ 000000018005ca20     libucrt:nlsdata.obj
 0002:00001a28       ??_C@_17BMKGEGOJ@?$AAT?$AAu?$AAe?$AA?$AA@ 000000018005ca28     libucrt:nlsdata.obj
 0002:00001a30       ??_C@_17CJEDCEPE@?$AAW?$AAe?$AAd?$AA?$AA@ 000000018005ca30     libucrt:nlsdata.obj
 0002:00001a38       ??_C@_17PDPHAADD@?$AAT?$AAh?$AAu?$AA?$AA@ 000000018005ca38     libucrt:nlsdata.obj
 0002:00001a40       ??_C@_17HFOLPPLP@?$AAF?$AAr?$AAi?$AA?$AA@ 000000018005ca40     libucrt:nlsdata.obj
 0002:00001a48       ??_C@_17GGIBDPIH@?$AAS?$AAa?$AAt?$AA?$AA@ 000000018005ca48     libucrt:nlsdata.obj
 0002:00001a50       ??_C@_1O@IHNHDHPB@?$AAS?$AAu?$AAn?$AAd?$AAa?$AAy?$AA?$AA@ 000000018005ca50     libucrt:nlsdata.obj
 0002:00001a60       ??_C@_1O@MMNBFLIA@?$AAM?$AAo?$AAn?$AAd?$AAa?$AAy?$AA?$AA@ 000000018005ca60     libucrt:nlsdata.obj
 0002:00001a70       ??_C@_1BA@ENFBFFEK@?$AAT?$AAu?$AAe?$AAs?$AAd?$AAa?$AAy?$AA?$AA@ 000000018005ca70     libucrt:nlsdata.obj
 0002:00001a80       ??_C@_1BE@EBOGMDOH@?$AAW?$AAe?$AAd?$AAn?$AAe?$AAs?$AAd?$AAa?$AAy?$AA?$AA@ 000000018005ca80     libucrt:nlsdata.obj
 0002:00001a98       ??_C@_1BC@HHMNLIHE@?$AAT?$AAh?$AAu?$AAr?$AAs?$AAd?$AAa?$AAy?$AA?$AA@ 000000018005ca98     libucrt:nlsdata.obj
 0002:00001ab0       ??_C@_1O@PDICJHAG@?$AAF?$AAr?$AAi?$AAd?$AAa?$AAy?$AA?$AA@ 000000018005cab0     libucrt:nlsdata.obj
 0002:00001ac0       ??_C@_1BC@ENMNNPAJ@?$AAS?$AAa?$AAt?$AAu?$AAr?$AAd?$AAa?$AAy?$AA?$AA@ 000000018005cac0     libucrt:nlsdata.obj
 0002:00001ad8       ??_C@_17DKNBKCHM@?$AAJ?$AAa?$AAn?$AA?$AA@ 000000018005cad8     libucrt:nlsdata.obj
 0002:00001ae0       ??_C@_17LMDJEKJN@?$AAF?$AAe?$AAb?$AA?$AA@ 000000018005cae0     libucrt:nlsdata.obj
 0002:00001ae8       ??_C@_17CKNLEDEC@?$AAM?$AAa?$AAr?$AA?$AA@ 000000018005cae8     libucrt:nlsdata.obj
 0002:00001af0       ??_C@_17LFPOIHDD@?$AAA?$AAp?$AAr?$AA?$AA@ 000000018005caf0     libucrt:nlsdata.obj
 0002:00001af8       ??_C@_17PNNKMEED@?$AAM?$AAa?$AAy?$AA?$AA@ 000000018005caf8     libucrt:nlsdata.obj
 0002:00001b00       ??_C@_17KCJGOCPB@?$AAJ?$AAu?$AAn?$AA?$AA@ 000000018005cb00     libucrt:nlsdata.obj
 0002:00001b08       ??_C@_17IJPCKHK@?$AAJ?$AAu?$AAl?$AA?$AA@ 000000018005cb08     libucrt:nlsdata.obj
 0002:00001b10       ??_C@_17ICPELBCN@?$AAA?$AAu?$AAg?$AA?$AA@ 000000018005cb10     libucrt:nlsdata.obj
 0002:00001b18       ??_C@_17HCHCOKMG@?$AAS?$AAe?$AAp?$AA?$AA@ 000000018005cb18     libucrt:nlsdata.obj
 0002:00001b20       ??_C@_17FNLKOI@?$AAO?$AAc?$AAt?$AA?$AA@ 000000018005cb20     libucrt:nlsdata.obj
 0002:00001b28       ??_C@_17BBDMLCIG@?$AAN?$AAo?$AAv?$AA?$AA@ 000000018005cb28     libucrt:nlsdata.obj
 0002:00001b30       ??_C@_17EGKACKIF@?$AAD?$AAe?$AAc?$AA?$AA@ 000000018005cb30     libucrt:nlsdata.obj
 0002:00001b38       ??_C@_1BA@EFMEIEBA@?$AAJ?$AAa?$AAn?$AAu?$AAa?$AAr?$AAy?$AA?$AA@ 000000018005cb38     libucrt:nlsdata.obj
 0002:00001b48       ??_C@_1BC@JGDDFFAM@?$AAF?$AAe?$AAb?$AAr?$AAu?$AAa?$AAr?$AAy?$AA?$AA@ 000000018005cb48     libucrt:nlsdata.obj
 0002:00001b60       ??_C@_1M@IKEENEDF@?$AAM?$AAa?$AAr?$AAc?$AAh?$AA?$AA@ 000000018005cb60     libucrt:nlsdata.obj
 0002:00001b70       ??_C@_1M@GJNLMHFD@?$AAA?$AAp?$AAr?$AAi?$AAl?$AA?$AA@ 000000018005cb70     libucrt:nlsdata.obj
 0002:00001b80       ??_C@_19EPFLPGAP@?$AAJ?$AAu?$AAn?$AAe?$AA?$AA@ 000000018005cb80     libucrt:nlsdata.obj
 0002:00001b90       ??_C@_19BIFMLPCD@?$AAJ?$AAu?$AAl?$AAy?$AA?$AA@ 000000018005cb90     libucrt:nlsdata.obj
 0002:00001ba0       ??_C@_1O@PAHLKOAC@?$AAA?$AAu?$AAg?$AAu?$AAs?$AAt?$AA?$AA@ 000000018005cba0     libucrt:nlsdata.obj
 0002:00001bb0       ??_C@_1BE@DKAAMBJL@?$AAS?$AAe?$AAp?$AAt?$AAe?$AAm?$AAb?$AAe?$AAr?$AA?$AA@ 000000018005cbb0     libucrt:nlsdata.obj
 0002:00001bc8       ??_C@_1BA@EPANDLNG@?$AAO?$AAc?$AAt?$AAo?$AAb?$AAe?$AAr?$AA?$AA@ 000000018005cbc8     libucrt:nlsdata.obj
 0002:00001bd8       ??_C@_1BC@BGLIFPF@?$AAN?$AAo?$AAv?$AAe?$AAm?$AAb?$AAe?$AAr?$AA?$AA@ 000000018005cbd8     libucrt:nlsdata.obj
 0002:00001bf0       ??_C@_1BC@FEMKIFH@?$AAD?$AAe?$AAc?$AAe?$AAm?$AAb?$AAe?$AAr?$AA?$AA@ 000000018005cbf0     libucrt:nlsdata.obj
 0002:00001c04       ??_C@_15ODEHAHHF@?$AAA?$AAM?$AA?$AA@ 000000018005cc04     libucrt:nlsdata.obj
 0002:00001c0c       ??_C@_15CLMNNGEL@?$AAP?$AAM?$AA?$AA@ 000000018005cc0c     libucrt:nlsdata.obj
 0002:00001c18       ??_C@_1BC@IEBCMHCM@?$AAM?$AAM?$AA?1?$AAd?$AAd?$AA?1?$AAy?$AAy?$AA?$AA@ 000000018005cc18     libucrt:nlsdata.obj
 0002:00001c30       ??_C@_1CI@KNAKOEBC@?$AAd?$AAd?$AAd?$AAd?$AA?0?$AA?5?$AAM?$AAM?$AAM?$AAM?$AA?5?$AAd?$AAd?$AA?0?$AA?5?$AAy?$AAy?$AAy?$AAy?$AA?$AA@ 000000018005cc30     libucrt:nlsdata.obj
 0002:00001c58       ??_C@_1BC@GDGBMEMK@?$AAH?$AAH?$AA?3?$AAm?$AAm?$AA?3?$AAs?$AAs?$AA?$AA@ 000000018005cc58     libucrt:nlsdata.obj
 0002:00001c70       ??_C@_1M@BMHNFIME@?$AAe?$AAn?$AA?9?$AAU?$AAS?$AA?$AA@ 000000018005cc70     libucrt:nlsdata.obj
 0002:00001d20       ??_C@_1EG@CNNIPFIM@?$AAa?$AAp?$AAi?$AA?9?$AAm?$AAs?$AA?9?$AAw?$AAi?$AAn?$AA?9?$AAa?$AAp?$AAp?$AAm?$AAo?$AAd?$AAe?$AAl?$AA?9?$AAr?$AAu?$AAn?$AAt?$AAi?$AAm?$AAe?$AA?9?$AAl?$AA1?$AA?9?$AA1@ 000000018005cd20     libucrt:winapi_thunks.obj
 0002:00001d70       ??_C@_1EA@JGEFHKEI@?$AAa?$AAp?$AAi?$AA?9?$AAm?$AAs?$AA?9?$AAw?$AAi?$AAn?$AA?9?$AAc?$AAo?$AAr?$AAe?$AA?9?$AAd?$AAa?$AAt?$AAe?$AAt?$AAi?$AAm?$AAe?$AA?9?$AAl?$AA1?$AA?9?$AA1?$AA?9?$AA1?$AA?$AA@ 000000018005cd70     libucrt:winapi_thunks.obj
 0002:00001db0       ??_C@_1DI@GCIAAENM@?$AAa?$AAp?$AAi?$AA?9?$AAm?$AAs?$AA?9?$AAw?$AAi?$AAn?$AA?9?$AAc?$AAo?$AAr?$AAe?$AA?9?$AAf?$AAi?$AAl?$AAe?$AA?9?$AAl?$AA2?$AA?9?$AA1?$AA?9?$AA1?$AA?$AA@ 000000018005cdb0     libucrt:winapi_thunks.obj
 0002:00001df0       ??_C@_1EI@MPIAOHOC@?$AAa?$AAp?$AAi?$AA?9?$AAm?$AAs?$AA?9?$AAw?$AAi?$AAn?$AA?9?$AAc?$AAo?$AAr?$AAe?$AA?9?$AAl?$AAo?$AAc?$AAa?$AAl?$AAi?$AAz?$AAa?$AAt?$AAi?$AAo?$AAn?$AA?9?$AAl?$AA1?$AA?9@ 000000018005cdf0     libucrt:winapi_thunks.obj
 0002:00001e40       ??_C@_1FK@FPHCKFIE@?$AAa?$AAp?$AAi?$AA?9?$AAm?$AAs?$AA?9?$AAw?$AAi?$AAn?$AA?9?$AAc?$AAo?$AAr?$AAe?$AA?9?$AAl?$AAo?$AAc?$AAa?$AAl?$AAi?$AAz?$AAa?$AAt?$AAi?$AAo?$AAn?$AA?9?$AAo?$AAb?$AAs@ 000000018005ce40     libucrt:winapi_thunks.obj
 0002:00001ea0       ??_C@_1EM@DILCGIIO@?$AAa?$AAp?$AAi?$AA?9?$AAm?$AAs?$AA?9?$AAw?$AAi?$AAn?$AA?9?$AAc?$AAo?$AAr?$AAe?$AA?9?$AAp?$AAr?$AAo?$AAc?$AAe?$AAs?$AAs?$AAt?$AAh?$AAr?$AAe?$AAa?$AAd?$AAs?$AA?9?$AAl@ 000000018005cea0     libucrt:winapi_thunks.obj
 0002:00001ef0       ??_C@_1DM@LNCGDDPN@?$AAa?$AAp?$AAi?$AA?9?$AAm?$AAs?$AA?9?$AAw?$AAi?$AAn?$AA?9?$AAc?$AAo?$AAr?$AAe?$AA?9?$AAs?$AAt?$AAr?$AAi?$AAn?$AAg?$AA?9?$AAl?$AA1?$AA?9?$AA1?$AA?9?$AA0?$AA?$AA@ 000000018005cef0     libucrt:winapi_thunks.obj
 0002:00001f30       ??_C@_1DO@FPAPJEMD@?$AAa?$AAp?$AAi?$AA?9?$AAm?$AAs?$AA?9?$AAw?$AAi?$AAn?$AA?9?$AAc?$AAo?$AAr?$AAe?$AA?9?$AAs?$AAy?$AAs?$AAi?$AAn?$AAf?$AAo?$AA?9?$AAl?$AA1?$AA?9?$AA2?$AA?9?$AA1?$AA?$AA@ 000000018005cf30     libucrt:winapi_thunks.obj
 0002:00001f70       ??_C@_1DK@NDHNAHIO@?$AAa?$AAp?$AAi?$AA?9?$AAm?$AAs?$AA?9?$AAw?$AAi?$AAn?$AA?9?$AAc?$AAo?$AAr?$AAe?$AA?9?$AAw?$AAi?$AAn?$AAr?$AAt?$AA?9?$AAl?$AA1?$AA?9?$AA1?$AA?9?$AA0?$AA?$AA@ 000000018005cf70     libucrt:winapi_thunks.obj
 0002:00001fb0       ??_C@_1DM@KGHDGBCM@?$AAa?$AAp?$AAi?$AA?9?$AAm?$AAs?$AA?9?$AAw?$AAi?$AAn?$AA?9?$AAc?$AAo?$AAr?$AAe?$AA?9?$AAx?$AAs?$AAt?$AAa?$AAt?$AAe?$AA?9?$AAl?$AA2?$AA?9?$AA1?$AA?9?$AA0?$AA?$AA@ 000000018005cfb0     libucrt:winapi_thunks.obj
 0002:00001ff0       ??_C@_1EO@IJIOEFOH@?$AAa?$AAp?$AAi?$AA?9?$AAm?$AAs?$AA?9?$AAw?$AAi?$AAn?$AA?9?$AAr?$AAt?$AAc?$AAo?$AAr?$AAe?$AA?9?$AAn?$AAt?$AAu?$AAs?$AAe?$AAr?$AA?9?$AAw?$AAi?$AAn?$AAd?$AAo?$AAw?$AA?9@ 000000018005cff0     libucrt:winapi_thunks.obj
 0002:00002040       ??_C@_1FG@HHGEKANL@?$AAa?$AAp?$AAi?$AA?9?$AAm?$AAs?$AA?9?$AAw?$AAi?$AAn?$AA?9?$AAs?$AAe?$AAc?$AAu?$AAr?$AAi?$AAt?$AAy?$AA?9?$AAs?$AAy?$AAs?$AAt?$AAe?$AAm?$AAf?$AAu?$AAn?$AAc?$AAt?$AAi@ 000000018005d040     libucrt:winapi_thunks.obj
 0002:000020a0       ??_C@_1FG@NCKKOLKO@?$AAe?$AAx?$AAt?$AA?9?$AAm?$AAs?$AA?9?$AAw?$AAi?$AAn?$AA?9?$AAk?$AAe?$AAr?$AAn?$AAe?$AAl?$AA3?$AA2?$AA?9?$AAp?$AAa?$AAc?$AAk?$AAa?$AAg?$AAe?$AA?9?$AAc?$AAu?$AAr?$AAr@ 000000018005d0a0     libucrt:winapi_thunks.obj
 0002:00002100       ??_C@_1EG@DBIOJECG@?$AAe?$AAx?$AAt?$AA?9?$AAm?$AAs?$AA?9?$AAw?$AAi?$AAn?$AA?9?$AAn?$AAt?$AAu?$AAs?$AAe?$AAr?$AA?9?$AAd?$AAi?$AAa?$AAl?$AAo?$AAg?$AAb?$AAo?$AAx?$AA?9?$AAl?$AA1?$AA?9?$AA1@ 000000018005d100     libucrt:winapi_thunks.obj
 0002:00002150       ??_C@_1EO@FIHMJCLF@?$AAe?$AAx?$AAt?$AA?9?$AAm?$AAs?$AA?9?$AAw?$AAi?$AAn?$AA?9?$AAn?$AAt?$AAu?$AAs?$AAe?$AAr?$AA?9?$AAw?$AAi?$AAn?$AAd?$AAo?$AAw?$AAs?$AAt?$AAa?$AAt?$AAi?$AAo?$AAn?$AA?9@ 000000018005d150     libucrt:winapi_thunks.obj
 0002:000021a0       ??_C@_1O@BCCLBEOE@?$AAu?$AAs?$AAe?$AAr?$AA3?$AA2?$AA?$AA@ 000000018005d1a0     libucrt:winapi_thunks.obj
 0002:000021d8       ??_C@_0BA@HNOPNCHB@GetActiveWindow?$AA@ 000000018005d1d8     libucrt:winapi_thunks.obj
 0002:000021f0       ??_C@_0BE@JOGNEJCI@GetCurrentPackageId?$AA@ 000000018005d1f0     libucrt:winapi_thunks.obj
 0002:00002210       ??_C@_0BD@HHGDFDBJ@GetLastActivePopup?$AA@ 000000018005d210     libucrt:winapi_thunks.obj
 0002:00002230       ??_C@_0BI@DFKBFLJE@GetProcessWindowStation?$AA@ 000000018005d230     libucrt:winapi_thunks.obj
 0002:00002250       ??_C@_0BK@DEKFELLI@GetUserObjectInformationW?$AA@ 000000018005d250     libucrt:winapi_thunks.obj
 0002:00002280       ??_C@_0O@KKBNKAPF@LCMapStringEx?$AA@ 000000018005d280     libucrt:winapi_thunks.obj
 0002:00002298       ??_C@_0BB@HBDEELFH@LocaleNameToLCID?$AA@ 000000018005d298     libucrt:winapi_thunks.obj
 0002:000022b8       ??_C@_0M@CHKKJDAI@MessageBoxA?$AA@ 000000018005d2b8     libucrt:winapi_thunks.obj
 0002:000022d0       ??_C@_0M@DLDCCGNP@MessageBoxW?$AA@ 000000018005d2d0     libucrt:winapi_thunks.obj
 0002:00002300       ??_C@_1M@HPNHIDJI@?$AAj?$AAa?$AA?9?$AAJ?$AAP?$AA?$AA@ 000000018005d300     libucrt:mbctype.obj
 0002:00002310       ??_C@_1M@BIBDDEMK@?$AAz?$AAh?$AA?9?$AAC?$AAN?$AA?$AA@ 000000018005d310     libucrt:mbctype.obj
 0002:00002320       ??_C@_1M@JLOOOEGK@?$AAk?$AAo?$AA?9?$AAK?$AAR?$AA?$AA@ 000000018005d320     libucrt:mbctype.obj
 0002:00002330       ??_C@_1M@CLNBBOPM@?$AAz?$AAh?$AA?9?$AAT?$AAW?$AA?$AA@ 000000018005d330     libucrt:mbctype.obj
 0002:0000233c       ??_C@_03OEIAHPBN@INF?$AA@  000000018005d33c     libucrt:cvt.obj
 0002:00002340       ??_C@_03OJHLLCGB@inf?$AA@  000000018005d340     libucrt:cvt.obj
 0002:00002344       ??_C@_03LKNCIKJB@NAN?$AA@  000000018005d344     libucrt:cvt.obj
 0002:00002348       ??_C@_03LHCJEHON@nan?$AA@  000000018005d348     libucrt:cvt.obj
 0002:00002350       ??_C@_09OFJJIMPC@NAN?$CISNAN?$CJ?$AA@ 000000018005d350     libucrt:cvt.obj
 0002:00002360       ??_C@_09IPFBKMDL@nan?$CIsnan?$CJ?$AA@ 000000018005d360     libucrt:cvt.obj
 0002:00002370       ??_C@_08IKHNHAJ@NAN?$CIIND?$CJ?$AA@ 000000018005d370     libucrt:cvt.obj
 0002:00002380       ??_C@_08OFCDMILK@nan?$CIind?$CJ?$AA@ 000000018005d380     libucrt:cvt.obj
 0002:0000238c       ??_C@_05KLBDPFGC@e?$CL000?$AA@ 000000018005d38c     libucrt:cvt.obj
 0002:000023a0       __newctype                 000000018005d3a0     libucrt:ctype.obj
 0002:000026a0       __newclmap                 000000018005d6a0     libucrt:ctype.obj
 0002:00002820       __newcumap                 000000018005d820     libucrt:ctype.obj
 0002:000029a0       _wctype                    000000018005d9a0     libucrt:ctype.obj
 0002:00002ba4       ??_C@_15PJPFLCCM@?$AAu?$AAk?$AA?$AA@ 000000018005dba4     libucrt:get_qualified_locale.obj
 0002:000039f0       ??_C@_15EMKDOKLE@?$AAa?$AAr?$AA?$AA@ 000000018005e9f0     libucrt:lcidtoname_downlevel.obj
 0002:000039f8       ??_C@_15KNPADPLH@?$AAb?$AAg?$AA?$AA@ 000000018005e9f8     libucrt:lcidtoname_downlevel.obj
 0002:00003a00       ??_C@_15EDMHLDMO@?$AAc?$AAa?$AA?$AA@ 000000018005ea00     libucrt:lcidtoname_downlevel.obj
 0002:00003a08       ??_C@_1O@BPEAJADD@?$AAz?$AAh?$AA?9?$AAC?$AAH?$AAS?$AA?$AA@ 000000018005ea08     libucrt:lcidtoname_downlevel.obj
 0002:00003a18       ??_C@_15LJNHCMNK@?$AAc?$AAs?$AA?$AA@ 000000018005ea18     libucrt:lcidtoname_downlevel.obj
 0002:00003a20       ??_C@_15FOMCIDHG@?$AAd?$AAa?$AA?$AA@ 000000018005ea20     libucrt:lcidtoname_downlevel.obj
 0002:00003a28       ??_C@_15NBKABECB@?$AAd?$AAe?$AA?$AA@ 000000018005ea28     libucrt:lcidtoname_downlevel.obj
 0002:00003a30       ??_C@_15GHPEIIAO@?$AAe?$AAl?$AA?$AA@ 000000018005ea30     libucrt:lcidtoname_downlevel.obj
 0002:00003a38       ??_C@_15MNPNEAIF@?$AAe?$AAn?$AA?$AA@ 000000018005ea38     libucrt:lcidtoname_downlevel.obj
 0002:00003a40       ??_C@_15GPIOMPMH@?$AAe?$AAs?$AA?$AA@ 000000018005ea40     libucrt:lcidtoname_downlevel.obj
 0002:00003a48       ??_C@_15NGLOAKJC@?$AAf?$AAi?$AA?$AA@ 000000018005ea48     libucrt:lcidtoname_downlevel.obj
 0002:00003a50       ??_C@_15FBKGNKAM@?$AAf?$AAr?$AA?$AA@ 000000018005ea50     libucrt:lcidtoname_downlevel.obj
 0002:00003a58       ??_C@_15KGGCNEFK@?$AAh?$AAe?$AA?$AA@ 000000018005ea58     libucrt:lcidtoname_downlevel.obj
 0002:00003a60       ??_C@_15PGHLIDMF@?$AAh?$AAu?$AA?$AA@ 000000018005ea60     libucrt:lcidtoname_downlevel.obj
 0002:00003a68       ??_C@_15BIEMAPLM@?$AAi?$AAs?$AA?$AA@ 000000018005ea68     libucrt:lcidtoname_downlevel.obj
 0002:00003a70       ??_C@_15IFJLDHAF@?$AAi?$AAt?$AA?$AA@ 000000018005ea70     libucrt:lcidtoname_downlevel.obj
 0002:00003a78       ??_C@_15GEMIOCAG@?$AAj?$AAa?$AA?$AA@ 000000018005ea78     libucrt:lcidtoname_downlevel.obj
 0002:00003a80       ??_C@_15EPELEGJA@?$AAk?$AAo?$AA?$AA@ 000000018005ea80     libucrt:lcidtoname_downlevel.obj
 0002:00003a88       ??_C@_15NDDHIMN@?$AAn?$AAl?$AA?$AA@ 000000018005ea88     libucrt:lcidtoname_downlevel.obj
 0002:00003a90       ??_C@_15BPIGNHCD@?$AAn?$AAo?$AA?$AA@ 000000018005ea90     libucrt:lcidtoname_downlevel.obj
 0002:00003a98       ??_C@_15DEOPBLCG@?$AAp?$AAl?$AA?$AA@ 000000018005ea98     libucrt:lcidtoname_downlevel.obj
 0002:00003aa0       ??_C@_15KBECGEFG@?$AAp?$AAt?$AA?$AA@ 000000018005eaa0     libucrt:lcidtoname_downlevel.obj
 0002:00003aa8       ??_C@_15GLJCBFMD@?$AAr?$AAo?$AA?$AA@ 000000018005eaa8     libucrt:lcidtoname_downlevel.obj
 0002:00003ab0       ??_C@_15FEDGKCDI@?$AAr?$AAu?$AA?$AA@ 000000018005eab0     libucrt:lcidtoname_downlevel.obj
 0002:00003ab8       ??_C@_15GLKMLLHM@?$AAh?$AAr?$AA?$AA@ 000000018005eab8     libucrt:lcidtoname_downlevel.obj
 0002:00003ac0       ??_C@_15CPKMFBDB@?$AAs?$AAk?$AA?$AA@ 000000018005eac0     libucrt:lcidtoname_downlevel.obj
 0002:00003ac8       ??_C@_15BAAIOGMK@?$AAs?$AAq?$AA?$AA@ 000000018005eac8     libucrt:lcidtoname_downlevel.obj
 0002:00003ad0       ??_C@_15INNPNOHD@?$AAs?$AAv?$AA?$AA@ 000000018005ead0     libucrt:lcidtoname_downlevel.obj
 0002:00003ad8       ??_C@_15CABMMOGH@?$AAt?$AAh?$AA?$AA@ 000000018005ead8     libucrt:lcidtoname_downlevel.obj
 0002:00003ae0       ??_C@_15BPLIHJJM@?$AAt?$AAr?$AA?$AA@ 000000018005eae0     libucrt:lcidtoname_downlevel.obj
 0002:00003ae8       ??_C@_15NEOEKKDJ@?$AAu?$AAr?$AA?$AA@ 000000018005eae8     libucrt:lcidtoname_downlevel.obj
 0002:00003af0       ??_C@_15NFICGAJK@?$AAi?$AAd?$AA?$AA@ 000000018005eaf0     libucrt:lcidtoname_downlevel.obj
 0002:00003af8       ??_C@_15HPJPHDM@?$AAb?$AAe?$AA?$AA@ 000000018005eaf8     libucrt:lcidtoname_downlevel.obj
 0002:00003b00       ??_C@_15LCHLGJII@?$AAs?$AAl?$AA?$AA@ 000000018005eb00     libucrt:lcidtoname_downlevel.obj
 0002:00003b08       ??_C@_15PCFJPHHO@?$AAe?$AAt?$AA?$AA@ 000000018005eb08     libucrt:lcidtoname_downlevel.obj
 0002:00003b10       ??_C@_15HPFPGODN@?$AAl?$AAv?$AA?$AA@ 000000018005eb10     libucrt:lcidtoname_downlevel.obj
 0002:00003b18       ??_C@_15NFFGKGLG@?$AAl?$AAt?$AA?$AA@ 000000018005eb18     libucrt:lcidtoname_downlevel.obj
 0002:00003b20       ??_C@_15BDAKCCHN@?$AAf?$AAa?$AA?$AA@ 000000018005eb20     libucrt:lcidtoname_downlevel.obj
 0002:00003b28       ??_C@_15NFGIAIAJ@?$AAv?$AAi?$AA?$AA@ 000000018005eb28     libucrt:lcidtoname_downlevel.obj
 0002:00003b30       ??_C@_15LMKNDMHN@?$AAh?$AAy?$AA?$AA@ 000000018005eb30     libucrt:lcidtoname_downlevel.obj
 0002:00003b38       ??_C@_15IJBHMCFL@?$AAa?$AAz?$AA?$AA@ 000000018005eb38     libucrt:lcidtoname_downlevel.obj
 0002:00003b40       ??_C@_15EKOFJABL@?$AAe?$AAu?$AA?$AA@ 000000018005eb40     libucrt:lcidtoname_downlevel.obj
 0002:00003b48       ??_C@_15BGHADCNK@?$AAm?$AAk?$AA?$AA@ 000000018005eb48     libucrt:lcidtoname_downlevel.obj
 0002:00003b50       ??_C@_15JDNICKHM@?$AAa?$AAf?$AA?$AA@ 000000018005eb50     libucrt:lcidtoname_downlevel.obj
 0002:00003b58       ??_C@_15KPJEDBKD@?$AAk?$AAa?$AA?$AA@ 000000018005eb58     libucrt:lcidtoname_downlevel.obj
 0002:00003b60       ??_C@_15PDNFFFEO@?$AAf?$AAo?$AA?$AA@ 000000018005eb60     libucrt:lcidtoname_downlevel.obj
 0002:00003b68       ??_C@_15OMLEGLOC@?$AAh?$AAi?$AA?$AA@ 000000018005eb68     libucrt:lcidtoname_downlevel.obj
 0002:00003b70       ??_C@_15IDNNENKK@?$AAm?$AAs?$AA?$AA@ 000000018005eb70     libucrt:lcidtoname_downlevel.obj
 0002:00003b78       ??_C@_15MACJNBMH@?$AAk?$AAk?$AA?$AA@ 000000018005eb78     libucrt:lcidtoname_downlevel.obj
 0002:00003b80       ??_C@_15DKDJEOND@?$AAk?$AAy?$AA?$AA@ 000000018005eb80     libucrt:lcidtoname_downlevel.obj
 0002:00003b88       ??_C@_15DFGDLJBG@?$AAs?$AAw?$AA?$AA@ 000000018005eb88     libucrt:lcidtoname_downlevel.obj
 0002:00003b90       ??_C@_15BBFAICNG@?$AAu?$AAz?$AA?$AA@ 000000018005eb90     libucrt:lcidtoname_downlevel.obj
 0002:00003b98       ??_C@_15DKNDCGEA@?$AAt?$AAt?$AA?$AA@ 000000018005eb98     libucrt:lcidtoname_downlevel.obj
 0002:00003ba0       ??_C@_15MGIFMDPL@?$AAp?$AAa?$AA?$AA@ 000000018005eba0     libucrt:lcidtoname_downlevel.obj
 0002:00003ba8       ??_C@_15HCNDBBA@?$AAg?$AAu?$AA?$AA@ 000000018005eba8     libucrt:lcidtoname_downlevel.obj
 0002:00003bb0       ??_C@_15FNBEIBON@?$AAt?$AAa?$AA?$AA@ 000000018005ebb0     libucrt:lcidtoname_downlevel.obj
 0002:00003bb8       ??_C@_15NCHGBGLK@?$AAt?$AAe?$AA?$AA@ 000000018005ebb8     libucrt:lcidtoname_downlevel.obj
 0002:00003bc0       ??_C@_15PHPHCBPF@?$AAk?$AAn?$AA?$AA@ 000000018005ebc0     libucrt:lcidtoname_downlevel.obj
 0002:00003bc8       ??_C@_15DLGBCKMP@?$AAm?$AAr?$AA?$AA@ 000000018005ebc8     libucrt:lcidtoname_downlevel.obj
 0002:00003bd0       ??_C@_15EABBLBFF@?$AAs?$AAa?$AA?$AA@ 000000018005ebd0     libucrt:lcidtoname_downlevel.obj
 0002:00003bd8       ??_C@_15CBKOMCOI@?$AAm?$AAn?$AA?$AA@ 000000018005ebd8     libucrt:lcidtoname_downlevel.obj
 0002:00003be0       ??_C@_15CKDMCJAF@?$AAg?$AAl?$AA?$AA@ 000000018005ebe0     libucrt:lcidtoname_downlevel.obj
 0002:00003be8       ??_C@_17CNJFBPG@?$AAk?$AAo?$AAk?$AA?$AA@ 000000018005ebe8     libucrt:lcidtoname_downlevel.obj
 0002:00003bf0       ??_C@_17FFBJICPL@?$AAs?$AAy?$AAr?$AA?$AA@ 000000018005ebf0     libucrt:lcidtoname_downlevel.obj
 0002:00003bf8       ??_C@_17KPNDCPAF@?$AAd?$AAi?$AAv?$AA?$AA@ 000000018005ebf8     libucrt:lcidtoname_downlevel.obj
 0002:00003c00       ??_C@_1M@OKAHONE@?$AAa?$AAr?$AA?9?$AAS?$AAA?$AA?$AA@ 000000018005ec00     libucrt:lcidtoname_downlevel.obj
 0002:00003c10       ??_C@_1M@FFFIGIGK@?$AAb?$AAg?$AA?9?$AAB?$AAG?$AA?$AA@ 000000018005ec10     libucrt:lcidtoname_downlevel.obj
 0002:00003c20       ??_C@_1M@BJNKEDC@?$AAc?$AAa?$AA?9?$AAE?$AAS?$AA?$AA@ 000000018005ec20     libucrt:lcidtoname_downlevel.obj
 0002:00003c30       ??_C@_1M@IJJHFJHA@?$AAc?$AAs?$AA?9?$AAC?$AAZ?$AA?$AA@ 000000018005ec30     libucrt:lcidtoname_downlevel.obj
 0002:00003c40       ??_C@_1M@CLPEOBGI@?$AAd?$AAa?$AA?9?$AAD?$AAK?$AA?$AA@ 000000018005ec40     libucrt:lcidtoname_downlevel.obj
 0002:00003c50       ??_C@_1M@MCMADGCB@?$AAd?$AAe?$AA?9?$AAD?$AAE?$AA?$AA@ 000000018005ec50     libucrt:lcidtoname_downlevel.obj
 0002:00003c60       ??_C@_1M@OOCKEMAM@?$AAe?$AAl?$AA?9?$AAG?$AAR?$AA?$AA@ 000000018005ec60     libucrt:lcidtoname_downlevel.obj
 0002:00003c70       ??_C@_1M@DDNJFGID@?$AAf?$AAi?$AA?9?$AAF?$AAI?$AA?$AA@ 000000018005ec70     libucrt:lcidtoname_downlevel.obj
 0002:00003c80       ??_C@_1M@GLIPPMAC@?$AAf?$AAr?$AA?9?$AAF?$AAR?$AA?$AA@ 000000018005ec80     libucrt:lcidtoname_downlevel.obj
 0002:00003c90       ??_C@_1M@GFMCHPE@?$AAh?$AAe?$AA?9?$AAI?$AAL?$AA?$AA@ 000000018005ec90     libucrt:lcidtoname_downlevel.obj
 0002:00003ca0       ??_C@_1M@MHLPGNKM@?$AAh?$AAu?$AA?9?$AAH?$AAU?$AA?$AA@ 000000018005eca0     libucrt:lcidtoname_downlevel.obj
 0002:00003cb0       ??_C@_1M@LPDDNNPN@?$AAi?$AAs?$AA?9?$AAI?$AAS?$AA?$AA@ 000000018005ecb0     libucrt:lcidtoname_downlevel.obj
 0002:00003cc0       ??_C@_1M@MADIPODN@?$AAi?$AAt?$AA?9?$AAI?$AAT?$AA?$AA@ 000000018005ecc0     libucrt:lcidtoname_downlevel.obj
 0002:00003cd0       ??_C@_1M@IHBJJGG@?$AAn?$AAl?$AA?9?$AAN?$AAL?$AA?$AA@ 000000018005ecd0     libucrt:lcidtoname_downlevel.obj
 0002:00003ce0       ??_C@_1M@EANAGDL@?$AAn?$AAb?$AA?9?$AAN?$AAO?$AA?$AA@ 000000018005ece0     libucrt:lcidtoname_downlevel.obj
 0002:00003cf0       ??_C@_1M@NEIEMEGP@?$AAp?$AAl?$AA?9?$AAP?$AAL?$AA?$AA@ 000000018005ecf0     libucrt:lcidtoname_downlevel.obj
 0002:00003d00       ??_C@_1M@BOCFIGEP@?$AAp?$AAt?$AA?9?$AAB?$AAR?$AA?$AA@ 000000018005ed00     libucrt:lcidtoname_downlevel.obj
 0002:00003d10       ??_C@_1M@IMPFOPBG@?$AAr?$AAo?$AA?9?$AAR?$AAO?$AA?$AA@ 000000018005ed10     libucrt:lcidtoname_downlevel.obj
 0002:00003d20       ??_C@_1M@IDNNEJMM@?$AAr?$AAu?$AA?9?$AAR?$AAU?$AA?$AA@ 000000018005ed20     libucrt:lcidtoname_downlevel.obj
 0002:00003d30       ??_C@_1M@LILEEOGM@?$AAh?$AAr?$AA?9?$AAH?$AAR?$AA?$AA@ 000000018005ed30     libucrt:lcidtoname_downlevel.obj
 0002:00003d40       ??_C@_1M@FKIFEHPB@?$AAs?$AAk?$AA?9?$AAS?$AAK?$AA?$AA@ 000000018005ed40     libucrt:lcidtoname_downlevel.obj
 0002:00003d50       ??_C@_1M@LJMAMNPJ@?$AAs?$AAq?$AA?9?$AAA?$AAL?$AA?$AA@ 000000018005ed50     libucrt:lcidtoname_downlevel.obj
 0002:00003d60       ??_C@_1M@GIAKDKJK@?$AAs?$AAv?$AA?9?$AAS?$AAE?$AA?$AA@ 000000018005ed60     libucrt:lcidtoname_downlevel.obj
 0002:00003d70       ??_C@_1M@MKJKIKCL@?$AAt?$AAh?$AA?9?$AAT?$AAH?$AA?$AA@ 000000018005ed70     libucrt:lcidtoname_downlevel.obj
 0002:00003d80       ??_C@_1M@MFLCCMPB@?$AAt?$AAr?$AA?9?$AAT?$AAR?$AA?$AA@ 000000018005ed80     libucrt:lcidtoname_downlevel.obj
 0002:00003d90       ??_C@_1M@OIJHDKJN@?$AAu?$AAr?$AA?9?$AAP?$AAK?$AA?$AA@ 000000018005ed90     libucrt:lcidtoname_downlevel.obj
 0002:00003da0       ??_C@_1M@LHIPCIEK@?$AAi?$AAd?$AA?9?$AAI?$AAD?$AA?$AA@ 000000018005eda0     libucrt:lcidtoname_downlevel.obj
 0002:00003db0       ??_C@_1M@MFMOBGI@?$AAu?$AAk?$AA?9?$AAU?$AAA?$AA?$AA@ 000000018005edb0     libucrt:lcidtoname_downlevel.obj
 0002:00003dc0       ??_C@_1M@OBGLJIPL@?$AAb?$AAe?$AA?9?$AAB?$AAY?$AA?$AA@ 000000018005edc0     libucrt:lcidtoname_downlevel.obj
 0002:00003dd0       ??_C@_1M@BCFAJEAD@?$AAs?$AAl?$AA?9?$AAS?$AAI?$AA?$AA@ 000000018005edd0     libucrt:lcidtoname_downlevel.obj
 0002:00003de0       ??_C@_1M@FKFFEDDN@?$AAe?$AAt?$AA?9?$AAE?$AAE?$AA?$AA@ 000000018005ede0     libucrt:lcidtoname_downlevel.obj
 0002:00003df0       ??_C@_1M@KGKKAACI@?$AAl?$AAv?$AA?9?$AAL?$AAV?$AA?$AA@ 000000018005edf0     libucrt:lcidtoname_downlevel.obj
 0002:00003e00       ??_C@_1M@IFGBIJO@?$AAl?$AAt?$AA?9?$AAL?$AAT?$AA?$AA@ 000000018005ee00     libucrt:lcidtoname_downlevel.obj
 0002:00003e10       ??_C@_1M@FGEAHEDM@?$AAf?$AAa?$AA?9?$AAI?$AAR?$AA?$AA@ 000000018005ee10     libucrt:lcidtoname_downlevel.obj
 0002:00003e20       ??_C@_1M@KBMAIBFN@?$AAv?$AAi?$AA?9?$AAV?$AAN?$AA?$AA@ 000000018005ee20     libucrt:lcidtoname_downlevel.obj
 0002:00003e30       ??_C@_1M@GPCBKDJK@?$AAh?$AAy?$AA?9?$AAA?$AAM?$AA?$AA@ 000000018005ee30     libucrt:lcidtoname_downlevel.obj
 0002:00003e40       ??_C@_1BG@BECMDDJB@?$AAa?$AAz?$AA?9?$AAA?$AAZ?$AA?9?$AAL?$AAa?$AAt?$AAn?$AA?$AA@ 000000018005ee40     libucrt:lcidtoname_downlevel.obj
 0002:00003e58       ??_C@_1M@MAOFCAEA@?$AAe?$AAu?$AA?9?$AAE?$AAS?$AA?$AA@ 000000018005ee58     libucrt:lcidtoname_downlevel.obj
 0002:00003e68       ??_C@_1M@IGHABKPI@?$AAm?$AAk?$AA?9?$AAM?$AAK?$AA?$AA@ 000000018005ee68     libucrt:lcidtoname_downlevel.obj
 0002:00003e78       ??_C@_1M@IAIGNEJG@?$AAt?$AAn?$AA?9?$AAZ?$AAA?$AA?$AA@ 000000018005ee78     libucrt:lcidtoname_downlevel.obj
 0002:00003e88       ??_C@_1M@IIJCOJFA@?$AAx?$AAh?$AA?9?$AAZ?$AAA?$AA?$AA@ 000000018005ee88     libucrt:lcidtoname_downlevel.obj
 0002:00003e98       ??_C@_1M@LGPJHNJH@?$AAz?$AAu?$AA?9?$AAZ?$AAA?$AA?$AA@ 000000018005ee98     libucrt:lcidtoname_downlevel.obj
 0002:00003ea8       ??_C@_1M@HOKAOIO@?$AAa?$AAf?$AA?9?$AAZ?$AAA?$AA?$AA@ 000000018005eea8     libucrt:lcidtoname_downlevel.obj
 0002:00003eb8       ??_C@_1M@DPCLHLIE@?$AAk?$AAa?$AA?9?$AAG?$AAE?$AA?$AA@ 000000018005eeb8     libucrt:lcidtoname_downlevel.obj
 0002:00003ec8       ??_C@_1M@BLKMHJBI@?$AAf?$AAo?$AA?9?$AAF?$AAO?$AA?$AA@ 000000018005eec8     libucrt:lcidtoname_downlevel.obj
 0002:00003ed8       ??_C@_1M@LGGJAPPB@?$AAh?$AAi?$AA?9?$AAI?$AAN?$AA?$AA@ 000000018005eed8     libucrt:lcidtoname_downlevel.obj
 0002:00003ee8       ??_C@_1M@FIKPIHFE@?$AAm?$AAt?$AA?9?$AAM?$AAT?$AA?$AA@ 000000018005eee8     libucrt:lcidtoname_downlevel.obj
 0002:00003ef8       ??_C@_1M@HEGGPBFA@?$AAs?$AAe?$AA?9?$AAN?$AAO?$AA?$AA@ 000000018005eef8     libucrt:lcidtoname_downlevel.obj
 0002:00003f08       ??_C@_1M@EIBJEEPA@?$AAm?$AAs?$AA?9?$AAM?$AAY?$AA?$AA@ 000000018005ef08     libucrt:lcidtoname_downlevel.obj
 0002:00003f18       ??_C@_1M@FHLBGMPP@?$AAk?$AAk?$AA?9?$AAK?$AAZ?$AA?$AA@ 000000018005ef18     libucrt:lcidtoname_downlevel.obj
 0002:00003f28       ??_C@_1M@NGJJLCGI@?$AAk?$AAy?$AA?9?$AAK?$AAG?$AA?$AA@ 000000018005ef28     libucrt:lcidtoname_downlevel.obj
 0002:00003f38       ??_C@_1M@GIENNBFC@?$AAs?$AAw?$AA?9?$AAK?$AAE?$AA?$AA@ 000000018005ef38     libucrt:lcidtoname_downlevel.obj
 0002:00003f48       ??_C@_1BG@NDGMJIMJ@?$AAu?$AAz?$AA?9?$AAU?$AAZ?$AA?9?$AAL?$AAa?$AAt?$AAn?$AA?$AA@ 000000018005ef48     libucrt:lcidtoname_downlevel.obj
 0002:00003f60       ??_C@_1M@IDCCIHBC@?$AAt?$AAt?$AA?9?$AAR?$AAU?$AA?$AA@ 000000018005ef60     libucrt:lcidtoname_downlevel.obj
 0002:00003f70       ??_C@_1M@LOICPMOJ@?$AAb?$AAn?$AA?9?$AAI?$AAN?$AA?$AA@ 000000018005ef70     libucrt:lcidtoname_downlevel.obj
 0002:00003f80       ??_C@_1M@KPKKNEAH@?$AAp?$AAa?$AA?9?$AAI?$AAN?$AA?$AA@ 000000018005ef80     libucrt:lcidtoname_downlevel.obj
 0002:00003f90       ??_C@_1M@PJGPPBOG@?$AAg?$AAu?$AA?9?$AAI?$AAN?$AA?$AA@ 000000018005ef90     libucrt:lcidtoname_downlevel.obj
 0002:00003fa0       ??_C@_1M@KMKMOPHI@?$AAt?$AAa?$AA?9?$AAI?$AAN?$AA?$AA@ 000000018005efa0     libucrt:lcidtoname_downlevel.obj
 0002:00003fb0       ??_C@_1M@KFEHEPAC@?$AAt?$AAe?$AA?9?$AAI?$AAN?$AA?$AA@ 000000018005efb0     libucrt:lcidtoname_downlevel.obj
 0002:00003fc0       ??_C@_1M@CDCLMGHI@?$AAk?$AAn?$AA?9?$AAI?$AAN?$AA?$AA@ 000000018005efc0     libucrt:lcidtoname_downlevel.obj
 0002:00003fd0       ??_C@_1M@MIODLDKF@?$AAm?$AAl?$AA?9?$AAI?$AAN?$AA?$AA@ 000000018005efd0     libucrt:lcidtoname_downlevel.obj
 0002:00003fe0       ??_C@_1M@PBIEACPO@?$AAm?$AAr?$AA?9?$AAI?$AAN?$AA?$AA@ 000000018005efe0     libucrt:lcidtoname_downlevel.obj
 0002:00003ff0       ??_C@_1M@NIDEAGPH@?$AAs?$AAa?$AA?9?$AAI?$AAN?$AA?$AA@ 000000018005eff0     libucrt:lcidtoname_downlevel.obj
 0002:00004000       ??_C@_1M@FHIHCBIO@?$AAm?$AAn?$AA?9?$AAM?$AAN?$AA?$AA@ 000000018005f000     libucrt:lcidtoname_downlevel.obj
 0002:00004010       ??_C@_1M@JAIJPENP@?$AAc?$AAy?$AA?9?$AAG?$AAB?$AA?$AA@ 000000018005f010     libucrt:lcidtoname_downlevel.obj
 0002:00004020       ??_C@_1M@PHGFBEPN@?$AAg?$AAl?$AA?9?$AAE?$AAS?$AA?$AA@ 000000018005f020     libucrt:lcidtoname_downlevel.obj
 0002:00004030       ??_C@_1O@KPIPDNCP@?$AAk?$AAo?$AAk?$AA?9?$AAI?$AAN?$AA?$AA@ 000000018005f030     libucrt:lcidtoname_downlevel.obj
 0002:00004040       ??_C@_1O@KNHJLDJA@?$AAs?$AAy?$AAr?$AA?9?$AAS?$AAY?$AA?$AA@ 000000018005f040     libucrt:lcidtoname_downlevel.obj
 0002:00004050       ??_C@_1O@MKEKBLAH@?$AAd?$AAi?$AAv?$AA?9?$AAM?$AAV?$AA?$AA@ 000000018005f050     libucrt:lcidtoname_downlevel.obj
 0002:00004060       ??_C@_1O@OHDCKDDF@?$AAq?$AAu?$AAz?$AA?9?$AAB?$AAO?$AA?$AA@ 000000018005f060     libucrt:lcidtoname_downlevel.obj
 0002:00004070       ??_C@_1M@LEPJNLFD@?$AAn?$AAs?$AA?9?$AAZ?$AAA?$AA?$AA@ 000000018005f070     libucrt:lcidtoname_downlevel.obj
 0002:00004080       ??_C@_1M@OMLEIIJB@?$AAm?$AAi?$AA?9?$AAN?$AAZ?$AA?$AA@ 000000018005f080     libucrt:lcidtoname_downlevel.obj
 0002:00004090       ??_C@_1M@PMPEAILG@?$AAa?$AAr?$AA?9?$AAI?$AAQ?$AA?$AA@ 000000018005f090     libucrt:lcidtoname_downlevel.obj
 0002:000040a0       ??_C@_1M@CNKPNOEE@?$AAd?$AAe?$AA?9?$AAC?$AAH?$AA?$AA@ 000000018005f0a0     libucrt:lcidtoname_downlevel.obj
 0002:000040b0       ??_C@_1M@LKMGMLKO@?$AAe?$AAn?$AA?9?$AAG?$AAB?$AA?$AA@ 000000018005f0b0     libucrt:lcidtoname_downlevel.obj
 0002:000040c0       ??_C@_1M@PGKJFFGL@?$AAe?$AAs?$AA?9?$AAM?$AAX?$AA?$AA@ 000000018005f0c0     libucrt:lcidtoname_downlevel.obj
 0002:000040d0       ??_C@_1M@DNNANBDC@?$AAf?$AAr?$AA?9?$AAB?$AAE?$AA?$AA@ 000000018005f0d0     libucrt:lcidtoname_downlevel.obj
 0002:000040e0       ??_C@_1M@HLGMDFHM@?$AAi?$AAt?$AA?9?$AAC?$AAH?$AA?$AA@ 000000018005f0e0     libucrt:lcidtoname_downlevel.obj
 0002:000040f0       ??_C@_1M@CLLBGJH@?$AAn?$AAl?$AA?9?$AAB?$AAE?$AA?$AA@ 000000018005f0f0     libucrt:lcidtoname_downlevel.obj
 0002:00004100       ??_C@_1M@BODBOGLF@?$AAn?$AAn?$AA?9?$AAN?$AAO?$AA?$AA@ 000000018005f100     libucrt:lcidtoname_downlevel.obj
 0002:00004110       ??_C@_1M@HFFAHKAD@?$AAp?$AAt?$AA?9?$AAP?$AAT?$AA?$AA@ 000000018005f110     libucrt:lcidtoname_downlevel.obj
 0002:00004120       ??_C@_1BG@LNOAKHIE@?$AAs?$AAr?$AA?9?$AAS?$AAP?$AA?9?$AAL?$AAa?$AAt?$AAn?$AA?$AA@ 000000018005f120     libucrt:lcidtoname_downlevel.obj
 0002:00004138       ??_C@_1M@HBMHBGAK@?$AAs?$AAv?$AA?9?$AAF?$AAI?$AA?$AA@ 000000018005f138     libucrt:lcidtoname_downlevel.obj
 0002:00004148       ??_C@_1BG@DGCJGJBE@?$AAa?$AAz?$AA?9?$AAA?$AAZ?$AA?9?$AAC?$AAy?$AAr?$AAl?$AA?$AA@ 000000018005f148     libucrt:lcidtoname_downlevel.obj
 0002:00004160       ??_C@_1M@KEJDAAHB@?$AAs?$AAe?$AA?9?$AAS?$AAE?$AA?$AA@ 000000018005f160     libucrt:lcidtoname_downlevel.obj
 0002:00004170       ??_C@_1M@HEIBJJAD@?$AAm?$AAs?$AA?9?$AAB?$AAN?$AA?$AA@ 000000018005f170     libucrt:lcidtoname_downlevel.obj
 0002:00004180       ??_C@_1BG@PBGJMCEM@?$AAu?$AAz?$AA?9?$AAU?$AAZ?$AA?9?$AAC?$AAy?$AAr?$AAl?$AA?$AA@ 000000018005f180     libucrt:lcidtoname_downlevel.obj
 0002:00004198       ??_C@_1O@LAOBCMDF@?$AAq?$AAu?$AAz?$AA?9?$AAE?$AAC?$AA?$AA@ 000000018005f198     libucrt:lcidtoname_downlevel.obj
 0002:000041a8       ??_C@_1M@POEEMAIO@?$AAa?$AAr?$AA?9?$AAE?$AAG?$AA?$AA@ 000000018005f1a8     libucrt:lcidtoname_downlevel.obj
 0002:000041b8       ??_C@_1M@EFAKDEDL@?$AAz?$AAh?$AA?9?$AAH?$AAK?$AA?$AA@ 000000018005f1b8     libucrt:lcidtoname_downlevel.obj
 0002:000041c8       ??_C@_1M@HKKIJHGI@?$AAd?$AAe?$AA?9?$AAA?$AAT?$AA?$AA@ 000000018005f1c8     libucrt:lcidtoname_downlevel.obj
 0002:000041d8       ??_C@_1M@KBFBEHJF@?$AAe?$AAn?$AA?9?$AAA?$AAU?$AA?$AA@ 000000018005f1d8     libucrt:lcidtoname_downlevel.obj
 0002:000041e8       ??_C@_1M@MNPLFAAH@?$AAe?$AAs?$AA?9?$AAE?$AAS?$AA?$AA@ 000000018005f1e8     libucrt:lcidtoname_downlevel.obj
 0002:000041f8       ??_C@_1M@HJOOJFMA@?$AAf?$AAr?$AA?9?$AAC?$AAA?$AA?$AA@ 000000018005f1f8     libucrt:lcidtoname_downlevel.obj
 0002:00004208       ??_C@_1BG@JPOFPNAB@?$AAs?$AAr?$AA?9?$AAS?$AAP?$AA?9?$AAC?$AAy?$AAr?$AAl?$AA?$AA@ 000000018005f208     libucrt:lcidtoname_downlevel.obj
 0002:00004220       ??_C@_1M@LNFOCMOB@?$AAs?$AAe?$AA?9?$AAF?$AAI?$AA?$AA@ 000000018005f220     libucrt:lcidtoname_downlevel.obj
 0002:00004230       ??_C@_1O@MGJBOAMB@?$AAq?$AAu?$AAz?$AA?9?$AAP?$AAE?$AA?$AA@ 000000018005f230     libucrt:lcidtoname_downlevel.obj
 0002:00004240       ??_C@_1M@GJINLBOK@?$AAa?$AAr?$AA?9?$AAL?$AAY?$AA?$AA@ 000000018005f240     libucrt:lcidtoname_downlevel.obj
 0002:00004250       ??_C@_1M@GGMNHJNL@?$AAz?$AAh?$AA?9?$AAS?$AAG?$AA?$AA@ 000000018005f250     libucrt:lcidtoname_downlevel.obj
 0002:00004260       ??_C@_1M@HOIKODND@?$AAd?$AAe?$AA?9?$AAL?$AAU?$AA?$AA@ 000000018005f260     libucrt:lcidtoname_downlevel.obj
 0002:00004270       ??_C@_1M@DDOCCGFG@?$AAe?$AAn?$AA?9?$AAC?$AAA?$AA?$AA@ 000000018005f270     libucrt:lcidtoname_downlevel.obj
 0002:00004280       ??_C@_1M@BNOEMJLF@?$AAe?$AAs?$AA?9?$AAG?$AAT?$AA?$AA@ 000000018005f280     libucrt:lcidtoname_downlevel.obj
 0002:00004290       ??_C@_1M@EOGNKEK@?$AAf?$AAr?$AA?9?$AAC?$AAH?$AA?$AA@ 000000018005f290     libucrt:lcidtoname_downlevel.obj
 0002:000042a0       ??_C@_1M@FLIDJFHL@?$AAh?$AAr?$AA?9?$AAB?$AAA?$AA?$AA@ 000000018005f2a0     libucrt:lcidtoname_downlevel.obj
 0002:000042b0       ??_C@_1O@FMCELNAJ@?$AAs?$AAm?$AAj?$AA?9?$AAN?$AAO?$AA?$AA@ 000000018005f2b0     libucrt:lcidtoname_downlevel.obj
 0002:000042c0       ??_C@_1M@JHGLJMGJ@?$AAa?$AAr?$AA?9?$AAD?$AAZ?$AA?$AA@ 000000018005f2c0     libucrt:lcidtoname_downlevel.obj
 0002:000042d0       ??_C@_1M@JKKFDCNP@?$AAz?$AAh?$AA?9?$AAM?$AAO?$AA?$AA@ 000000018005f2d0     libucrt:lcidtoname_downlevel.obj
 0002:000042e0       ??_C@_1M@GEEFALPE@?$AAd?$AAe?$AA?9?$AAL?$AAI?$AA?$AA@ 000000018005f2e0     libucrt:lcidtoname_downlevel.obj
 0002:000042f0       ??_C@_1M@IGEOFBG@?$AAe?$AAn?$AA?9?$AAN?$AAZ?$AA?$AA@ 000000018005f2f0     libucrt:lcidtoname_downlevel.obj
 0002:00004300       ??_C@_1M@KDBONEHP@?$AAe?$AAs?$AA?9?$AAC?$AAR?$AA?$AA@ 000000018005f300     libucrt:lcidtoname_downlevel.obj
 0002:00004310       ??_C@_1M@FHMDOHNN@?$AAf?$AAr?$AA?9?$AAL?$AAU?$AA?$AA@ 000000018005f310     libucrt:lcidtoname_downlevel.obj
 0002:00004320       ??_C@_1BG@NFKKMAFG@?$AAb?$AAs?$AA?9?$AAB?$AAA?$AA?9?$AAL?$AAa?$AAt?$AAn?$AA?$AA@ 000000018005f320     libucrt:lcidtoname_downlevel.obj
 0002:00004338       ??_C@_1O@IMNBEMCI@?$AAs?$AAm?$AAj?$AA?9?$AAS?$AAE?$AA?$AA@ 000000018005f338     libucrt:lcidtoname_downlevel.obj
 0002:00004348       ??_C@_1M@DHHMBNDP@?$AAa?$AAr?$AA?9?$AAM?$AAA?$AA?$AA@ 000000018005f348     libucrt:lcidtoname_downlevel.obj
 0002:00004358       ??_C@_1M@BNBLJCGH@?$AAe?$AAn?$AA?9?$AAI?$AAE?$AA?$AA@ 000000018005f358     libucrt:lcidtoname_downlevel.obj
 0002:00004368       ??_C@_1M@GEPAFMDL@?$AAe?$AAs?$AA?9?$AAP?$AAA?$AA?$AA@ 000000018005f368     libucrt:lcidtoname_downlevel.obj
 0002:00004378       ??_C@_1M@OJONDMDL@?$AAf?$AAr?$AA?9?$AAM?$AAC?$AA?$AA@ 000000018005f378     libucrt:lcidtoname_downlevel.obj
 0002:00004388       ??_C@_1BG@OBCNFJB@?$AAs?$AAr?$AA?9?$AAB?$AAA?$AA?9?$AAL?$AAa?$AAt?$AAn?$AA?$AA@ 000000018005f388     libucrt:lcidtoname_downlevel.obj
 0002:000043a0       ??_C@_1O@KEMEEGPO@?$AAs?$AAm?$AAa?$AA?9?$AAN?$AAO?$AA?$AA@ 000000018005f3a0     libucrt:lcidtoname_downlevel.obj
 0002:000043b0       ??_C@_1M@ELMGFODK@?$AAa?$AAr?$AA?9?$AAT?$AAN?$AA?$AA@ 000000018005f3b0     libucrt:lcidtoname_downlevel.obj
 0002:000043c0       ??_C@_1M@BHDLHFAF@?$AAe?$AAn?$AA?9?$AAZ?$AAA?$AA?$AA@ 000000018005f3c0     libucrt:lcidtoname_downlevel.obj
 0002:000043d0       ??_C@_1M@BMGIGLIF@?$AAe?$AAs?$AA?9?$AAD?$AAO?$AA?$AA@ 000000018005f3d0     libucrt:lcidtoname_downlevel.obj
 0002:000043e0       ??_C@_1BG@CMBHIPBE@?$AAs?$AAr?$AA?9?$AAB?$AAA?$AA?9?$AAC?$AAy?$AAr?$AAl?$AA?$AA@ 000000018005f3e0     libucrt:lcidtoname_downlevel.obj
 0002:000043f8       ??_C@_1O@HEDBLHNP@?$AAs?$AAm?$AAa?$AA?9?$AAS?$AAE?$AA?$AA@ 000000018005f3f8     libucrt:lcidtoname_downlevel.obj
 0002:00004408       ??_C@_1M@DAGCADIM@?$AAa?$AAr?$AA?9?$AAO?$AAM?$AA?$AA@ 000000018005f408     libucrt:lcidtoname_downlevel.obj
 0002:00004418       ??_C@_1M@FODLMICG@?$AAe?$AAn?$AA?9?$AAJ?$AAM?$AA?$AA@ 000000018005f418     libucrt:lcidtoname_downlevel.obj
 0002:00004428       ??_C@_1M@DNMLCIHB@?$AAe?$AAs?$AA?9?$AAV?$AAE?$AA?$AA@ 000000018005f428     libucrt:lcidtoname_downlevel.obj
 0002:00004438       ??_C@_1O@EOKHMKJK@?$AAs?$AAm?$AAs?$AA?9?$AAF?$AAI?$AA?$AA@ 000000018005f438     libucrt:lcidtoname_downlevel.obj
 0002:00004448       ??_C@_1M@CAFJMKOF@?$AAa?$AAr?$AA?9?$AAY?$AAE?$AA?$AA@ 000000018005f448     libucrt:lcidtoname_downlevel.obj
 0002:00004458       ??_C@_1M@CBFHIJLI@?$AAe?$AAn?$AA?9?$AAC?$AAB?$AA?$AA@ 000000018005f458     libucrt:lcidtoname_downlevel.obj
 0002:00004468       ??_C@_1M@BGNFLDN@?$AAe?$AAs?$AA?9?$AAC?$AAO?$AA?$AA@ 000000018005f468     libucrt:lcidtoname_downlevel.obj
 0002:00004478       ??_C@_1O@JMPHMAMC@?$AAs?$AAm?$AAn?$AA?9?$AAF?$AAI?$AA?$AA@ 000000018005f478     libucrt:lcidtoname_downlevel.obj
 0002:00004488       ??_C@_1M@JLANABKE@?$AAa?$AAr?$AA?9?$AAS?$AAY?$AA?$AA@ 000000018005f488     libucrt:lcidtoname_downlevel.obj
 0002:00004498       ??_C@_1M@HPKGCFGN@?$AAe?$AAn?$AA?9?$AAB?$AAZ?$AA?$AA@ 000000018005f498     libucrt:lcidtoname_downlevel.obj
 0002:000044a8       ??_C@_1M@OLJCMLGM@?$AAe?$AAs?$AA?9?$AAP?$AAE?$AA?$AA@ 000000018005f4a8     libucrt:lcidtoname_downlevel.obj
 0002:000044b8       ??_C@_1M@MKKGFKLE@?$AAa?$AAr?$AA?9?$AAJ?$AAO?$AA?$AA@ 000000018005f4b8     libucrt:lcidtoname_downlevel.obj
 0002:000044c8       ??_C@_1M@EKPGLDNI@?$AAe?$AAn?$AA?9?$AAT?$AAT?$AA?$AA@ 000000018005f4c8     libucrt:lcidtoname_downlevel.obj
 0002:000044d8       ??_C@_1M@OONGHFHE@?$AAe?$AAs?$AA?9?$AAA?$AAR?$AA?$AA@ 000000018005f4d8     libucrt:lcidtoname_downlevel.obj
 0002:000044e8       ??_C@_1M@OOJFGBHE@?$AAa?$AAr?$AA?9?$AAL?$AAB?$AA?$AA@ 000000018005f4e8     libucrt:lcidtoname_downlevel.obj
 0002:000044f8       ??_C@_1M@GCEJHNEG@?$AAe?$AAn?$AA?9?$AAZ?$AAW?$AA?$AA@ 000000018005f4f8     libucrt:lcidtoname_downlevel.obj
 0002:00004508       ??_C@_1M@JNOCAHJI@?$AAe?$AAs?$AA?9?$AAE?$AAC?$AA?$AA@ 000000018005f508     libucrt:lcidtoname_downlevel.obj
 0002:00004518       ??_C@_1M@JEFHPGGB@?$AAa?$AAr?$AA?9?$AAK?$AAW?$AA?$AA@ 000000018005f518     libucrt:lcidtoname_downlevel.obj
 0002:00004528       ??_C@_1M@MLKIBJOJ@?$AAe?$AAn?$AA?9?$AAP?$AAH?$AA?$AA@ 000000018005f528     libucrt:lcidtoname_downlevel.obj
 0002:00004538       ??_C@_1M@BDNIPEND@?$AAe?$AAs?$AA?9?$AAC?$AAL?$AA?$AA@ 000000018005f538     libucrt:lcidtoname_downlevel.obj
 0002:00004548       ??_C@_1M@MPNMEKBD@?$AAa?$AAr?$AA?9?$AAA?$AAE?$AA?$AA@ 000000018005f548     libucrt:lcidtoname_downlevel.obj
 0002:00004558       ??_C@_1M@KBJALCPI@?$AAe?$AAs?$AA?9?$AAU?$AAY?$AA?$AA@ 000000018005f558     libucrt:lcidtoname_downlevel.obj
 0002:00004568       ??_C@_1M@LLCCOAGA@?$AAa?$AAr?$AA?9?$AAB?$AAH?$AA?$AA@ 000000018005f568     libucrt:lcidtoname_downlevel.obj
 0002:00004578       ??_C@_1M@PBFNCDEL@?$AAe?$AAs?$AA?9?$AAP?$AAY?$AA?$AA@ 000000018005f578     libucrt:lcidtoname_downlevel.obj
 0002:00004588       ??_C@_1M@EDGINPNP@?$AAa?$AAr?$AA?9?$AAQ?$AAA?$AA?$AA@ 000000018005f588     libucrt:lcidtoname_downlevel.obj
 0002:00004598       ??_C@_1M@MKDBIIJI@?$AAe?$AAs?$AA?9?$AAB?$AAO?$AA?$AA@ 000000018005f598     libucrt:lcidtoname_downlevel.obj
 0002:000045a8       ??_C@_1M@CPKKEBLD@?$AAe?$AAs?$AA?9?$AAS?$AAV?$AA?$AA@ 000000018005f5a8     libucrt:lcidtoname_downlevel.obj
 0002:000045b8       ??_C@_1M@NDBGMMJL@?$AAe?$AAs?$AA?9?$AAH?$AAN?$AA?$AA@ 000000018005f5b8     libucrt:lcidtoname_downlevel.obj
 0002:000045c8       ??_C@_1M@JIJIBHDP@?$AAe?$AAs?$AA?9?$AAN?$AAI?$AA?$AA@ 000000018005f5c8     libucrt:lcidtoname_downlevel.obj
 0002:000045d8       ??_C@_1M@CGFMKEEK@?$AAe?$AAs?$AA?9?$AAP?$AAR?$AA?$AA@ 000000018005f5d8     libucrt:lcidtoname_downlevel.obj
 0002:000045e8       ??_C@_1O@ICJHKIIK@?$AAz?$AAh?$AA?9?$AAC?$AAH?$AAT?$AA?$AA@ 000000018005f5e8     libucrt:lcidtoname_downlevel.obj
 0002:000045f8       ??_C@_15CLNEJCE@?$AAs?$AAr?$AA?$AA@ 000000018005f5f8     libucrt:lcidtoname_downlevel.obj
 0002:00005440       ??_C@_1M@KAHEKEIG@?$AAa?$AAf?$AA?9?$AAz?$AAa?$AA?$AA@ 0000000180060440     libucrt:lcidtoname_downlevel.obj
 0002:00005450       ??_C@_1M@GIECOABL@?$AAa?$AAr?$AA?9?$AAa?$AAe?$AA?$AA@ 0000000180060450     libucrt:lcidtoname_downlevel.obj
 0002:00005460       ??_C@_1M@BMLMEKGI@?$AAa?$AAr?$AA?9?$AAb?$AAh?$AA?$AA@ 0000000180060460     libucrt:lcidtoname_downlevel.obj
 0002:00005470       ??_C@_1M@DAPFDGGB@?$AAa?$AAr?$AA?9?$AAd?$AAz?$AA?$AA@ 0000000180060470     libucrt:lcidtoname_downlevel.obj
 0002:00005480       ??_C@_1M@FJNKGKIG@?$AAa?$AAr?$AA?9?$AAe?$AAg?$AA?$AA@ 0000000180060480     libucrt:lcidtoname_downlevel.obj
 0002:00005490       ??_C@_1M@FLGKKCLO@?$AAa?$AAr?$AA?9?$AAi?$AAq?$AA?$AA@ 0000000180060490     libucrt:lcidtoname_downlevel.obj
 0002:000054a0       ??_C@_1M@GNDIPALM@?$AAa?$AAr?$AA?9?$AAj?$AAo?$AA?$AA@ 00000001800604a0     libucrt:lcidtoname_downlevel.obj
 0002:000054b0       ??_C@_1M@DDMJFMGJ@?$AAa?$AAr?$AA?9?$AAk?$AAw?$AA?$AA@ 00000001800604b0     libucrt:lcidtoname_downlevel.obj
 0002:000054c0       ??_C@_1M@EJALMLHM@?$AAa?$AAr?$AA?9?$AAl?$AAb?$AA?$AA@ 00000001800604c0     libucrt:lcidtoname_downlevel.obj
 0002:000054d0       ??_C@_1M@MOBDBLOC@?$AAa?$AAr?$AA?9?$AAl?$AAy?$AA?$AA@ 00000001800604d0     libucrt:lcidtoname_downlevel.obj
 0002:000054e0       ??_C@_1M@JAOCLHDH@?$AAa?$AAr?$AA?9?$AAm?$AAa?$AA?$AA@ 00000001800604e0     libucrt:lcidtoname_downlevel.obj
 0002:000054f0       ??_C@_1M@JHPMKJIE@?$AAa?$AAr?$AA?9?$AAo?$AAm?$AA?$AA@ 00000001800604f0     libucrt:lcidtoname_downlevel.obj
 0002:00005500       ??_C@_1M@OEPGHFNH@?$AAa?$AAr?$AA?9?$AAq?$AAa?$AA?$AA@ 0000000180060500     libucrt:lcidtoname_downlevel.obj
 0002:00005510       ??_C@_1M@KJDONENM@?$AAa?$AAr?$AA?9?$AAs?$AAa?$AA?$AA@ 0000000180060510     libucrt:lcidtoname_downlevel.obj
 0002:00005520       ??_C@_1M@DMJDKLKM@?$AAa?$AAr?$AA?9?$AAs?$AAy?$AA?$AA@ 0000000180060520     libucrt:lcidtoname_downlevel.obj
 0002:00005530       ??_C@_1M@OMFIPEDC@?$AAa?$AAr?$AA?9?$AAt?$AAn?$AA?$AA@ 0000000180060530     libucrt:lcidtoname_downlevel.obj
 0002:00005540       ??_C@_1M@IHMHGAON@?$AAa?$AAr?$AA?9?$AAy?$AAe?$AA?$AA@ 0000000180060540     libucrt:lcidtoname_downlevel.obj
 0002:00005550       ??_C@_1BG@KDCPGJGB@?$AAa?$AAz?$AA?9?$AAa?$AAz?$AA?9?$AAc?$AAy?$AAr?$AAl?$AA?$AA@ 0000000180060550     libucrt:lcidtoname_downlevel.obj
 0002:00005568       ??_C@_1BG@IBCKDDOE@?$AAa?$AAz?$AA?9?$AAa?$AAz?$AA?9?$AAl?$AAa?$AAt?$AAn?$AA?$AA@ 0000000180060568     libucrt:lcidtoname_downlevel.obj
 0002:00005580       ??_C@_1M@EGPFDCPD@?$AAb?$AAe?$AA?9?$AAb?$AAy?$AA?$AA@ 0000000180060580     libucrt:lcidtoname_downlevel.obj
 0002:00005590       ??_C@_1M@PCMGMCGC@?$AAb?$AAg?$AA?9?$AAb?$AAg?$AA?$AA@ 0000000180060590     libucrt:lcidtoname_downlevel.obj
 0002:000055a0       ??_C@_1M@BJBMFGOB@?$AAb?$AAn?$AA?9?$AAi?$AAn?$AA?$AA@ 00000001800605a0     libucrt:lcidtoname_downlevel.obj
 0002:000055b0       ??_C@_1BG@EAKMMACD@?$AAb?$AAs?$AA?9?$AAb?$AAa?$AA?9?$AAl?$AAa?$AAt?$AAn?$AA?$AA@ 00000001800605b0     libucrt:lcidtoname_downlevel.obj
 0002:000055c8       ??_C@_1M@KGADAODK@?$AAc?$AAa?$AA?9?$AAe?$AAs?$AA?$AA@ 00000001800605c8     libucrt:lcidtoname_downlevel.obj
 0002:000055d8       ??_C@_1M@COAJPDHI@?$AAc?$AAs?$AA?9?$AAc?$AAz?$AA?$AA@ 00000001800605d8     libucrt:lcidtoname_downlevel.obj
 0002:000055e8       ??_C@_1M@DHBHFONH@?$AAc?$AAy?$AA?9?$AAg?$AAb?$AA?$AA@ 00000001800605e8     libucrt:lcidtoname_downlevel.obj
 0002:000055f8       ??_C@_1M@IMGKELGA@?$AAd?$AAa?$AA?9?$AAd?$AAk?$AA?$AA@ 00000001800605f8     libucrt:lcidtoname_downlevel.obj
 0002:00005608       ??_C@_1M@NNDGDNGA@?$AAd?$AAe?$AA?9?$AAa?$AAt?$AA?$AA@ 0000000180060608     libucrt:lcidtoname_downlevel.obj
 0002:00005618       ??_C@_1M@IKDBHEEM@?$AAd?$AAe?$AA?9?$AAc?$AAh?$AA?$AA@ 0000000180060618     libucrt:lcidtoname_downlevel.obj
 0002:00005628       ??_C@_1M@GFFOJMCJ@?$AAd?$AAe?$AA?9?$AAd?$AAe?$AA?$AA@ 0000000180060628     libucrt:lcidtoname_downlevel.obj
 0002:00005638       ??_C@_1M@MDNLKBPM@?$AAd?$AAe?$AA?9?$AAl?$AAi?$AA?$AA@ 0000000180060638     libucrt:lcidtoname_downlevel.obj
 0002:00005648       ??_C@_1M@NJBEEJNL@?$AAd?$AAe?$AA?9?$AAl?$AAu?$AA?$AA@ 0000000180060648     libucrt:lcidtoname_downlevel.obj
 0002:00005658       ??_C@_1O@GNNELBAP@?$AAd?$AAi?$AAv?$AA?9?$AAm?$AAv?$AA?$AA@ 0000000180060658     libucrt:lcidtoname_downlevel.obj
 0002:00005668       ??_C@_1M@EJLEOGAE@?$AAe?$AAl?$AA?9?$AAg?$AAr?$AA?$AA@ 0000000180060668     libucrt:lcidtoname_downlevel.obj
 0002:00005678       ??_C@_1M@GMPONJN@?$AAe?$AAn?$AA?9?$AAa?$AAu?$AA?$AA@ 0000000180060678     libucrt:lcidtoname_downlevel.obj
 0002:00005688       ??_C@_1M@NIDIIPGF@?$AAe?$AAn?$AA?9?$AAb?$AAz?$AA?$AA@ 0000000180060688     libucrt:lcidtoname_downlevel.obj
 0002:00005698       ??_C@_1M@JEHMIMFO@?$AAe?$AAn?$AA?9?$AAc?$AAa?$AA?$AA@ 0000000180060698     libucrt:lcidtoname_downlevel.obj
 0002:000056a8       ??_C@_1M@IGMJCDLA@?$AAe?$AAn?$AA?9?$AAc?$AAb?$AA?$AA@ 00000001800606a8     libucrt:lcidtoname_downlevel.obj
 0002:000056b8       ??_C@_1M@BNFIGBKG@?$AAe?$AAn?$AA?9?$AAg?$AAb?$AA?$AA@ 00000001800606b8     libucrt:lcidtoname_downlevel.obj
 0002:000056c8       ??_C@_1M@LKIFDIGP@?$AAe?$AAn?$AA?9?$AAi?$AAe?$AA?$AA@ 00000001800606c8     libucrt:lcidtoname_downlevel.obj
 0002:000056d8       ??_C@_1M@PJKFGCCO@?$AAe?$AAn?$AA?9?$AAj?$AAm?$AA?$AA@ 00000001800606d8     libucrt:lcidtoname_downlevel.obj
 0002:000056e8       ??_C@_1M@KPPKEPBO@?$AAe?$AAn?$AA?9?$AAn?$AAz?$AA?$AA@ 00000001800606e8     libucrt:lcidtoname_downlevel.obj
 0002:000056f8       ??_C@_1M@GMDGLDOB@?$AAe?$AAn?$AA?9?$AAp?$AAh?$AA?$AA@ 00000001800606f8     libucrt:lcidtoname_downlevel.obj
 0002:00005708       ??_C@_1M@ONGIBJNA@?$AAe?$AAn?$AA?9?$AAt?$AAt?$AA?$AA@ 0000000180060708     libucrt:lcidtoname_downlevel.obj
 0002:00005718       ??_C@_1M@LLODPCMM@?$AAe?$AAn?$AA?9?$AAu?$AAs?$AA?$AA@ 0000000180060718     libucrt:lcidtoname_downlevel.obj
 0002:00005728       ??_C@_1M@LAKFNPAN@?$AAe?$AAn?$AA?9?$AAz?$AAa?$AA?$AA@ 0000000180060728     libucrt:lcidtoname_downlevel.obj
 0002:00005738       ??_C@_1M@MFNHNHEO@?$AAe?$AAn?$AA?9?$AAz?$AAw?$AA?$AA@ 0000000180060738     libucrt:lcidtoname_downlevel.obj
 0002:00005748       ??_C@_1M@EJEINPHM@?$AAe?$AAs?$AA?9?$AAa?$AAr?$AA?$AA@ 0000000180060748     libucrt:lcidtoname_downlevel.obj
 0002:00005758       ??_C@_1M@GNKPCCJA@?$AAe?$AAs?$AA?9?$AAb?$AAo?$AA?$AA@ 0000000180060758     libucrt:lcidtoname_downlevel.obj
 0002:00005768       ??_C@_1M@LEEGFONL@?$AAe?$AAs?$AA?9?$AAc?$AAl?$AA?$AA@ 0000000180060768     libucrt:lcidtoname_downlevel.obj
 0002:00005778       ??_C@_1M@KGPDPBDF@?$AAe?$AAs?$AA?9?$AAc?$AAo?$AA?$AA@ 0000000180060778     libucrt:lcidtoname_downlevel.obj
 0002:00005788       ??_C@_1M@EIAHOHH@?$AAe?$AAs?$AA?9?$AAc?$AAr?$AA?$AA@ 0000000180060788     libucrt:lcidtoname_downlevel.obj
 0002:00005798       ??_C@_1M@LLPGMBIN@?$AAe?$AAs?$AA?9?$AAd?$AAo?$AA?$AA@ 0000000180060798     libucrt:lcidtoname_downlevel.obj
 0002:000057a8       ??_C@_1M@DKHMKNJA@?$AAe?$AAs?$AA?9?$AAe?$AAc?$AA?$AA@ 00000001800607a8     libucrt:lcidtoname_downlevel.obj
 0002:000057b8       ??_C@_1M@GKGFPKAP@?$AAe?$AAs?$AA?9?$AAe?$AAs?$AA?$AA@ 00000001800607b8     libucrt:lcidtoname_downlevel.obj
 0002:000057c8       ??_C@_1M@LKHKGDLN@?$AAe?$AAs?$AA?9?$AAg?$AAt?$AA?$AA@ 00000001800607c8     libucrt:lcidtoname_downlevel.obj
 0002:000057d8       ??_C@_1M@HEIIGGJD@?$AAe?$AAs?$AA?9?$AAh?$AAn?$AA?$AA@ 00000001800607d8     libucrt:lcidtoname_downlevel.obj
 0002:000057e8       ??_C@_1M@FBDHPPGD@?$AAe?$AAs?$AA?9?$AAm?$AAx?$AA?$AA@ 00000001800607e8     libucrt:lcidtoname_downlevel.obj
 0002:000057f8       ??_C@_1M@DPAGLNDH@?$AAe?$AAs?$AA?9?$AAn?$AAi?$AA?$AA@ 00000001800607f8     libucrt:lcidtoname_downlevel.obj
 0002:00005808       ??_C@_1M@MDGOPGDD@?$AAe?$AAs?$AA?9?$AAp?$AAa?$AA?$AA@ 0000000180060808     libucrt:lcidtoname_downlevel.obj
 0002:00005818       ??_C@_1M@EMAMGBGE@?$AAe?$AAs?$AA?9?$AAp?$AAe?$AA?$AA@ 0000000180060818     libucrt:lcidtoname_downlevel.obj
 0002:00005828       ??_C@_1M@IBMCAOEC@?$AAe?$AAs?$AA?9?$AAp?$AAr?$AA?$AA@ 0000000180060828     libucrt:lcidtoname_downlevel.obj
 0002:00005838       ??_C@_1M@FGMDIJED@?$AAe?$AAs?$AA?9?$AAp?$AAy?$AA?$AA@ 0000000180060838     libucrt:lcidtoname_downlevel.obj
 0002:00005848       ??_C@_1M@IIDEOLLL@?$AAe?$AAs?$AA?9?$AAs?$AAv?$AA?$AA@ 0000000180060848     libucrt:lcidtoname_downlevel.obj
 0002:00005858       ??_C@_1M@GAOBIPA@?$AAe?$AAs?$AA?9?$AAu?$AAy?$AA?$AA@ 0000000180060858     libucrt:lcidtoname_downlevel.obj
 0002:00005868       ??_C@_1M@JKFFICHJ@?$AAe?$AAs?$AA?9?$AAv?$AAe?$AA?$AA@ 0000000180060868     libucrt:lcidtoname_downlevel.obj
 0002:00005878       ??_C@_1M@PNMLOJDF@?$AAe?$AAt?$AA?9?$AAe?$AAe?$AA?$AA@ 0000000180060878     libucrt:lcidtoname_downlevel.obj
 0002:00005888       ??_C@_1M@GHHLIKEI@?$AAe?$AAu?$AA?9?$AAe?$AAs?$AA?$AA@ 0000000180060888     libucrt:lcidtoname_downlevel.obj
 0002:00005898       ??_C@_1M@PBNONODE@?$AAf?$AAa?$AA?9?$AAi?$AAr?$AA?$AA@ 0000000180060898     libucrt:lcidtoname_downlevel.obj
 0002:000058a8       ??_C@_1M@JEEHPMIL@?$AAf?$AAi?$AA?9?$AAf?$AAi?$AA?$AA@ 00000001800608a8     libucrt:lcidtoname_downlevel.obj
 0002:000058b8       ??_C@_1M@LMDCNDBA@?$AAf?$AAo?$AA?9?$AAf?$AAo?$AA?$AA@ 00000001800608b8     libucrt:lcidtoname_downlevel.obj
 0002:000058c8       ??_C@_1M@JKEOHLDK@?$AAf?$AAr?$AA?9?$AAb?$AAe?$AA?$AA@ 00000001800608c8     libucrt:lcidtoname_downlevel.obj
 0002:000058d8       ??_C@_1M@NOHADPMI@?$AAf?$AAr?$AA?9?$AAc?$AAa?$AA?$AA@ 00000001800608d8     libucrt:lcidtoname_downlevel.obj
 0002:000058e8       ??_C@_1M@KDHIHAEC@?$AAf?$AAr?$AA?9?$AAc?$AAh?$AA?$AA@ 00000001800608e8     libucrt:lcidtoname_downlevel.obj
 0002:000058f8       ??_C@_1M@MMBBFGAK@?$AAf?$AAr?$AA?9?$AAf?$AAr?$AA?$AA@ 00000001800608f8     libucrt:lcidtoname_downlevel.obj
 0002:00005908       ??_C@_1M@PAFNENNF@?$AAf?$AAr?$AA?9?$AAl?$AAu?$AA?$AA@ 0000000180060908     libucrt:lcidtoname_downlevel.obj
 0002:00005918       ??_C@_1M@EOHDJGDD@?$AAf?$AAr?$AA?9?$AAm?$AAc?$AA?$AA@ 0000000180060918     libucrt:lcidtoname_downlevel.obj
 0002:00005928       ??_C@_1M@FAPLLOPF@?$AAg?$AAl?$AA?9?$AAe?$AAs?$AA?$AA@ 0000000180060928     libucrt:lcidtoname_downlevel.obj
 0002:00005938       ??_C@_1M@FOPBFLOO@?$AAg?$AAu?$AA?9?$AAi?$AAn?$AA?$AA@ 0000000180060938     libucrt:lcidtoname_downlevel.obj
 0002:00005948       ??_C@_1M@KBMCINPM@?$AAh?$AAe?$AA?9?$AAi?$AAl?$AA?$AA@ 0000000180060948     libucrt:lcidtoname_downlevel.obj
 0002:00005958       ??_C@_1M@BBPHKFPJ@?$AAh?$AAi?$AA?9?$AAi?$AAn?$AA?$AA@ 0000000180060958     libucrt:lcidtoname_downlevel.obj
 0002:00005968       ??_C@_1M@PMBNDPHD@?$AAh?$AAr?$AA?9?$AAb?$AAa?$AA?$AA@ 0000000180060968     libucrt:lcidtoname_downlevel.obj
 0002:00005978       ??_C@_1M@BPCKOEGE@?$AAh?$AAr?$AA?9?$AAh?$AAr?$AA?$AA@ 0000000180060978     libucrt:lcidtoname_downlevel.obj
 0002:00005988       ??_C@_1M@GACBMHKE@?$AAh?$AAu?$AA?9?$AAh?$AAu?$AA?$AA@ 0000000180060988     libucrt:lcidtoname_downlevel.obj
 0002:00005998       ??_C@_1M@MILPAJJC@?$AAh?$AAy?$AA?9?$AAa?$AAm?$AA?$AA@ 0000000180060998     libucrt:lcidtoname_downlevel.obj
 0002:000059a8       ??_C@_1M@BABBICEC@?$AAi?$AAd?$AA?9?$AAi?$AAd?$AA?$AA@ 00000001800609a8     libucrt:lcidtoname_downlevel.obj
 0002:000059b8       ??_C@_1M@BIKNHHPF@?$AAi?$AAs?$AA?9?$AAi?$AAs?$AA?$AA@ 00000001800609b8     libucrt:lcidtoname_downlevel.obj
 0002:000059c8       ??_C@_1M@NMPCJPHE@?$AAi?$AAt?$AA?9?$AAc?$AAh?$AA?$AA@ 00000001800609c8     libucrt:lcidtoname_downlevel.obj
 0002:000059d8       ??_C@_1M@GHKGFEDF@?$AAi?$AAt?$AA?9?$AAi?$AAt?$AA?$AA@ 00000001800609d8     libucrt:lcidtoname_downlevel.obj
 0002:000059e8       ??_C@_1M@NIEJCJJA@?$AAj?$AAa?$AA?9?$AAj?$AAp?$AA?$AA@ 00000001800609e8     libucrt:lcidtoname_downlevel.obj
 0002:000059f8       ??_C@_1M@JILFNBIM@?$AAk?$AAa?$AA?9?$AAg?$AAe?$AA?$AA@ 00000001800609f8     libucrt:lcidtoname_downlevel.obj
 0002:00005a08       ??_C@_1M@PACPMGPH@?$AAk?$AAk?$AA?9?$AAk?$AAz?$AA?$AA@ 0000000180060a08     libucrt:lcidtoname_downlevel.obj
 0002:00005a18       ??_C@_1M@IELFGMHA@?$AAk?$AAn?$AA?9?$AAi?$AAn?$AA?$AA@ 0000000180060a18     libucrt:lcidtoname_downlevel.obj
 0002:00005a28       ??_C@_1O@IBBJHCH@?$AAk?$AAo?$AAk?$AA?9?$AAi?$AAn?$AA?$AA@ 0000000180060a28     libucrt:lcidtoname_downlevel.obj
 0002:00005a38       ??_C@_1M@DMHAEOGC@?$AAk?$AAo?$AA?9?$AAk?$AAr?$AA?$AA@ 0000000180060a38     libucrt:lcidtoname_downlevel.obj
 0002:00005a48       ??_C@_1M@HBAHBIGA@?$AAk?$AAy?$AA?9?$AAk?$AAg?$AA?$AA@ 0000000180060a48     libucrt:lcidtoname_downlevel.obj
 0002:00005a58       ??_C@_1M@KPMILCJG@?$AAl?$AAt?$AA?9?$AAl?$AAt?$AA?$AA@ 0000000180060a58     libucrt:lcidtoname_downlevel.obj
 0002:00005a68       ??_C@_1M@BDEKKCA@?$AAl?$AAv?$AA?9?$AAl?$AAv?$AA?$AA@ 0000000180060a68     libucrt:lcidtoname_downlevel.obj
 0002:00005a78       ??_C@_1M@ELCKCCJJ@?$AAm?$AAi?$AA?9?$AAn?$AAz?$AA?$AA@ 0000000180060a78     libucrt:lcidtoname_downlevel.obj
 0002:00005a88       ??_C@_1M@CBOOLAPA@?$AAm?$AAk?$AA?9?$AAm?$AAk?$AA?$AA@ 0000000180060a88     libucrt:lcidtoname_downlevel.obj
 0002:00005a98       ??_C@_1M@GPHNBJKN@?$AAm?$AAl?$AA?9?$AAi?$AAn?$AA?$AA@ 0000000180060a98     libucrt:lcidtoname_downlevel.obj
 0002:00005aa8       ??_C@_1M@PABJILIG@?$AAm?$AAn?$AA?9?$AAm?$AAn?$AA?$AA@ 0000000180060aa8     libucrt:lcidtoname_downlevel.obj
 0002:00005ab8       ??_C@_1M@FGBKKIPG@?$AAm?$AAr?$AA?9?$AAi?$AAn?$AA?$AA@ 0000000180060ab8     libucrt:lcidtoname_downlevel.obj
 0002:00005ac8       ??_C@_1M@NDBPDDAL@?$AAm?$AAs?$AA?9?$AAb?$AAn?$AA?$AA@ 0000000180060ac8     libucrt:lcidtoname_downlevel.obj
 0002:00005ad8       ??_C@_1M@OPIHOOPI@?$AAm?$AAs?$AA?9?$AAm?$AAy?$AA?$AA@ 0000000180060ad8     libucrt:lcidtoname_downlevel.obj
 0002:00005ae8       ??_C@_1M@PPDBCNFM@?$AAm?$AAt?$AA?9?$AAm?$AAt?$AA?$AA@ 0000000180060ae8     libucrt:lcidtoname_downlevel.obj
 0002:00005af8       ??_C@_1M@KDJDKMDD@?$AAn?$AAb?$AA?9?$AAn?$AAo?$AA?$AA@ 0000000180060af8     libucrt:lcidtoname_downlevel.obj
 0002:00005b08       ??_C@_1M@KFCFLMJP@?$AAn?$AAl?$AA?9?$AAb?$AAe?$AA?$AA@ 0000000180060b08     libucrt:lcidtoname_downlevel.obj
 0002:00005b18       ??_C@_1M@KPOPDDGO@?$AAn?$AAl?$AA?9?$AAn?$AAl?$AA?$AA@ 0000000180060b18     libucrt:lcidtoname_downlevel.obj
 0002:00005b28       ??_C@_1M@LJKPEMLN@?$AAn?$AAn?$AA?9?$AAn?$AAo?$AA?$AA@ 0000000180060b28     libucrt:lcidtoname_downlevel.obj
 0002:00005b38       ??_C@_1M@BDGHHBFL@?$AAn?$AAs?$AA?9?$AAz?$AAa?$AA?$AA@ 0000000180060b38     libucrt:lcidtoname_downlevel.obj
 0002:00005b48       ??_C@_1M@IDEHOAP@?$AAp?$AAa?$AA?9?$AAi?$AAn?$AA?$AA@ 0000000180060b48     libucrt:lcidtoname_downlevel.obj
 0002:00005b58       ??_C@_1M@HDBKGOGH@?$AAp?$AAl?$AA?9?$AAp?$AAl?$AA?$AA@ 0000000180060b58     libucrt:lcidtoname_downlevel.obj
 0002:00005b68       ??_C@_1M@LJLLCMEH@?$AAp?$AAt?$AA?9?$AAb?$AAr?$AA?$AA@ 0000000180060b68     libucrt:lcidtoname_downlevel.obj
 0002:00005b78       ??_C@_1M@NCMONAAL@?$AAp?$AAt?$AA?9?$AAp?$AAt?$AA?$AA@ 0000000180060b78     libucrt:lcidtoname_downlevel.obj
 0002:00005b88       ??_C@_1O@EAKMAJDN@?$AAq?$AAu?$AAz?$AA?9?$AAb?$AAo?$AA?$AA@ 0000000180060b88     libucrt:lcidtoname_downlevel.obj
 0002:00005b98       ??_C@_1O@BHHPIGDN@?$AAq?$AAu?$AAz?$AA?9?$AAe?$AAc?$AA?$AA@ 0000000180060b98     libucrt:lcidtoname_downlevel.obj
 0002:00005ba8       ??_C@_1O@GBAPEKMJ@?$AAq?$AAu?$AAz?$AA?9?$AAp?$AAe?$AA?$AA@ 0000000180060ba8     libucrt:lcidtoname_downlevel.obj
 0002:00005bb8       ??_C@_1M@CLGLEFBO@?$AAr?$AAo?$AA?9?$AAr?$AAo?$AA?$AA@ 0000000180060bb8     libucrt:lcidtoname_downlevel.obj
 0002:00005bc8       ??_C@_1M@CEEDODME@?$AAr?$AAu?$AA?9?$AAr?$AAu?$AA?$AA@ 0000000180060bc8     libucrt:lcidtoname_downlevel.obj
 0002:00005bd8       ??_C@_1M@HPKKKMPP@?$AAs?$AAa?$AA?9?$AAi?$AAn?$AA?$AA@ 0000000180060bd8     libucrt:lcidtoname_downlevel.obj
 0002:00005be8       ??_C@_1M@BKMAIGOJ@?$AAs?$AAe?$AA?9?$AAf?$AAi?$AA?$AA@ 0000000180060be8     libucrt:lcidtoname_downlevel.obj
 0002:00005bf8       ??_C@_1M@NDPIFLFI@?$AAs?$AAe?$AA?9?$AAn?$AAo?$AA?$AA@ 0000000180060bf8     libucrt:lcidtoname_downlevel.obj
 0002:00005c08       ??_C@_1M@DANKKHJ@?$AAs?$AAe?$AA?9?$AAs?$AAe?$AA?$AA@ 0000000180060c08     libucrt:lcidtoname_downlevel.obj
 0002:00005c18       ??_C@_1M@PNBLONPJ@?$AAs?$AAk?$AA?9?$AAs?$AAk?$AA?$AA@ 0000000180060c18     libucrt:lcidtoname_downlevel.obj
 0002:00005c28       ??_C@_1M@LFMODOAL@?$AAs?$AAl?$AA?9?$AAs?$AAi?$AA?$AA@ 0000000180060c28     libucrt:lcidtoname_downlevel.obj
 0002:00005c38       ??_C@_1O@DFKOMPG@?$AAs?$AAm?$AAa?$AA?9?$AAn?$AAo?$AA?$AA@ 0000000180060c38     libucrt:lcidtoname_downlevel.obj
 0002:00005c48       ??_C@_1O@NDKPBNNH@?$AAs?$AAm?$AAa?$AA?9?$AAs?$AAe?$AA?$AA@ 0000000180060c48     libucrt:lcidtoname_downlevel.obj
 0002:00005c58       ??_C@_1O@PLLKBHAB@?$AAs?$AAm?$AAj?$AA?9?$AAn?$AAo?$AA?$AA@ 0000000180060c58     libucrt:lcidtoname_downlevel.obj
 0002:00005c68       ??_C@_1O@CLEPOGCA@?$AAs?$AAm?$AAj?$AA?9?$AAs?$AAe?$AA?$AA@ 0000000180060c68     libucrt:lcidtoname_downlevel.obj
 0002:00005c78       ??_C@_1O@DLGJGKMK@?$AAs?$AAm?$AAn?$AA?9?$AAf?$AAi?$AA?$AA@ 0000000180060c78     libucrt:lcidtoname_downlevel.obj
 0002:00005c88       ??_C@_1O@OJDJGAJC@?$AAs?$AAm?$AAs?$AA?9?$AAf?$AAi?$AA?$AA@ 0000000180060c88     libucrt:lcidtoname_downlevel.obj
 0002:00005c98       ??_C@_1M@BOFOGHPB@?$AAs?$AAq?$AA?9?$AAa?$AAl?$AA?$AA@ 0000000180060c98     libucrt:lcidtoname_downlevel.obj
 0002:00005ca8       ??_C@_1BG@LJBBIPGB@?$AAs?$AAr?$AA?9?$AAb?$AAa?$AA?9?$AAc?$AAy?$AAr?$AAl?$AA?$AA@ 0000000180060ca8     libucrt:lcidtoname_downlevel.obj
 0002:00005cc0       ??_C@_1BG@JLBENFOE@?$AAs?$AAr?$AA?9?$AAb?$AAa?$AA?9?$AAl?$AAa?$AAt?$AAn?$AA?$AA@ 0000000180060cc0     libucrt:lcidtoname_downlevel.obj
 0002:00005cd8       ??_C@_1BG@KODPNHE@?$AAs?$AAr?$AA?9?$AAs?$AAp?$AA?9?$AAc?$AAy?$AAr?$AAl?$AA?$AA@ 0000000180060cd8     libucrt:lcidtoname_downlevel.obj
 0002:00005cf0       ??_C@_1BG@CIOGKHPB@?$AAs?$AAr?$AA?9?$AAs?$AAp?$AA?9?$AAl?$AAa?$AAt?$AAn?$AA?$AA@ 0000000180060cf0     libucrt:lcidtoname_downlevel.obj
 0002:00005d08       ??_C@_1M@NGFJLMAC@?$AAs?$AAv?$AA?9?$AAf?$AAi?$AA?$AA@ 0000000180060d08     libucrt:lcidtoname_downlevel.obj
 0002:00005d18       ??_C@_1M@MPJEJAJC@?$AAs?$AAv?$AA?9?$AAs?$AAe?$AA?$AA@ 0000000180060d18     libucrt:lcidtoname_downlevel.obj
 0002:00005d28       ??_C@_1M@MPNDHLFK@?$AAs?$AAw?$AA?9?$AAk?$AAe?$AA?$AA@ 0000000180060d28     libucrt:lcidtoname_downlevel.obj
 0002:00005d38       ??_C@_1O@KOHBJJI@?$AAs?$AAy?$AAr?$AA?9?$AAs?$AAy?$AA?$AA@ 0000000180060d38     libucrt:lcidtoname_downlevel.obj
 0002:00005d48       ??_C@_1M@LDCEFHA@?$AAt?$AAa?$AA?9?$AAi?$AAn?$AA?$AA@ 0000000180060d48     libucrt:lcidtoname_downlevel.obj
 0002:00005d58       ??_C@_1M@CNJOFAK@?$AAt?$AAe?$AA?9?$AAi?$AAn?$AA?$AA@ 0000000180060d58     libucrt:lcidtoname_downlevel.obj
 0002:00005d68       ??_C@_1M@GNAECACD@?$AAt?$AAh?$AA?9?$AAt?$AAh?$AA?$AA@ 0000000180060d68     libucrt:lcidtoname_downlevel.obj
 0002:00005d78       ??_C@_1M@CHBIHOJO@?$AAt?$AAn?$AA?9?$AAz?$AAa?$AA?$AA@ 0000000180060d78     libucrt:lcidtoname_downlevel.obj
 0002:00005d88       ??_C@_1M@GCCMIGPJ@?$AAt?$AAr?$AA?9?$AAt?$AAr?$AA?$AA@ 0000000180060d88     libucrt:lcidtoname_downlevel.obj
 0002:00005d98       ??_C@_1M@CELMCNBK@?$AAt?$AAt?$AA?9?$AAr?$AAu?$AA?$AA@ 0000000180060d98     libucrt:lcidtoname_downlevel.obj
 0002:00005da8       ??_C@_1M@KLMCELGA@?$AAu?$AAk?$AA?9?$AAu?$AAa?$AA?$AA@ 0000000180060da8     libucrt:lcidtoname_downlevel.obj
 0002:00005db8       ??_C@_1M@EPAJJAJF@?$AAu?$AAr?$AA?9?$AAp?$AAk?$AA?$AA@ 0000000180060db8     libucrt:lcidtoname_downlevel.obj
 0002:00005dc8       ??_C@_1BG@GEGPMCDJ@?$AAu?$AAz?$AA?9?$AAu?$AAz?$AA?9?$AAc?$AAy?$AAr?$AAl?$AA?$AA@ 0000000180060dc8     libucrt:lcidtoname_downlevel.obj
 0002:00005de0       ??_C@_1BG@EGGKJILM@?$AAu?$AAz?$AA?9?$AAu?$AAz?$AA?9?$AAl?$AAa?$AAt?$AAn?$AA?$AA@ 0000000180060de0     libucrt:lcidtoname_downlevel.obj
 0002:00005df8       ??_C@_1M@GFOCLFF@?$AAv?$AAi?$AA?9?$AAv?$AAn?$AA?$AA@ 0000000180060df8     libucrt:lcidtoname_downlevel.obj
 0002:00005e08       ??_C@_1M@CPAMEDFI@?$AAx?$AAh?$AA?9?$AAz?$AAa?$AA?$AA@ 0000000180060e08     libucrt:lcidtoname_downlevel.obj
 0002:00005e18       ??_C@_1O@EBKIFIGN@?$AAz?$AAh?$AA?9?$AAc?$AAh?$AAs?$AA?$AA@ 0000000180060e18     libucrt:lcidtoname_downlevel.obj
 0002:00005e28       ??_C@_1O@NMHPGANE@?$AAz?$AAh?$AA?9?$AAc?$AAh?$AAt?$AA?$AA@ 0000000180060e28     libucrt:lcidtoname_downlevel.obj
 0002:00005e38       ??_C@_1M@LPINJOMC@?$AAz?$AAh?$AA?9?$AAc?$AAn?$AA?$AA@ 0000000180060e38     libucrt:lcidtoname_downlevel.obj
 0002:00005e48       ??_C@_1M@OCJEJODD@?$AAz?$AAh?$AA?9?$AAh?$AAk?$AA?$AA@ 0000000180060e48     libucrt:lcidtoname_downlevel.obj
 0002:00005e58       ??_C@_1M@DNDLJINH@?$AAz?$AAh?$AA?9?$AAm?$AAo?$AA?$AA@ 0000000180060e58     libucrt:lcidtoname_downlevel.obj
 0002:00005e68       ??_C@_1M@MBFDNDND@?$AAz?$AAh?$AA?9?$AAs?$AAg?$AA?$AA@ 0000000180060e68     libucrt:lcidtoname_downlevel.obj
 0002:00005e78       ??_C@_1M@IMEPLEPE@?$AAz?$AAh?$AA?9?$AAt?$AAw?$AA?$AA@ 0000000180060e78     libucrt:lcidtoname_downlevel.obj
 0002:00005e88       ??_C@_1M@BBGHNHJP@?$AAz?$AAu?$AA?9?$AAz?$AAa?$AA?$AA@ 0000000180060e88     libucrt:lcidtoname_downlevel.obj
 0002:00005ea0       ?large_power_data@?1??multiply_by_power_of_ten@__crt_strtox@@YA_NAEAUbig_integer@2@I@Z@4QBIB 0000000180060ea0     libucrt:cfout.obj
 0002:000067b0       ?large_power_indices@?1??multiply_by_power_of_ten@__crt_strtox@@YA_NAEAUbig_integer@2@I@Z@4QBUunpack_index@?1??12@YA_N0I@Z@B 00000001800617b0     libucrt:cfout.obj
 0002:00006848       ?small_powers_of_ten@?6??multiply_by_power_of_ten@__crt_strtox@@YA_NAEAUbig_integer@2@I@Z@4QBIB 0000000180061848     libucrt:cfout.obj
 0002:0000686c       ??_C@_01GBGANLPD@0?$AA@    000000018006186c     libucrt:cfout.obj
 0002:00006870       ??_C@_05DNEBIAHO@1?$CDINF?$AA@ 0000000180061870     libucrt:cfout.obj
 0002:00006878       ??_C@_06IMKFLFPG@1?$CDQNAN?$AA@ 0000000180061878     libucrt:cfout.obj
 0002:00006880       ??_C@_06PGGFOGJG@1?$CDSNAN?$AA@ 0000000180061880     libucrt:cfout.obj
 0002:00006888       ??_C@_05PHHOCPM@1?$CDIND?$AA@ 0000000180061888     libucrt:cfout.obj
 0002:00006ae0       ??_C@_1BA@BALFACEM@?$AAC?$AAO?$AAN?$AAO?$AAU?$AAT?$AA$?$AA?$AA@ 0000000180061ae0     libucrt:initcon.obj
 0002:00006af0       __log10_256_lead           0000000180061af0     libucrt:log10_256_lead_tail_table.obj
 0002:00007300       __log10_256_tail           0000000180062300     libucrt:log10_256_lead_tail_table.obj
 0002:00007b10       __log_F_inv_qword          0000000180062b10     libucrt:log_f_inv_qword_table.obj
 0002:00008320       ??_C@_03MGHMBJCF@log?$AA@  0000000180063320     libucrt:log_special.obj
 0002:00008324       ??_C@_05HGHHAHAP@log10?$AA@ 0000000180063324     libucrt:log_special.obj
 0002:00008340       ??_C@_03KHJOGHMM@exp?$AA@  0000000180063340     libucrt:fpexcept.obj
 0002:00008344       ??_C@_03JGHBODFD@pow?$AA@  0000000180063344     libucrt:fpexcept.obj
 0002:00008348       ??_C@_04EIAKFFMI@sqrt?$AA@ 0000000180063348     libucrt:fpexcept.obj
 0002:00008350       ??_C@_03LALBNOCG@cos?$AA@  0000000180063350     libucrt:fpexcept.obj
 0002:00008358       ??_C@_1BK@DBDEIDLH@?$AAK?$AAE?$AAR?$AAN?$AAE?$AAL?$AA3?$AA2?$AA?4?$AAD?$AAL?$AAL?$AA?$AA@ 0000000180063358     DelayImp:delayhlp.obj
 0002:00008378       ??_C@_0BI@OMNLIJDB@AcquireSRWLockExclusive?$AA@ 0000000180063378     DelayImp:delayhlp.obj
 0002:00008390       ??_C@_0BI@HMIEPCNJ@ReleaseSRWLockExclusive?$AA@ 0000000180063390     DelayImp:delayhlp.obj
 0002:000083b0       _load_config_used          00000001800633b0     LIBCMT:loadcfg.obj
 0002:00008450       ??_C@_1IO@MIPEHICO@?$AAC?$AA?3?$AA?2?$AAU?$AAs?$AAe?$AAr?$AAs?$AA?2?$AAA?$AAn?$AAd?$AAr?$AAe?$AAw?$AA?5?$AAT?$AAo?$AAo?$AAm?$AAe?$AAy?$AA?2?$AA?4?$AAn?$AAo?$AAd?$AAe?$AA?9?$AAg?$AAy?$AAp@ 0000000180063450     node-opus.obj
 0002:000084e0       ??_C@_1DG@OKCGPKIB@?$AAp?$AAe?$AAr?$AAs?$AAi?$AAs?$AAt?$AAe?$AAn?$AAt?$AA?$CI?$AA?$CJ?$AA?4?$AAI?$AAs?$AAN?$AAe?$AAa?$AAr?$AAD?$AAe?$AAa?$AAt?$AAh?$AA?$CI?$AA?$CJ?$AA?$AA@ 00000001800634e0     node-opus.obj
 0002:00008518       ??_C@_1CO@EGNPJLKI@?$AAp?$AAe?$AAr?$AAs?$AAi?$AAs?$AAt?$AAe?$AAn?$AAt?$AA?$CI?$AA?$CJ?$AA?4?$AAI?$AAs?$AAE?$AAm?$AAp?$AAt?$AAy?$AA?$CI?$AA?$CJ?$AA?$AA@ 0000000180063518     node-opus.obj
 0002:00008550       ??_C@_1EC@NOLNIHNJ@?$AAh?$AAa?$AAn?$AAd?$AAl?$AAe?$AA?9?$AA?$DO?$AAI?$AAn?$AAt?$AAe?$AAr?$AAn?$AAa?$AAl?$AAF?$AAi?$AAe?$AAl?$AAd?$AAC?$AAo?$AAu?$AAn?$AAt?$AA?$CI?$AA?$CJ?$AA?5?$AA?$DO?$AA?5?$AA0@ 0000000180063550     node-opus.obj
 0002:00008598       ??_C@_1DA@FBGAEOIO@?$AA?$CB?$AAp?$AAe?$AAr?$AAs?$AAi?$AAs?$AAt?$AAe?$AAn?$AAt?$AA?$CI?$AA?$CJ?$AA?4?$AAI?$AAs?$AAE?$AAm?$AAp?$AAt?$AAy?$AA?$CI?$AA?$CJ?$AA?$AA@ 0000000180063598     node-opus.obj
 0002:000085c8       ??_C@_1CO@JCKLEFMA@?$AA?$CB?$AAp?$AAe?$AAr?$AAs?$AAi?$AAs?$AAt?$AAe?$AAn?$AAt?$AA?$CI?$AA?$CJ?$AA?4?$AAI?$AAs?$AAW?$AAe?$AAa?$AAk?$AA?$CI?$AA?$CJ?$AA?$AA@ 00000001800635c8     node-opus.obj
 0002:000085f8       ??_C@_1BE@GMLLOIPJ@?$AAr?$AAe?$AAf?$AAs?$AA_?$AA?5?$AA?$DO?$AA?5?$AA0?$AA?$AA@ 00000001800635f8     node-opus.obj
 0002:00008610       ??_C@_1CC@GBFLAAPF@?$AAw?$AAr?$AAa?$AAp?$AA?9?$AA?$DO?$AAr?$AAe?$AAf?$AAs?$AA_?$AA?5?$AA?$DN?$AA?$DN?$AA?5?$AA0?$AA?$AA@ 0000000180063610     node-opus.obj
 0002:00008640       ??_C@_1FO@GJAEAAFC@?$AAC?$AA?3?$AA?2?$AAP?$AAr?$AAo?$AAg?$AAr?$AAa?$AAm?$AA?5?$AAF?$AAi?$AAl?$AAe?$AAs?$AA?2?$AAn?$AAo?$AAd?$AAe?$AAj?$AAs?$AA?2?$AAn?$AAo?$AAd?$AAe?$AA_?$AAm?$AAo?$AAd@ 0000000180063640     node-opus.obj
 0002:000086a0       ??_C@_1FM@LOELJOFK@?$AAs?$AAi?$AAz?$AAe?$AA?5?$AA?$DM?$AA?$DN?$AA?5?$AAi?$AAm?$AAp?$AA?3?$AA?3?$AAk?$AAM?$AAa?$AAx?$AAL?$AAe?$AAn?$AAg?$AAt?$AAh?$AA?5?$AA?$CG?$AA?$CG?$AA?5?$AA?$CC?$AAt?$AAo?$AAo?$AA?5@ 00000001800636a0     node-opus.obj
 0002:00008700       ??_C@_0CL@MOOICKOK@One?5or?5more?5invalid?1out?5of?5range@ 0000000180063700     node-opus.obj
 0002:00008730       ??_C@_0CC@BLOLJIM@The?5mode?5struct?5passed?5is?5invali@ 0000000180063730     node-opus.obj
 0002:00008758       ??_C@_0BP@CCEAAPOK@An?5internal?5error?5was?5detected?$AA@ 0000000180063758     node-opus.obj
 0002:00008778       ??_C@_0CI@HGOHBHDG@The?5compressed?5data?5passed?5is?5co@ 0000000180063778     node-opus.obj
 0002:000087a0       ??_C@_0CE@EPMHMMFA@Invalid?1unsupported?5request?5numb@ 00000001800637a0     node-opus.obj
 0002:000087c8       ??_C@_0DN@FLMECJKC@An?5encoder?5or?5decoder?5structure?5@ 00000001800637c8     node-opus.obj
 0002:00008808       ??_C@_0BN@CEEKAODG@Memory?5allocation?5has?5failed?$AA@ 0000000180063808     node-opus.obj
 0002:00008828       ??_C@_0BD@IFKHGMNN@Unknown?5OPUS?5error?$AA@ 0000000180063828     node-opus.obj
 0002:00008840       ??_C@_0DH@OKCBBHIL@Could?5not?5create?5encoder?4?5Check?5@ 0000000180063840     node-opus.obj
 0002:00008878       ??_C@_0BN@MDMCOIHO@Argument?50?5must?5be?5an?5object?$AA@ 0000000180063878     node-opus.obj
 0002:00008898       ??_C@_0DH@MLFLILEB@Could?5not?5create?5decoder?4?5Check?5@ 0000000180063898     node-opus.obj
 0002:000088d0       ??_C@_0BA@IFFBNICN@Invalid?5bitrate?$AA@ 00000001800638d0     node-opus.obj
 0002:000088e0       ??_C@_0DD@PKGHFLHJ@Use?5the?5new?5operator?5to?5construc@ 00000001800638e0     node-opus.obj
 0002:00008918       ??_C@_0M@CJBGOGJM@OpusEncoder?$AA@ 0000000180063918     node-opus.obj
 0002:00008924       ??_C@_06GDGADLDP@encode?$AA@ 0000000180063924     node-opus.obj
 0002:0000892c       ??_C@_06KPNAMAEI@decode?$AA@ 000000018006392c     node-opus.obj
 0002:00008938       ??_C@_0L@MHOGNINK@setBitrate?$AA@ 0000000180063938     node-opus.obj
 0002:00008948       ??_C@_0L@NJMJGPJD@getBitrate?$AA@ 0000000180063948     node-opus.obj
 0002:00008958       ??_C@_0BE@LGGJKHOF@?4?4?2src?2node?9opus?4cc?$AA@ 0000000180063958     node-opus.obj
 0002:00008970       ??_C@_09GADFKJA@node_opus?$AA@ 0000000180063970     node-opus.obj
 0002:00008980       ??_C@_1CE@IAEMMFJ@?$AA?$CB?$AAh?$AAa?$AAn?$AAd?$AAl?$AAe?$AA?4?$AAI?$AAs?$AAE?$AAm?$AAp?$AAt?$AAy?$AA?$CI?$AA?$CJ?$AA?$AA@ 0000000180063980     node-opus.obj
 0002:000089a8       ??_7ObjectWrap@node@@6B@   00000001800639a8     node-opus.obj
 0002:000089c0       ??_7OpusEncoder@@6B@       00000001800639c0     node-opus.obj
 0002:000089d8       ??_C@_08HCOMDCCD@iojs?4exe?$AA@ 00000001800639d8     win_delay_load_hook.obj
 0002:000089e8       ??_C@_08JDDNMFDB@node?4exe?$AA@ 00000001800639e8     win_delay_load_hook.obj
 0002:00009168       silk_uniform6_iCDF         0000000180064168     libopus:tables_other.obj
 0002:000091c4       silk_uniform4_iCDF         00000001800641c4     libopus:tables_other.obj
 0002:000091d8       silk_uniform8_iCDF         00000001800641d8     libopus:tables_other.obj
 0002:00009270       silk_LBRR_flags_iCDF_ptr   0000000180064270     libopus:tables_other.obj
 0002:00009280       silk_type_offset_VAD_iCDF  0000000180064280     libopus:tables_other.obj
 0002:00009284       silk_type_offset_no_VAD_iCDF 0000000180064284     libopus:tables_other.obj
 0002:00009288       silk_NLSF_interpolation_factor_iCDF 0000000180064288     libopus:tables_other.obj
 0002:00009290       silk_LTPscale_iCDF         0000000180064290     libopus:tables_other.obj
 0002:00009294       silk_NLSF_EXT_iCDF         0000000180064294     libopus:tables_other.obj
 0002:0000929c       silk_uniform5_iCDF         000000018006429c     libopus:tables_other.obj
 0002:000092a4       silk_uniform3_iCDF         00000001800642a4     libopus:tables_other.obj
 0002:000092a8       silk_stereo_pred_joint_iCDF 00000001800642a8     libopus:tables_other.obj
 0002:000092c4       silk_stereo_only_code_mid_iCDF 00000001800642c4     libopus:tables_other.obj
 0002:000092c8       silk_lsb_iCDF              00000001800642c8     libopus:tables_other.obj
 0002:000092d0       silk_Quantization_Offsets_Q10 00000001800642d0     libopus:tables_other.obj
 0002:000092e0       silk_Transition_LP_A_Q28   00000001800642e0     libopus:tables_other.obj
 0002:00009308       silk_LTPScales_table_Q14   0000000180064308     libopus:tables_other.obj
 0002:00009310       silk_Transition_LP_B_Q28   0000000180064310     libopus:tables_other.obj
 0002:00009350       silk_TargetRate_table_WB   0000000180064350     libopus:tables_other.obj
 0002:00009370       silk_SNR_table_Q1          0000000180064370     libopus:tables_other.obj
 0002:00009380       silk_TargetRate_table_NB   0000000180064380     libopus:tables_other.obj
 0002:000093a0       silk_TargetRate_table_MB   00000001800643a0     libopus:tables_other.obj
 0002:000093c0       silk_stereo_pred_quant_Q13 00000001800643c0     libopus:tables_other.obj
 0002:00009750       net                        0000000180064750     libopus:mlp_data.obj
 0002:00009e40       tf_select_table            0000000180064e40     libopus:celt.obj
 0002:00009ea0       eMeans                     0000000180064ea0     libopus:quant_bands.obj
 0002:00009f04       silk_pitch_contour_10_ms_NB_iCDF 0000000180064f04     libopus:tables_pitch_lag.obj
 0002:0000a138       silk_pitch_contour_iCDF    0000000180065138     libopus:tables_pitch_lag.obj
 0002:0000a188       silk_pitch_delta_iCDF      0000000180065188     libopus:tables_pitch_lag.obj
 0002:0000a294       silk_LTP_per_index_iCDF    0000000180065294     libopus:tables_LTP.obj
 0002:0000a298       silk_pitch_lag_iCDF        0000000180065298     libopus:tables_pitch_lag.obj
 0002:0000c368       silk_LTP_gain_middle_avg_RD_Q14 0000000180067368     libopus:tables_LTP.obj
 0002:0000c448       silk_pitch_contour_NB_iCDF 0000000180067448     libopus:tables_pitch_lag.obj
 0002:0000c458       silk_pitch_contour_10_ms_iCDF 0000000180067458     libopus:tables_pitch_lag.obj
 0002:0000c464       silk_LTP_vq_sizes          0000000180067464     libopus:tables_LTP.obj
 0002:0000d8a8       silk_gain_iCDF             00000001800688a8     libopus:tables_gain.obj
 0002:0000d908       silk_max_pulses_table      0000000180068908     libopus:tables_pulses_per_block.obj
 0002:0000dd18       silk_rate_levels_iCDF      0000000180068d18     libopus:tables_pulses_per_block.obj
 0002:0000dd40       silk_NLSF_CB_NB_MB         0000000180068d40     libopus:tables_NLSF_CB_NB_MB.obj
 0002:0000ddc8       silk_shell_code_table_offsets 0000000180068dc8     libopus:tables_pulses_per_block.obj
 0002:0000e050       silk_NLSF_CB_WB            0000000180069050     libopus:tables_NLSF_CB_WB.obj
 0002:0000e368       silk_Resampler_2_3_COEFS   0000000180069368     libopus:resampler_rom.obj
 0002:0000e4d0       silk_LTP_gain_iCDF_ptrs    00000001800694d0     libopus:tables_LTP.obj
 0002:0000e4e8       silk_Resampler_1_6_COEFS   00000001800694e8     libopus:resampler_rom.obj
 0002:0000e5b0       silk_LTP_gain_BITS_Q5_ptrs 00000001800695b0     libopus:tables_LTP.obj
 0002:0000e5c8       silk_Resampler_1_4_COEFS   00000001800695c8     libopus:resampler_rom.obj
 0002:0000e5f0       silk_LTP_vq_gain_ptrs_Q7   00000001800695f0     libopus:tables_LTP.obj
 0002:0000e608       silk_Resampler_1_3_COEFS   0000000180069608     libopus:resampler_rom.obj
 0002:0000e680       silk_LTP_vq_ptrs_Q7        0000000180069680     libopus:tables_LTP.obj
 0002:0000e6c8       silk_delta_gain_iCDF       00000001800696c8     libopus:tables_gain.obj
 0002:0000e6f8       silk_Resampler_3_4_COEFS   00000001800696f8     libopus:resampler_rom.obj
 0002:0000e738       silk_Resampler_1_2_COEFS   0000000180069738     libopus:resampler_rom.obj
 0002:0000e760       silk_pulses_per_block_iCDF 0000000180069760     libopus:tables_pulses_per_block.obj
 0002:0000e820       silk_rate_levels_BITS_Q5   0000000180069820     libopus:tables_pulses_per_block.obj
 0002:0000e838       silk_Resampler_2_3_COEFS_LQ 0000000180069838     libopus:resampler_rom.obj
 0002:0000e860       silk_pulses_per_block_BITS_Q5 0000000180069860     libopus:tables_pulses_per_block.obj
 0002:0000e920       silk_shell_code_table3     0000000180069920     libopus:tables_pulses_per_block.obj
 0002:0000e9d0       silk_shell_code_table0     00000001800699d0     libopus:tables_pulses_per_block.obj
 0002:0000ea68       silk_nb_cbk_searchs_stage3 0000000180069a68     libopus:pitch_est_tables.obj
 0002:0000ea70       silk_sign_iCDF             0000000180069a70     libopus:tables_pulses_per_block.obj
 0002:0000eaa0       silk_shell_code_table2     0000000180069aa0     libopus:tables_pulses_per_block.obj
 0002:0000eb38       silk_CB_lags_stage2_10_ms  0000000180069b38     libopus:pitch_est_tables.obj
 0002:0000eb40       silk_shell_code_table1     0000000180069b40     libopus:tables_pulses_per_block.obj
 0002:0000ebd8       silk_Lag_range_stage3_10_ms 0000000180069bd8     libopus:pitch_est_tables.obj
 0002:0000ebe0       silk_resampler_frac_FIR_12 0000000180069be0     libopus:resampler_rom.obj
 0002:000100c0       silk_CB_lags_stage3_10_ms  000000018006b0c0     libopus:pitch_est_tables.obj
 0002:000100e0       silk_CB_lags_stage2        000000018006b0e0     libopus:pitch_est_tables.obj
 0002:00010110       silk_CB_lags_stage3        000000018006b110     libopus:pitch_est_tables.obj
 0002:000101a0       silk_Lag_range_stage3      000000018006b1a0     libopus:pitch_est_tables.obj
 0002:000101c0       silk_LSFCosTab_FIX_Q12     000000018006b1c0     libopus:table_LSF_cos.obj
 0002:000102c8       ??_C@_07IPNMCAN@success?$AA@ 000000018006b2c8     libopus:celt.obj
 0002:000102d0       ??_C@_0BB@FCMFBGOM@invalid?5argument?$AA@ 000000018006b2d0     libopus:celt.obj
 0002:000102e8       ??_C@_0BB@CABJKBPN@buffer?5too?5small?$AA@ 000000018006b2e8     libopus:celt.obj
 0002:00010300       ??_C@_0P@LPIEGNHB@internal?5error?$AA@ 000000018006b300     libopus:celt.obj
 0002:00010310       ??_C@_0BB@FNNNGDHK@corrupted?5stream?$AA@ 000000018006b310     libopus:celt.obj
 0002:00010328       ??_C@_0BI@FOBNHMGK@request?5not?5implemented?$AA@ 000000018006b328     libopus:celt.obj
 0002:00010340       ??_C@_0O@ELPMPPOH@invalid?5state?$AA@ 000000018006b340     libopus:celt.obj
 0002:00010350       ??_C@_0BJ@FDBIHNP@memory?5allocation?5failed?$AA@ 000000018006b350     libopus:celt.obj
 0002:00010370       ??_C@_0O@BFJCFAAK@unknown?5error?$AA@ 000000018006b370     libopus:celt.obj
 0002:00010380       ??_C@_0BC@BKPNIMPC@libopus?5v1?41?9beta?$AA@ 000000018006b380     libopus:celt.obj
 0002:00010394       __real@0da24260            000000018006b394     libopus:celt_decoder.obj
 0002:00010398       __real@129e74d2            000000018006b398     libopus:bands.obj
 0002:0001039c       __real@1e3ce508            000000018006b39c     libopus:analysis.obj
 0002:000103a0       __real@26901d7d            000000018006b3a0     libopus:bands.obj
 0002:000103a4       __real@2b8cbccc            000000018006b3a4     libopus:levinsondurbin_FLP.obj
 0002:000103a8       __real@2edbe6ff            000000018006b3a8     libopus:analysis.obj
 0002:000103ac       __real@3089705f            000000018006b3ac     libopus:schur_FLP.obj
 0002:000103b0       __real@31800000            000000018006b3b0     libopus:opus_encoder.obj
 0002:000103b4       __real@322bcc77            000000018006b3b4     libopus:residual_energy_FLP.obj
 0002:000103b8       __real@358637bd            000000018006b3b8     libopus:find_LTP_FLP.obj
 0002:000103bc       __real@36500998            000000018006b3bc     libopus:celt_encoder.obj
 0002:000103c0       __real@36a7c5ac            000000018006b3c0     libopus:solve_LS_FLP.obj
 0002:000103c4       __real@37800000            000000018006b3c4     libopus:opus_encoder.obj
 0002:000103c8       __real@38000000            000000018006b3c8     libopus:celt_encoder.obj
 0002:000103cc       __real@3851b717            000000018006b3cc     libopus:noise_shape_analysis_FLP.obj
 0002:000103d0       __real@38800000            000000018006b3d0     libopus:LTP_scale_ctrl_FLP.obj
 0002:000103d4       __real@38d1b717            000000018006b3d4     libopus:celt_encoder.obj
 0002:000103d8       __real@39800000            000000018006b3d8     libopus:pitch_analysis_core_FLP.obj
 0002:000103dc       __real@3a156c0d            000000018006b3dc     libopus:analysis.obj
 0002:000103e0       __real@3a1d4952            000000018006b3e0     libopus:bands.obj
 0002:000103e4       __real@3a2a152d            000000018006b3e4     libopus:opus_decoder.obj
 0002:000103e8       __real@3a51b717            000000018006b3e8     libopus:opus_encoder.obj
 0002:000103ec       __real@3a800000            000000018006b3ec     libopus:process_gains_FLP.obj
 0002:000103f0       __real@3a83126f            000000018006b3f0     libopus:celt_lpc.obj
 0002:000103f4       __real@3b800000            000000018006b3f4     libopus:noise_shape_analysis_FLP.obj
 0002:000103f8       __real@3b83126f            000000018006b3f8     libopus:find_pitch_lags_FLP.obj
 0002:000103fc       __real@3bcb295f            000000018006b3fc     libopus:celt_encoder.obj
 0002:00010400       __real@3be21965            000000018006b400     libopus:celt_encoder.obj
 0002:00010404       __real@3c000000            000000018006b404     libopus:noise_shape_analysis_FLP.obj
 0002:00010408       __real@3c23d70a            000000018006b408     libopus:noise_shape_analysis_FLP.obj
 0002:0001040c       __real@3c75c28f            000000018006b40c     libopus:analysis.obj
 0002:00010410       __real@3c800000            000000018006b410     libopus:bands.obj
 0002:00010414       __real@3c888889            000000018006b414     libopus:find_LTP_FLP.obj
 0002:00010418       __real@3ca3d70a            000000018006b418     libopus:celt_encoder.obj
 0002:00010420       __real@3cd203af9ee75616    000000018006b420     libopus:analysis.obj
 0002:00010428       __real@3cf5c28f            000000018006b428     libopus:analysis.obj
 0002:0001042c       __real@3cfdf3b6            000000018006b42c     libopus:celt_encoder.obj
 0002:00010430       __real@3d23d70a            000000018006b430     libopus:mlp.obj
 0002:00010434       __real@3d4ccccd            000000018006b434     libopus:opus_encoder.obj
 0002:00010438       __real@3d800000            000000018006b438     libopus:celt_encoder.obj
 0002:0001043c       __real@3db00965            000000018006b43c     libopus:analysis.obj
 0002:00010440       __real@3db851ec            000000018006b440     libopus:celt_encoder.obj
 0002:00010444       __real@3dc00000            000000018006b444     libopus:celt_encoder.obj
 0002:00010448       __real@3dcccccd            000000018006b448     libopus:LTP_scale_ctrl_FLP.obj
 0002:0001044c       __real@3dfbe22e            000000018006b44c     libopus:analysis.obj
 0002:00010450       __real@3e000000            000000018006b450     libopus:celt_encoder.obj
 0002:00010458       __real@3e112e0be0000000    000000018006b458     libopus:burg_modified_FLP.obj
 0002:00010460       __real@3e124925            000000018006b460     libopus:opus_encoder.obj
 0002:00010464       __real@3e199800            000000018006b464     libopus:quant_bands.obj
 0002:00010468       __real@3e19999a            000000018006b468     libopus:celt_encoder.obj
 0002:0001046c       __real@3e22f983            000000018006b46c     libopus:analysis.obj
 0002:00010470       __real@3e4ccccd            000000018006b470     libopus:celt_encoder.obj
 0002:00010474       __real@3e6b851f            000000018006b474     libopus:analysis.obj
 0002:00010478       __real@3e800000            000000018006b478     libopus:prefilter_FLP.obj
 0002:0001047c       __real@3e866666            000000018006b47c     libopus:noise_shape_analysis_FLP.obj
 0002:00010480       __real@3e88d64d            000000018006b480     libopus:analysis.obj
 0002:00010484       __real@3e99999a            000000018006b484     libopus:pitch.obj
 0002:00010488       __real@3ea1e8e6            000000018006b488     libopus:analysis.obj
 0002:0001048c       __real@3ea8f5c3            000000018006b48c     libopus:process_gains_FLP.obj
 0002:00010490       __real@3ecccccd            000000018006b490     libopus:celt_encoder.obj
 0002:00010494       __real@3edcf805            000000018006b494     libopus:analysis.obj
 0002:00010498       __real@3ee4f8b580000000    000000018006b498     libopus:burg_modified_FLP.obj
 0002:000104a0       __real@3efbe0df            000000018006b4a0     libopus:analysis.obj
 0002:000104a4       __real@3efffe00            000000018006b4a4     libopus:prefilter_FLP.obj
 0002:000104a8       __real@3f000000            000000018006b4a8     libopus:apply_sine_window_FLP.obj
 0002:000104ac       __real@3f08d64d            000000018006b4ac     libopus:analysis.obj
 0002:000104b0       __real@3f0ccccd            000000018006b4b0     libopus:celt_encoder.obj
 0002:000104b4       __real@3f19999a            000000018006b4b4     libopus:noise_shape_analysis_FLP.obj
 0002:000104b8       __real@3f21e8e6            000000018006b4b8     libopus:analysis.obj
 0002:000104bc       __real@3f27f62a            000000018006b4bc     libopus:pitch.obj
 0002:000104c0       __real@3f2b851f            000000018006b4c0     libopus:celt_encoder.obj
 0002:000104c4       __real@3f2db121            000000018006b4c4     libopus:analysis.obj
 0002:000104c8       __real@3f326a01            000000018006b4c8     libopus:analysis.obj
 0002:000104cc       __real@3f333333            000000018006b4cc     libopus:pitch.obj
 0002:000104d0       __real@3f3504f3            000000018006b4d0     libopus:bands.obj
 0002:000104d4       __real@3f3504f7            000000018006b4d4     libopus:celt_encoder.obj
 0002:000104d8       __real@3f3a9fbd            000000018006b4d8     libopus:pitch.obj
 0002:000104dc       __real@3f400000            000000018006b4dc     libopus:celt_encoder.obj
 0002:000104e0       __real@3f4ccccd            000000018006b4e0     libopus:celt_encoder.obj
 0002:000104e4       __real@3f4f5c28            000000018006b4e4     libopus:pitch.obj
 0002:000104e8       __real@3f50624dd2f1a9fc    000000018006b4e8     libopus:pitch_analysis_core_FLP.obj
 0002:000104f0       __real@3f59999a            000000018006b4f0     libopus:pitch.obj
 0002:000104f4       __real@3f5b6db7            000000018006b4f4     libopus:opus_encoder.obj
 0002:000104f8       __real@3f666666            000000018006b4f8     libopus:pitch.obj
 0002:000104fc       __real@3f733333            000000018006b4fc     libopus:noise_shape_analysis_FLP.obj
 0002:00010500       __real@3f7d70a4            000000018006b500     libopus:noise_shape_analysis_FLP.obj
 0002:00010504       __real@3f800000            000000018006b504     libopus:residual_energy_FLP.obj
 0002:00010508       __real@3f800347            000000018006b508     libopus:pitch.obj
 0002:0001050c       __real@3f8020c5            000000018006b50c     libopus:celt_encoder.obj
 0002:00010510       __real@3f866666            000000018006b510     libopus:noise_shape_analysis_FLP.obj
 0002:00010514       __real@3f99999a            000000018006b514     libopus:process_gains_FLP.obj
 0002:00010518       __real@3f9ae148            000000018006b518     libopus:analysis.obj
 0002:0001051c       __real@3fa66666            000000018006b51c     libopus:noise_shape_analysis_FLP.obj
 0002:00010520       __real@3fb504f3            000000018006b520     libopus:bands.obj
 0002:00010524       __real@3fb7aace            000000018006b524     libopus:analysis.obj
 0002:00010528       __real@3fb999999999999a    000000018006b528     libopus:analysis.obj
 0002:00010530       __real@3fc00000            000000018006b530     libopus:celt_encoder.obj
 0002:00010538       __real@3fc1cac083126e98    000000018006b538     libopus:celt_encoder.obj
 0002:00010540       __real@3fc90fdb            000000018006b540     libopus:analysis.obj
 0002:00010548       __real@3fd3333333333333    000000018006b548     libopus:celt_encoder.obj
 0002:00010550       __real@3fd47ae140000000    000000018006b550     libopus:noise_shape_analysis_FLP.obj
 0002:00010558       __real@3fd999999999999a    000000018006b558     libopus:celt_encoder.obj
 0002:00010560       __real@3fe0000000000000    000000018006b560     libopus:celt_encoder.obj
 0002:00010568       __real@3fe62e42fefa39ef    000000018006b568     libopus:bands.obj
 0002:00010570       __real@3fe947ae147ae148    000000018006b570     libopus:celt_encoder.obj
 0002:00010578       __real@3feccccccccccccd    000000018006b578     libopus:analysis.obj
 0002:00010580       __real@3fefff2e40000000    000000018006b580     libopus:LPC_inv_pred_gain_FLP.obj
 0002:00010588       __real@3ff0000000000000    000000018006b588     libopus:solve_LS_FLP.obj
 0002:00010590       __real@3ff428f5c28f5c29    000000018006b590     libopus:celt_encoder.obj
 0002:00010598       __real@3ff71547652b82fe    000000018006b598     libopus:quant_bands.obj
 0002:000105a0       __real@40000000            000000018006b5a0     libopus:LTP_scale_ctrl_FLP.obj
 0002:000105a8       __real@4000000000000000    000000018006b5a8     libopus:noise_shape_analysis_FLP.obj
 0002:000105b0       __real@400a934f0979a36c    000000018006b5b0     libopus:find_LTP_FLP.obj
 0002:000105b8       __real@4024000000000000    000000018006b5b8     libopus:analysis.obj
 0002:000105c0       __real@40400000            000000018006b5c0     libopus:noise_shape_analysis_FLP.obj
 0002:000105c4       __real@40490fdb            000000018006b5c4     libopus:apply_sine_window_FLP.obj
 0002:000105c8       __real@405fc00000000000    000000018006b5c8     libopus:celt_encoder.obj
 0002:000105d0       __real@407fef9e            000000018006b5d0     libopus:noise_shape_analysis_FLP.obj
 0002:000105d4       __real@40800000            000000018006b5d4     libopus:noise_shape_analysis_FLP.obj
 0002:000105d8       __real@40a00000            000000018006b5d8     libopus:celt_encoder.obj
 0002:000105dc       __real@40c00000            000000018006b5dc     libopus:celt_encoder.obj
 0002:000105e0       __real@40c45f30e0000000    000000018006b5e0     libopus:vq.obj
 0002:000105e8       __real@41000000            000000018006b5e8     libopus:mlp.obj
 0002:000105f0       __real@4103880000000000    000000018006b5f0     libopus:pitch_analysis_core_FLP.obj
 0002:000105f8       __real@41100000            000000018006b5f8     libopus:analysis.obj
 0002:000105fc       __real@41400000            000000018006b5fc     libopus:opus_encoder.obj
 0002:00010600       __real@41800000            000000018006b600     libopus:quant_bands.obj
 0002:00010604       __real@41900000            000000018006b604     libopus:analysis.obj
 0002:00010608       __real@41a00000            000000018006b608     libopus:opus_encoder.obj
 0002:0001060c       __real@41a80000            000000018006b60c     libopus:process_gains_FLP.obj
 0002:00010610       __real@41c80000            000000018006b610     libopus:mlp.obj
 0002:00010614       __real@41f00000            000000018006b614     libopus:analysis.obj
 0002:00010618       __real@42000000            000000018006b618     libopus:celt_encoder.obj
 0002:0001061c       __real@42280000            000000018006b61c     libopus:celt_encoder.obj
 0002:00010620       __real@42800000            000000018006b620     libopus:celt_encoder.obj
 0002:00010624       __real@42a00000            000000018006b624     libopus:opus_encoder.obj
 0002:00010628       __real@42c80000            000000018006b628     libopus:opus_encoder.obj
 0002:0001062c       __real@43230000            000000018006b62c     libopus:celt_encoder.obj
 0002:00010630       __real@43480000            000000018006b630     libopus:quant_bands.obj
 0002:00010634       __real@44800000            000000018006b634     libopus:wrappers_FLP.obj
 0002:00010638       __real@45800000            000000018006b638     libopus:wrappers_FLP.obj
 0002:0001063c       __real@46000000            000000018006b63c     libopus:wrappers_FLP.obj
 0002:00010640       __real@461c4000            000000018006b640     libopus:find_pred_coefs_FLP.obj
 0002:00010644       __real@467a0000            000000018006b644     libopus:opus_encoder.obj
 0002:00010648       __real@46800000            000000018006b648     libopus:wrappers_FLP.obj
 0002:0001064c       __real@46fffe00            000000018006b64c     libopus:opus_decoder.obj
 0002:00010650       __real@47000000            000000018006b650     libopus:celt_encoder.obj
 0002:00010654       __real@470ca000            000000018006b654     libopus:opus_encoder.obj
 0002:00010658       __real@477385d1            000000018006b658     libopus:analysis.obj
 0002:0001065c       __real@477a0000            000000018006b65c     libopus:opus_encoder.obj
 0002:00010660       __real@47800000            000000018006b660     libopus:celt_encoder.obj
 0002:00010664       __real@48800000            000000018006b664     libopus:wrappers_FLP.obj
 0002:00010668       __real@4e6e6b28            000000018006b668     libopus:analysis.obj
 0002:0001066c       __real@5368d4a5            000000018006b66c     libopus:analysis.obj
 0002:00010670       __real@7f7fffff            000000018006b670     libopus:find_LPC_FLP.obj
 0002:00010674       __real@b7800000            000000018006b674     libopus:opus_encoder.obj
 0002:00010678       __real@bb800000            000000018006b678     libopus:bands.obj
 0002:0001067c       __real@bcfdf3b6            000000018006b67c     libopus:celt_encoder.obj
 0002:00010680       __real@bdcccccd            000000018006b680     libopus:celt_encoder.obj
 0002:00010684       __real@be000000            000000018006b684     libopus:bands.obj
 0002:00010688       __real@be23d70a            000000018006b688     libopus:noise_shape_analysis_FLP.obj
 0002:0001068c       __real@be4ccccd            000000018006b68c     libopus:analysis.obj
 0002:00010690       __real@be800000            000000018006b690     libopus:celt_encoder.obj
 0002:00010694       __real@becccccd            000000018006b694     libopus:noise_shape_analysis_FLP.obj
 0002:00010698       __real@bf000000            000000018006b698     libopus:opus_encoder.obj
 0002:0001069c       __real@bf800000            000000018006b69c     libopus:pitch.obj
 0002:000106a0       __real@bf99999a            000000018006b6a0     libopus:celt_encoder.obj
 0002:000106a4       __real@bfc00000            000000018006b6a4     libopus:celt_encoder.obj
 0002:000106a8       __real@bfc90fdb            000000018006b6a8     libopus:analysis.obj
 0002:000106b0       __real@bfefff2e40000000    000000018006b6b0     libopus:LPC_inv_pred_gain_FLP.obj
 0002:000106b8       __real@c0000000            000000018006b6b8     libopus:opus.obj
 0002:000106c0       __real@c000000000000000    000000018006b6c0     libopus:burg_modified_FLP.obj
 0002:000106c8       __real@c0800000            000000018006b6c8     libopus:celt_encoder.obj
 0002:000106cc       __real@c1000000            000000018006b6cc     libopus:mlp.obj
 0002:000106d0       __real@c1100000            000000018006b6d0     libopus:quant_bands.obj
 0002:000106d4       __real@c1200000            000000018006b6d4     libopus:celt_encoder.obj
 0002:000106d8       __real@c1e00000            000000018006b6d8     libopus:quant_bands.obj
 0002:000106dc       __real@c1ff3333            000000018006b6dc     libopus:celt_encoder.obj
 0002:000106e0       __real@c47a0000            000000018006b6e0     libopus:pitch_analysis_core_FLP.obj
 0002:000106e4       __real@c7000000            000000018006b6e4     libopus:opus_decoder.obj
 0002:000106e8       __real@c7800000            000000018006b6e8     libopus:celt_encoder.obj
 0002:000106ec       __real@d8635fa9            000000018006b6ec     libopus:vq.obj
 0002:000106f0       __xmm@00000001000000010000000100000001 000000018006b6f0     libopus:opus_encoder.obj
 0002:00010700       __xmm@00000002000000020000000200000002 000000018006b700     libopus:opus_encoder.obj
 0002:00010710       __xmm@00000003000000020000000100000000 000000018006b710     libopus:sort.obj
 0002:00010720       __xmm@00000005000000050000000500000005 000000018006b720     libopus:celt_encoder.obj
 0002:00010730       __xmm@00000006000000060000000600000006 000000018006b730     libopus:opus_encoder.obj
 0002:00010740       __xmm@00000009000000090000000900000009 000000018006b740     libopus:celt_encoder.obj
 0002:00010750       __xmm@38800000388000003880000038800000 000000018006b750     libopus:wrappers_FLP.obj
 0002:00010760       __xmm@388637be388637be388637be388637be 000000018006b760     libopus:celt_decoder.obj
 0002:00010770       __xmm@39800000398000003980000039800000 000000018006b770     libopus:wrappers_FLP.obj
 0002:00010780       __xmm@3bcb295f3bcb295f3bcb295f3bcb295f 000000018006b780     libopus:celt_encoder.obj
 0002:00010790       __xmm@3c03126f3c03126f3c03126f3c03126f 000000018006b790     libopus:pitch.obj
 0002:000107a0       __xmm@3d8000003d8000003d8000003d800000 000000018006b7a0     libopus:celt_encoder.obj
 0002:000107b0       __xmm@3e8000003e8000003e8000003e800000 000000018006b7b0     libopus:celt_encoder.obj
 0002:000107c0       __xmm@3f0000003f0000003f0000003f000000 000000018006b7c0     libopus:celt_encoder.obj
 0002:000107d0       __xmm@3f3504f33f3504f33f3504f33f3504f3 000000018006b7d0     libopus:bands.obj
 0002:000107e0       __xmm@40000000400000004000000040000000 000000018006b7e0     libopus:opus.obj
 0002:000107f0       __xmm@7fffffffffffffff7fffffffffffffff 000000018006b7f0     libopus:celt_encoder.obj
 0002:00010800       __xmm@80000000000000008000000000000000 000000018006b800     libopus:burg_modified_FLP.obj
 0002:00010810       __xmm@80000000800000008000000080000000 000000018006b810     libopus:k2a_FLP.obj
 0002:00010820       __xmm@c0000000c0000000c0000000c0000000 000000018006b820     libopus:opus.obj
 0002:00011748       __real@3c91a62633145c07    000000018006c748     libucrt:atan2.obj
 0002:00011750       __real@3e45798ee2308c3a    000000018006c750     libucrt:atan2.obj
 0002:00011758       __real@3e6110b4611a6263    000000018006c758     libucrt:atan2.obj
 0002:00011760       __real@3f70000000000000    000000018006c760     libucrt:atan2.obj
 0002:00011768       __real@3fb0000000000000    000000018006c768     libucrt:atan2.obj
 0002:00011770       __real@3fb70c3192d751c2    000000018006c770     libucrt:atan2.obj
 0002:00011778       __real@3fbc718839b8c4eb    000000018006c778     libucrt:atan2.obj
 0002:00011780       __real@3fc2492482bd6be1    000000018006c780     libucrt:atan2.obj
 0002:00011788       __real@3fc99992b9802d7d    000000018006c788     libucrt:atan2.obj
 0002:00011790       __real@3fc99999999643a3    000000018006c790     libucrt:atan2.obj
 0002:00011798       __real@3fd5555555550877    000000018006c798     libucrt:atan2.obj
 0002:000117a0       __real@3fd5555555555538    000000018006c7a0     libucrt:atan2.obj
 0002:000117a8       __real@3fe921fb54442d18    000000018006c7a8     libucrt:atan2.obj
 0002:000117b0       __real@3ff921fb54442d18    000000018006c7b0     libucrt:atan2.obj
 0002:000117b8       __real@4002d97c7f3321d2    000000018006c7b8     libucrt:atan2.obj
 0002:000117c0       __real@400921fb50000000    000000018006c7c0     libucrt:atan2.obj
 0002:000117c8       __real@400921fb54442d18    000000018006c7c8     libucrt:atan2.obj
 0002:000117d0       __real@4010000000000000    000000018006c7d0     libucrt:atan2.obj
 0002:000117d8       __real@4070000000000000    000000018006c7d8     libucrt:atan2.obj
 0002:000117e0       __real@8000000000000000    000000018006c7e0     libucrt:atan2.obj
 0002:000117e8       __real@bfe921fb54442d18    000000018006c7e8     libucrt:atan2.obj
 0002:000117f0       __real@bff921fb54442d18    000000018006c7f0     libucrt:atan2.obj
 0002:000117f8       __real@c002d97c7f3321d2    000000018006c7f8     libucrt:atan2.obj
 0002:00011800       __real@c00921fb54442d18    000000018006c800     libucrt:atan2.obj
 0002:00011808       __real@c010000000000000    000000018006c808     libucrt:atan2.obj
 0002:000119f0       __real@bff0000000000000    000000018006c9f0     libucrt:floor.obj
 0002:00012fc0       __Lcosarray                000000018006dfc0     libucrt:lsincos_array.obj
 0002:00013020       __Lsinarray                000000018006e020     libucrt:lsincos_array.obj
 0002:000133a0       __two_to_jby64_table       000000018006e3a0     libucrt:two_to_jby64_table.obj
 0002:000135a0       __two_to_jby64_head_table  000000018006e5a0     libucrt:two_to_jby64_head_tail_table.obj
 0002:000137a0       __two_to_jby64_tail_table  000000018006e7a0     libucrt:two_to_jby64_head_tail_table.obj
 0002:000139a0       __log_256_lead             000000018006e9a0     libucrt:log_256_lead_tail_table.obj
 0002:000141b0       __log_256_tail             000000018006f1b0     libucrt:log_256_lead_tail_table.obj
 0002:000149c0       __L_2_by_pi_bits           000000018006f9c0     libucrt:l2_by_pi_bits.obj
 0002:00014ab8       ??_R4exception@std@@6B@    000000018006fab8     LIBCMT:throw_bad_alloc.obj
 0002:00014ae0       ??_R3exception@std@@8      000000018006fae0     LIBCMT:throw_bad_alloc.obj
 0002:00014af8       ??_R2exception@std@@8      000000018006faf8     LIBCMT:throw_bad_alloc.obj
 0002:00014b08       ??_R1A@?0A@EA@exception@std@@8 000000018006fb08     LIBCMT:throw_bad_alloc.obj
 0002:00014b30       ??_R4bad_alloc@std@@6B@    000000018006fb30     LIBCMT:throw_bad_alloc.obj
 0002:00014b58       ??_R3bad_alloc@std@@8      000000018006fb58     LIBCMT:throw_bad_alloc.obj
 0002:00014b70       ??_R2bad_alloc@std@@8      000000018006fb70     LIBCMT:throw_bad_alloc.obj
 0002:00014b88       ??_R1A@?0A@EA@bad_alloc@std@@8 000000018006fb88     LIBCMT:throw_bad_alloc.obj
 0002:00014bb0       ??_R4bad_array_new_length@std@@6B@ 000000018006fbb0     LIBCMT:throw_bad_alloc.obj
 0002:00014bd8       ??_R3bad_array_new_length@std@@8 000000018006fbd8     LIBCMT:throw_bad_alloc.obj
 0002:00014bf0       ??_R2bad_array_new_length@std@@8 000000018006fbf0     LIBCMT:throw_bad_alloc.obj
 0002:00014c10       ??_R1A@?0A@EA@bad_array_new_length@std@@8 000000018006fc10     LIBCMT:throw_bad_alloc.obj
 0002:00014c38       ??_R4type_info@@6B@        000000018006fc38     LIBCMT:std_type_info_static.obj
 0002:00014c60       ??_R3type_info@@8          000000018006fc60     LIBCMT:std_type_info_static.obj
 0002:00014c78       ??_R2type_info@@8          000000018006fc78     LIBCMT:std_type_info_static.obj
 0002:00014c88       ??_R1A@?0A@EA@type_info@@8 000000018006fc88     LIBCMT:std_type_info_static.obj
 0002:00014cb0       ?_TraceLoggingMetadata@?1??_TlgWrite@__vcrt_trace_logging_provider@@YAJPEBU_TlgProvider_t@2@PEFBXPEBU_GUID@@2IPEAU_EVENT_DATA_DESCRIPTOR@@@Z@4U_TraceLoggingMetadata_t@2@B 000000018006fcb0     libvcruntime:telemetry.obj
 0002:00014d63       ?_TraceLoggingMetadataEnd@?1??_TlgWrite@__vcrt_trace_logging_provider@@YAJPEBU_TlgProvider_t@2@PEFBXPEBU_GUID@@2IPEAU_EVENT_DATA_DESCRIPTOR@@@Z@4EB 000000018006fd63     libvcruntime:telemetry.obj
 0002:000151b8       __rtc_iaa                  00000001800701b8     LIBCMT:_initsect_.obj
 0002:000151c0       __rtc_izz                  00000001800701c0     LIBCMT:_initsect_.obj
 0002:000151c8       __rtc_taa                  00000001800701c8     LIBCMT:_initsect_.obj
 0002:000151d0       __rtc_tzz                  00000001800701d0     LIBCMT:_initsect_.obj
 0002:00019298       _TI2?AVbad_alloc@std@@     0000000180074298     LIBCMT:throw_bad_alloc.obj
 0002:000192b8       _CTA2?AVbad_alloc@std@@    00000001800742b8     LIBCMT:throw_bad_alloc.obj
 0002:000192d0       _CT??_R0?AVbad_alloc@std@@@8??0bad_alloc@std@@QEAA@AEBV01@@Z24 00000001800742d0     LIBCMT:throw_bad_alloc.obj
 0002:000192f8       _CT??_R0?AVexception@std@@@8??0exception@std@@QEAA@AEBV01@@Z24 00000001800742f8     LIBCMT:throw_bad_alloc.obj
 0002:00019320       _TI3?AVbad_array_new_length@std@@ 0000000180074320     LIBCMT:throw_bad_alloc.obj
 0002:00019340       _CTA3?AVbad_array_new_length@std@@ 0000000180074340     LIBCMT:throw_bad_alloc.obj
 0002:00019360       _CT??_R0?AVbad_array_new_length@std@@@8??0bad_array_new_length@std@@QEAA@AEBV01@@Z24 0000000180074360     LIBCMT:throw_bad_alloc.obj
 0002:00019384       __DELAY_IMPORT_DESCRIPTOR_node_exe 0000000180074384     node:node.exe
 0002:000193a4       __NULL_DELAY_IMPORT_DESCRIPTOR 00000001800743a4     node:node.exe
 0002:00019528       \177node_NULL_THUNK_DATA_DLN 0000000180074528     node:node.exe
 0002:0001a108       \177node_NULL_THUNK_DATA_DLB 0000000180075108     node:node.exe
 0002:0001a74c       __IMPORT_DESCRIPTOR_KERNEL32 000000018007574c     kernel32:KERNEL32.dll
 0002:0001a760       __IMPORT_DESCRIPTOR_ADVAPI32 0000000180075760     advapi32:ADVAPI32.dll
 0002:0001a774       __NULL_IMPORT_DESCRIPTOR   0000000180075774     kernel32:KERNEL32.dll
 0003:00000000       __security_cookie          0000000180076000     LIBCMT:gs_cookie.obj
 0003:00000008       __security_cookie_complement 0000000180076008     LIBCMT:gs_cookie.obj
 0003:00000010       __scrt_native_dllmain_reason 0000000180076010     LIBCMT:utility.obj
 0003:00000018       __isa_available            0000000180076018     LIBCMT:_cpu_disp_.obj
 0003:0000001c       __isa_enabled              000000018007601c     LIBCMT:_cpu_disp_.obj
 0003:00000020       __memcpy_nt_iters          0000000180076020     LIBCMT:_cpu_disp_.obj
 0003:00000084       __abort_behavior           0000000180076084     libucrt:abort.obj
 0003:00000090       _iob                       0000000180076090     libucrt:_file.obj
 0003:000001a0       __acrt_initial_locale_data 00000001800761a0     libucrt:nlsdata.obj
 0003:000002f8       __acrt_initial_locale_pointers 00000001800762f8     libucrt:nlsdata.obj
 0003:00000308       __acrt_wide_c_locale_string 0000000180076308     libucrt:nlsdata.obj
 0003:00000310       __acrt_initial_multibyte_data 0000000180076310     libucrt:mbctype.obj
 0003:00000538       __acrt_current_multibyte_data 0000000180076538     libucrt:mbctype.obj
 0003:00000640       _mbctype                   0000000180076640     libucrt:mbctype.obj
 0003:00000750       _mbcasemap                 0000000180076750     libucrt:mbctype.obj
 0003:00000850       __badioinfo                0000000180076850     libucrt:ioinit.obj
 0003:00000890       _pwctype                   0000000180076890     libucrt:ctype.obj
 0003:00000898       __globallocalestatus       0000000180076898     libucrt:glstatus.obj
 0003:000008a0       __acrt_lconv_c             00000001800768a0     libucrt:localeconv.obj
 0003:00000938       __acrt_lconv_static_decimal 0000000180076938     libucrt:localeconv.obj
 0003:0000093c       __acrt_lconv_static_W_decimal 000000018007693c     libucrt:localeconv.obj
 0003:00000940       __dcrt_lowio_console_output_handle 0000000180076940     libucrt:initcon.obj
 0003:00000960       _fltused                   0000000180076960     LIBCMT:fltused.obj
 0003:000009b0       __pfnDliNotifyHook2        00000001800769b0     win_delay_load_hook.obj
 0003:000009c0       ??_R0?AVbad_alloc@std@@@8  00000001800769c0     LIBCMT:throw_bad_alloc.obj
 0003:000009e8       ??_R0?AVexception@std@@@8  00000001800769e8     LIBCMT:throw_bad_alloc.obj
 0003:00000a10       ??_R0?AVbad_array_new_length@std@@@8 0000000180076a10     LIBCMT:throw_bad_alloc.obj
 0003:00000a40       ??_R0?AVtype_info@@@8      0000000180076a40     LIBCMT:std_type_info_static.obj
 0003:00000a60       __imp_?Value@External@v8@@QEBAPEAXXZ 0000000180076a60     node:node.exe
 0003:00000a68       __imp_?New@External@v8@@SA?AV?$Local@VExternal@v8@@@2@PEAVIsolate@2@PEAX@Z 0000000180076a68     node:node.exe
 0003:00000a70       __imp_?New@Integer@v8@@SA?AV?$Local@VInteger@v8@@@2@PEAVIsolate@2@H@Z 0000000180076a70     node:node.exe
 0003:00000a78       __imp_?New@Signature@v8@@SA?AV?$Local@VSignature@v8@@@2@PEAVIsolate@2@V?$Local@VFunctionTemplate@v8@@@2@@Z 0000000180076a78     node:node.exe
 0003:00000a80       __imp_?ThrowException@Isolate@v8@@QEAA?AV?$Local@VValue@v8@@@2@V32@@Z 0000000180076a80     node:node.exe
 0003:00000a88       __imp_?GetCurrentContext@Isolate@v8@@QEAA?AV?$Local@VContext@v8@@@2@XZ 0000000180076a88     node:node.exe
 0003:00000a90       __imp_?GetCurrent@Isolate@v8@@SAPEAV12@XZ 0000000180076a90     node:node.exe
 0003:00000a98       __imp_?CreateHandle@HandleScope@v8@@KAPEAPEAVObject@internal@2@PEAVIsolate@42@PEAV342@@Z 0000000180076a98     node:node.exe
 0003:00000aa0       __imp_?CreateHandle@HandleScope@v8@@CAPEAPEAVObject@internal@2@PEAVHeapObject@42@PEAV342@@Z 0000000180076aa0     node:node.exe
 0003:00000aa8       __imp_??1HandleScope@v8@@QEAA@XZ 0000000180076aa8     node:node.exe
 0003:00000ab0       __imp_??0HandleScope@v8@@QEAA@PEAVIsolate@1@@Z 0000000180076ab0     node:node.exe
 0003:00000ab8       __imp_?Set@Template@v8@@QEAAXV?$Local@VName@v8@@@2@V?$Local@VData@v8@@@2@W4PropertyAttribute@2@@Z 0000000180076ab8     node:node.exe
 0003:00000ac0       __imp_?Error@Exception@v8@@SA?AV?$Local@VValue@v8@@@2@V?$Local@VString@v8@@@2@@Z 0000000180076ac0     node:node.exe
 0003:00000ac8       __imp_?TypeError@Exception@v8@@SA?AV?$Local@VValue@v8@@@2@V?$Local@VString@v8@@@2@@Z 0000000180076ac8     node:node.exe
 0003:00000ad0       __imp_?SetClassName@FunctionTemplate@v8@@QEAAXV?$Local@VString@v8@@@2@@Z 0000000180076ad0     node:node.exe
 0003:00000ad8       __imp_?PrototypeTemplate@FunctionTemplate@v8@@QEAA?AV?$Local@VObjectTemplate@v8@@@2@XZ 0000000180076ad8     node:node.exe
 0003:00000ae0       __imp_?InstanceTemplate@FunctionTemplate@v8@@QEAA?AV?$Local@VObjectTemplate@v8@@@2@XZ 0000000180076ae0     node:node.exe
 0003:00000ae8       __imp_?GetFunction@FunctionTemplate@v8@@QEAA?AV?$Local@VFunction@v8@@@2@XZ 0000000180076ae8     node:node.exe
 0003:00000af0       __imp_?New@FunctionTemplate@v8@@SA?AV?$Local@VFunctionTemplate@v8@@@2@PEAVIsolate@2@P6AXAEBV?$FunctionCallbackInfo@VValue@v8@@@2@@ZV?$Local@VValue@v8@@@2@V?$Local@VSignature@v8@@@2@H@Z 0000000180076af0     node:node.exe
 0003:00000af8       __imp_?ToLocalEmpty@V8@v8@@CAXXZ 0000000180076af8     node:node.exe
 0003:00000b00       __imp_?ClearWeak@V8@v8@@CAPEAXPEAPEAVObject@internal@2@@Z 0000000180076b00     node:node.exe
 0003:00000b08       __imp_?MakeWeak@V8@v8@@CAXPEAPEAVObject@internal@2@PEAXP6AXAEBV?$WeakCallbackInfo@X@2@@ZW4WeakCallbackType@2@@Z 0000000180076b08     node:node.exe
 0003:00000b10       __imp_?DisposeGlobal@V8@v8@@CAXPEAPEAVObject@internal@2@@Z 0000000180076b10     node:node.exe
 0003:00000b18       __imp_?GlobalizeReference@V8@v8@@CAPEAPEAVObject@internal@2@PEAVIsolate@42@PEAPEAV342@@Z 0000000180076b18     node:node.exe
 0003:00000b20       __imp_?Int32Value@Value@v8@@QEBAHXZ 0000000180076b20     node:node.exe
 0003:00000b28       __imp_?ToInteger@Value@v8@@QEBA?AV?$MaybeLocal@VInteger@v8@@@2@V?$Local@VContext@v8@@@2@@Z 0000000180076b28     node:node.exe
 0003:00000b30       __imp_?IsNumber@Value@v8@@QEBA_NXZ 0000000180076b30     node:node.exe
 0003:00000b38       __imp_?IsObject@Value@v8@@QEBA_NXZ 0000000180076b38     node:node.exe
 0003:00000b40       __imp_?Escape@EscapableHandleScope@v8@@AEAAPEAPEAVObject@internal@2@PEAPEAV342@@Z 0000000180076b40     node:node.exe
 0003:00000b48       __imp_??0EscapableHandleScope@v8@@QEAA@PEAVIsolate@1@@Z 0000000180076b48     node:node.exe
 0003:00000b50       __imp_?NewFromUtf8@String@v8@@SA?AV?$MaybeLocal@VString@v8@@@2@PEAVIsolate@2@PEBDW4NewStringType@2@H@Z 0000000180076b50     node:node.exe
 0003:00000b58       __imp_?SlowGetAlignedPointerFromInternalField@Object@v8@@AEAAPEAXH@Z 0000000180076b58     node:node.exe
 0003:00000b60       __imp_?SlowGetInternalField@Object@v8@@AEAA?AV?$Local@VValue@v8@@@2@H@Z 0000000180076b60     node:node.exe
 0003:00000b68       __imp_?SetAlignedPointerInInternalField@Object@v8@@QEAAXHPEAX@Z 0000000180076b68     node:node.exe
 0003:00000b70       __imp_?SetInternalField@Object@v8@@QEAAXHV?$Local@VValue@v8@@@2@@Z 0000000180076b70     node:node.exe
 0003:00000b78       __imp_?InternalFieldCount@Object@v8@@QEAAHXZ 0000000180076b78     node:node.exe
 0003:00000b80       __imp_?Set@Object@v8@@QEAA_NV?$Local@VValue@v8@@@2@0@Z 0000000180076b80     node:node.exe
 0003:00000b88       __imp_?SetInternalFieldCount@ObjectTemplate@v8@@QEAAXH@Z 0000000180076b88     node:node.exe
 0003:00000b90       __imp_?NewInstance@ObjectTemplate@v8@@QEAA?AV?$MaybeLocal@VObject@v8@@@2@V?$Local@VContext@v8@@@2@@Z 0000000180076b90     node:node.exe
 0003:00000b98       __imp_?New@ObjectTemplate@v8@@SA?AV?$Local@VObjectTemplate@v8@@@2@PEAVIsolate@2@V?$Local@VFunctionTemplate@v8@@@2@@Z 0000000180076b98     node:node.exe
 0003:00000ba0       __imp_node_module_register 0000000180076ba0     node:node.exe
 0003:00000ba8       __imp_?Data@Buffer@node@@YAPEADV?$Local@VObject@v8@@@v8@@@Z 0000000180076ba8     node:node.exe
 0003:00000bb0       __imp_?Copy@Buffer@node@@YA?AV?$MaybeLocal@VObject@v8@@@v8@@PEAVIsolate@4@PEBD_K@Z 0000000180076bb0     node:node.exe
 0003:00000bb8       __imp_?Length@Buffer@node@@YA_KV?$Local@VObject@v8@@@v8@@@Z 0000000180076bb8     node:node.exe
 0003:00000bc0       \177node_NULL_THUNK_DATA_DLA 0000000180076bc0     node:node.exe
 0003:00000bd0       __hmod__node_exe           0000000180076bd0     node:node.exe
 0003:00001150       __scrt_current_native_startup_state 0000000180077150     LIBCMT:utility.obj
 0003:00001158       __scrt_native_startup_lock 0000000180077158     LIBCMT:utility.obj
 0003:000011a0       ?__type_info_root_node@@3U__type_info_node@@A 00000001800771a0     LIBCMT:tncleanup.obj
 0003:000011b0       ?_OptionsStorage@?1??__local_stdio_printf_options@@9@4_KA 00000001800771b0     LIBCMT:default_local_stdio_options.obj
 0003:000011b8       ?_OptionsStorage@?1??__local_stdio_scanf_options@@9@4_KA 00000001800771b8     LIBCMT:default_local_stdio_options.obj
 0003:000011c0       __scrt_debugger_hook_flag  00000001800771c0     LIBCMT:utility_desktop.obj
 0003:000011c4       __favor                    00000001800771c4     LIBCMT:_cpu_disp_.obj
 0003:000012e8       __pPurecall                00000001800772e8     libvcruntime:purevirt_data.obj
 0003:000012f0       ?pArgList@UnDecorator@@0PEAVReplicator@@EA 00000001800772f0     libvcruntime:undname.obj
 0003:000012f8       ?pZNameList@UnDecorator@@0PEAVReplicator@@EA 00000001800772f8     libvcruntime:undname.obj
 0003:00001300       ?pTemplateArgList@UnDecorator@@0PEAVReplicator@@EA 0000000180077300     libvcruntime:undname.obj
 0003:00001308       ?gName@UnDecorator@@0PEBDEB 0000000180077308     libvcruntime:undname.obj
 0003:00001310       ?name@UnDecorator@@0PEBDEB 0000000180077310     libvcruntime:undname.obj
 0003:00001318       ?outputString@UnDecorator@@0PEADEA 0000000180077318     libvcruntime:undname.obj
 0003:00001320       ?maxStringLength@UnDecorator@@0HA 0000000180077320     libvcruntime:undname.obj
 0003:00001324       ?disableFlags@UnDecorator@@0KA 0000000180077324     libvcruntime:undname.obj
 0003:00001328       ?fExplicitTemplateParams@UnDecorator@@0_NA 0000000180077328     libvcruntime:undname.obj
 0003:00001329       ?fGetTemplateArgumentList@UnDecorator@@0_NA 0000000180077329     libvcruntime:undname.obj
 0003:00001330       ?m_pGetParameter@UnDecorator@@0P6APEADJ@ZEA 0000000180077330     libvcruntime:undname.obj
 0003:00001380       _environ_table             0000000180077380     libucrt:environment_initialization.obj
 0003:00001388       _wenviron_table            0000000180077388     libucrt:environment_initialization.obj
 0003:00001390       __dcrt_initial_wide_environment 0000000180077390     libucrt:environment_initialization.obj
 0003:00001398       __dcrt_initial_narrow_environment 0000000180077398     libucrt:environment_initialization.obj
 0003:000013a0       __acrt_atexit_table        00000001800773a0     libucrt:onexit.obj
 0003:000013b8       __acrt_at_quick_exit_table 00000001800773b8     libucrt:onexit.obj
 0003:000013e0       _nstream                   00000001800773e0     libucrt:_file.obj
 0003:000013e8       __piob                     00000001800773e8     libucrt:_file.obj
 0003:000013f0       _cflush                    00000001800773f0     libucrt:_file.obj
 0003:00001418       __acrt_locale_changed_data 0000000180077418     libucrt:wsetlocale.obj
 0003:00001420       __acrt_current_locale_data 0000000180077420     libucrt:nlsdata.obj
 0003:000017e4       __mbcodepage               00000001800777e4     libucrt:mbctype.obj
 0003:000017e8       __ismbcodepage             00000001800777e8     libucrt:mbctype.obj
 0003:000017f0       __mbulinfo                 00000001800777f0     libucrt:mbctype.obj
 0003:00001800       __mblocalename             0000000180077800     libucrt:mbctype.obj
 0003:00001810       __acrt_heap                0000000180077810     libucrt:heap_handle.obj
 0003:00001820       __pioinfo                  0000000180077820     libucrt:ioinit.obj
 0003:00001c20       _nhandle                   0000000180077c20     libucrt:ioinit.obj
 0003:00001c28       __argv                     0000000180077c28     libucrt:argv_data.obj
 0003:00001c30       __wargv                    0000000180077c30     libucrt:argv_data.obj
 0003:00001c38       _acmdln                    0000000180077c38     libucrt:argv_data.obj
 0003:00001c40       _wcmdln                    0000000180077c40     libucrt:argv_data.obj
 0003:00001c50       __acrt_stdout_buffer       0000000180077c50     libucrt:_sftbuf.obj
 0003:00001c58       __acrt_stderr_buffer       0000000180077c58     libucrt:_sftbuf.obj
 0003:00001c70       __acrt_lconv_static_null   0000000180077c70     libucrt:localeconv.obj
 0003:00001c74       __acrt_lconv_static_W_null 0000000180077c74     libucrt:localeconv.obj
 0003:00001c78       __fma3_is_available        0000000180077c78     libucrt:fma3_available.obj
 0003:00001c7c       __use_fma3_lib             0000000180077c7c     libucrt:fma3_available.obj
 0003:00001c80       ?DloadKernel32@@3PEAUHINSTANCE__@@EA 0000000180077c80     DelayImp:delayhlp.obj
 0003:00001c88       ?DloadAcquireSRWLockExclusive@@3P6AXPEA_K@ZEA 0000000180077c88     DelayImp:delayhlp.obj
 0003:00001c90       ?DloadReleaseSRWLockExclusive@@3P6AXPEA_K@ZEA 0000000180077c90     DelayImp:delayhlp.obj
 0003:00001c98       ?DloadSrwLock@@3_KA        0000000180077c98     DelayImp:delayhlp.obj
 0003:00001ca0       ?DloadSectionLockCount@@3KA 0000000180077ca0     DelayImp:delayhlp.obj
 0003:00001ca4       ?DloadSectionOldProtection@@3KA 0000000180077ca4     DelayImp:delayhlp.obj
 0003:00001ca8       ?DloadSectionCommitPermanent@@3KA 0000000180077ca8     DelayImp:delayhlp.obj
 0003:00001cb0       __pfnDliFailureHook2       0000000180077cb0     DelayImp:delayhk1.obj
 0003:00001cb8       __scrt_ucrt_dll_is_in_use  0000000180077cb8     <common>
 0003:00001cc0       __dyn_tls_init_callback    0000000180077cc0     <common>
 0003:00001cc8       _pDestructExceptionObject  0000000180077cc8     <common>

 entry point at        0001:0004515c

 Static symbols

 0000:fff82000       .debug$S                   0000000180000000     kernel32:KERNEL32.dll
 0000:fff82000       .debug$S                   0000000180000000     kernel32:KERNEL32.dll
 0000:fff82000       .debug$S                   0000000180000000     kernel32:KERNEL32.dll
 0000:fff82000       .debug$S                   0000000180000000     kernel32:KERNEL32.dll
 0000:fff82000       .debug$S                   0000000180000000     kernel32:KERNEL32.dll
 0000:fff82000       .debug$S                   0000000180000000     kernel32:KERNEL32.dll
 0000:fff82000       .debug$S                   0000000180000000     kernel32:KERNEL32.dll
 0000:fff82000       .debug$S                   0000000180000000     kernel32:KERNEL32.dll
 0000:fff82000       .debug$S                   0000000180000000     kernel32:KERNEL32.dll
 0000:fff82000       .debug$S                   0000000180000000     node:node.exe
 0000:fff82000       .debug$S                   0000000180000000     kernel32:KERNEL32.dll
 0000:fff82000       .debug$S                   0000000180000000     node:node.exe
 0000:fff82000       .debug$S                   0000000180000000     node:node.exe
 0000:fff82000       .debug$S                   0000000180000000     kernel32:KERNEL32.dll
 0000:fff82000       .debug$S                   0000000180000000     node:node.exe
 0000:fff82000       .debug$S                   0000000180000000     kernel32:KERNEL32.dll
 0000:fff82000       .debug$S                   0000000180000000     node:node.exe
 0000:fff82000       .debug$S                   0000000180000000     kernel32:KERNEL32.dll
 0000:fff82000       .debug$S                   0000000180000000     node:node.exe
 0000:fff82000       .debug$S                   0000000180000000     node:node.exe
 0000:fff82000       .debug$S                   0000000180000000     kernel32:KERNEL32.dll
 0000:fff82000       .debug$S                   0000000180000000     kernel32:KERNEL32.dll
 0000:fff82000       .debug$S                   0000000180000000     kernel32:KERNEL32.dll
 0000:fff82000       .debug$S                   0000000180000000     kernel32:KERNEL32.dll
 0000:fff82000       .debug$S                   0000000180000000     kernel32:KERNEL32.dll
 0000:fff82000       .debug$S                   0000000180000000     node:node.exe
 0000:fff82000       .debug$S                   0000000180000000     node:node.exe
 0000:fff82000       .debug$S                   0000000180000000     node:node.exe
 0000:fff82000       .debug$S                   0000000180000000     node:node.exe
 0000:fff82000       .debug$S                   0000000180000000     node:node.exe
 0000:fff82000       .debug$S                   0000000180000000     node:node.exe
 0000:fff82000       .debug$S                   0000000180000000     node:node.exe
 0000:fff82000       .debug$S                   0000000180000000     node:node.exe
 0000:fff82000       .debug$S                   0000000180000000     node:node.exe
 0000:fff82000       .debug$S                   0000000180000000     node:node.exe
 0000:fff82000       .debug$S                   0000000180000000     node:node.exe
 0000:fff82000       .debug$S                   0000000180000000     node:node.exe
 0000:fff82000       .debug$S                   0000000180000000     node:node.exe
 0000:fff82000       .debug$S                   0000000180000000     node:node.exe
 0000:fff82000       .debug$S                   0000000180000000     node:node.exe
 0000:fff82000       .debug$S                   0000000180000000     kernel32:KERNEL32.dll
 0000:fff82000       .debug$S                   0000000180000000     node:node.exe
 0000:fff82000       .debug$S                   0000000180000000     node:node.exe
 0000:fff82000       .debug$S                   0000000180000000     node:node.exe
 0000:fff82000       .debug$S                   0000000180000000     node:node.exe
 0000:fff82000       .debug$S                   0000000180000000     node:node.exe
 0000:fff82000       .debug$S                   0000000180000000     node:node.exe
 0000:fff82000       .debug$S                   0000000180000000     kernel32:KERNEL32.dll
 0000:fff82000       .debug$S                   0000000180000000     node:node.exe
 0000:fff82000       .debug$S                   0000000180000000     node:node.exe
 0000:fff82000       .debug$S                   0000000180000000     node:node.exe
 0000:fff82000       .debug$S                   0000000180000000     node:node.exe
 0000:fff82000       .debug$S                   0000000180000000     kernel32:KERNEL32.dll
 0000:fff82000       .debug$S                   0000000180000000     node:node.exe
 0000:fff82000       .debug$S                   0000000180000000     node:node.exe
 0000:fff82000       .debug$S                   0000000180000000     node:node.exe
 0000:fff82000       .debug$S                   0000000180000000     node:node.exe
 0000:fff82000       .debug$S                   0000000180000000     node:node.exe
 0000:fff82000       .debug$S                   0000000180000000     node:node.exe
 0000:fff82000       .debug$S                   0000000180000000     node:node.exe
 0000:fff82000       .debug$S                   0000000180000000     node:node.exe
 0000:fff82000       .debug$S                   0000000180000000     node:node.exe
 0000:fff82000       .debug$S                   0000000180000000     node:node.exe
 0000:fff82000       .debug$S                   0000000180000000     node:node.exe
 0000:fff82000       .debug$S                   0000000180000000     node:node.exe
 0000:fff82000       .debug$S                   0000000180000000     node:node.exe
 0000:fff82000       .debug$S                   0000000180000000     kernel32:KERNEL32.dll
 0000:fff82000       .debug$S                   0000000180000000     kernel32:KERNEL32.dll
 0000:fff82000       .debug$S                   0000000180000000     node:node.exe
 0000:fff82000       .debug$S                   0000000180000000     node:node.exe
 0000:fff82000       .debug$S                   0000000180000000     kernel32:KERNEL32.dll
 0000:fff82000       .debug$S                   0000000180000000     node:node.exe
 0000:fff82000       .debug$S                   0000000180000000     node:node.exe
 0000:fff82000       .debug$S                   0000000180000000     kernel32:KERNEL32.dll
 0000:fff82000       .debug$S                   0000000180000000     advapi32:ADVAPI32.dll
 0000:fff82000       .debug$S                   0000000180000000     kernel32:KERNEL32.dll
 0000:fff82000       .debug$S                   0000000180000000     kernel32:KERNEL32.dll
 0000:fff82000       .debug$S                   0000000180000000     kernel32:KERNEL32.dll
 0000:fff82000       .debug$S                   0000000180000000     kernel32:KERNEL32.dll
 0000:fff82000       .debug$S                   0000000180000000     kernel32:KERNEL32.dll
 0000:fff82000       .debug$S                   0000000180000000     kernel32:KERNEL32.dll
 0000:fff82000       .debug$S                   0000000180000000     kernel32:KERNEL32.dll
 0000:fff82000       .debug$S                   0000000180000000     kernel32:KERNEL32.dll
 0000:fff82000       .debug$S                   0000000180000000     kernel32:KERNEL32.dll
 0000:fff82000       .debug$S                   0000000180000000     kernel32:KERNEL32.dll
 0000:fff82000       .debug$S                   0000000180000000     kernel32:KERNEL32.dll
 0000:fff82000       .debug$S                   0000000180000000     kernel32:KERNEL32.dll
 0000:fff82000       .debug$S                   0000000180000000     kernel32:KERNEL32.dll
 0000:fff82000       .debug$S                   0000000180000000     kernel32:KERNEL32.dll
 0000:fff82000       .debug$S                   0000000180000000     kernel32:KERNEL32.dll
 0000:fff82000       .debug$S                   0000000180000000     kernel32:KERNEL32.dll
 0000:fff82000       .debug$S                   0000000180000000     kernel32:KERNEL32.dll
 0000:fff82000       .debug$S                   0000000180000000     kernel32:KERNEL32.dll
 0000:fff82000       .debug$S                   0000000180000000     kernel32:KERNEL32.dll
 0000:fff82000       .debug$S                   0000000180000000     kernel32:KERNEL32.dll
 0000:fff82000       .debug$S                   0000000180000000     kernel32:KERNEL32.dll
 0000:fff82000       .debug$S                   0000000180000000     kernel32:KERNEL32.dll
 0000:fff82000       .debug$S                   0000000180000000     kernel32:KERNEL32.dll
 0000:fff82000       .debug$S                   0000000180000000     kernel32:KERNEL32.dll
 0000:fff82000       .debug$S                   0000000180000000     kernel32:KERNEL32.dll
 0000:fff82000       .debug$S                   0000000180000000     kernel32:KERNEL32.dll
 0000:fff82000       .debug$S                   0000000180000000     kernel32:KERNEL32.dll
 0000:fff82000       .debug$S                   0000000180000000     node-opus.exp
 0000:fff82000       .debug$S                   0000000180000000     kernel32:KERNEL32.dll
 0000:fff82000       .debug$S                   0000000180000000     kernel32:KERNEL32.dll
 0000:fff82000       .debug$S                   0000000180000000     kernel32:KERNEL32.dll
 0000:fff82000       .debug$S                   0000000180000000     kernel32:KERNEL32.dll
 0000:fff82000       .debug$S                   0000000180000000     kernel32:KERNEL32.dll
 0000:fff82000       .debug$S                   0000000180000000     kernel32:KERNEL32.dll
 0000:fff82000       .debug$S                   0000000180000000     kernel32:KERNEL32.dll
 0000:fff82000       .debug$S                   0000000180000000     kernel32:KERNEL32.dll
 0000:fff82000       .debug$S                   0000000180000000     kernel32:KERNEL32.dll
 0000:fff82000       .debug$S                   0000000180000000     kernel32:KERNEL32.dll
 0000:fff82000       .debug$S                   0000000180000000     kernel32:KERNEL32.dll
 0000:fff82000       .debug$S                   0000000180000000     kernel32:KERNEL32.dll
 0000:fff82000       .debug$S                   0000000180000000     kernel32:KERNEL32.dll
 0000:fff82000       .debug$S                   0000000180000000     kernel32:KERNEL32.dll
 0000:fff82000       .debug$S                   0000000180000000     kernel32:KERNEL32.dll
 0000:fff82000       .debug$S                   0000000180000000     kernel32:KERNEL32.dll
 0000:fff82000       .debug$S                   0000000180000000     kernel32:KERNEL32.dll
 0000:fff82000       .debug$S                   0000000180000000     kernel32:KERNEL32.dll
 0000:fff82000       .debug$S                   0000000180000000     kernel32:KERNEL32.dll
 0000:fff82000       .debug$S                   0000000180000000     kernel32:KERNEL32.dll
 0000:fff82000       .debug$S                   0000000180000000     kernel32:KERNEL32.dll
 0000:fff82000       .debug$S                   0000000180000000     kernel32:KERNEL32.dll
 0000:fff82000       .debug$S                   0000000180000000     kernel32:KERNEL32.dll
 0000:fff82000       .debug$S                   0000000180000000     kernel32:KERNEL32.dll
 0000:fff82000       .debug$S                   0000000180000000     kernel32:KERNEL32.dll
 0000:fff82000       .debug$S                   0000000180000000     kernel32:KERNEL32.dll
 0000:fff82000       .debug$S                   0000000180000000     kernel32:KERNEL32.dll
 0000:fff82000       .debug$S                   0000000180000000     kernel32:KERNEL32.dll
 0000:fff82000       .debug$S                   0000000180000000     kernel32:KERNEL32.dll
 0000:fff82000       .debug$S                   0000000180000000     kernel32:KERNEL32.dll
 0000:fff82000       .debug$S                   0000000180000000     kernel32:KERNEL32.dll
 0000:fff82000       .debug$S                   0000000180000000     kernel32:KERNEL32.dll
 0000:fff82000       .debug$S                   0000000180000000     kernel32:KERNEL32.dll
 0000:fff82000       .debug$S                   0000000180000000     kernel32:KERNEL32.dll
 0001:000004c0       ?FunctionCallbackWrapper@imp@Nan@@YAXAEBV?$FunctionCallbackInfo@VValue@v8@@@v8@@@Z 00000001800014c0 f   node-opus.obj
 0001:00000970       $LN13                      0000000180001970     node-opus.obj
 0001:00001300       _register_node_opus        0000000180002300 f   node-opus.obj
 0001:00001390       ?load_exe_hook@@YAP6A_JXZIPEAUDelayLoadInfo@@@Z 0000000180002390 f   win_delay_load_hook.obj
 0001:000013e0       celt_inner_prod_c          00000001800023e0 f   libopus:opus_encoder.obj
 0001:000013e0       celt_inner_prod_c          00000001800023e0 f   libopus:vq.obj
 0001:000013e0       celt_inner_prod_c          00000001800023e0 f   libopus:pitch.obj
 0001:000013e0       celt_inner_prod_c          00000001800023e0 f   libopus:celt_encoder.obj
 0001:00001790       gen_toc                    0000000180002790 f   libopus:opus_encoder.obj
 0001:00001830       silk_biquad_float          0000000180002830 f   libopus:opus_encoder.obj
 0001:00001ba0       hp_cutoff                  0000000180002ba0 f   libopus:opus_encoder.obj
 0001:00001d40       dc_reject                  0000000180002d40 f   libopus:opus_encoder.obj
 0001:00002040       stereo_fade                0000000180003040 f   libopus:opus_encoder.obj
 0001:000025e0       gain_fade                  00000001800035e0 f   libopus:opus_encoder.obj
 0001:00002bd0       user_bitrate_to_bitrate    0000000180003bd0 f   libopus:opus_encoder.obj
 0001:00002c40       transient_boost            0000000180003c40 f   libopus:opus_encoder.obj
 0001:00002d70       transient_viterbi          0000000180003d70 f   libopus:opus_encoder.obj
 0001:00003320       optimize_framesize         0000000180004320 f   libopus:opus_encoder.obj
 0001:0000719c       $LN120                     000000018000819c     libopus:opus_encoder.obj
 0001:000074c0       smooth_fade                00000001800084c0 f   libopus:opus_decoder.obj
 0001:00007820       opus_decode_frame          0000000180008820 f   libopus:opus_decoder.obj
 0001:00008d1c       $LN25                      0000000180009d1c     libopus:opus_decoder.obj
 0001:00008d40       $LN24                      0000000180009d40     libopus:opus_decoder.obj
 0001:00008f60       silk_QueryEncoder          0000000180009f60 f   libopus:enc_API.obj
 0001:0000a2d0       fast_atan2f                000000018000b2d0 f   libopus:analysis.obj
 0001:0000a6c0       tonality_analysis          000000018000b6c0 f   libopus:analysis.obj
 0001:0000c990       ec_enc_normalize           000000018000d990 f   libopus:entenc.obj
 0001:0000cef0       opus_repacketizer_cat_impl 000000018000def0 f   libopus:repacketizer.obj
 0001:0000d900       celt_maxabs16              000000018000e900 f   libopus:celt_encoder.obj
 0001:0000d9e0       opus_custom_encoder_init_arch 000000018000e9e0 f   libopus:celt_encoder.obj
 0001:0000db60       transient_analysis         000000018000eb60 f   libopus:celt_encoder.obj
 0001:0000e2e0       patch_transient_decision   000000018000f2e0 f   libopus:celt_encoder.obj
 0001:0000e970       compute_mdcts              000000018000f970 f   libopus:celt_encoder.obj
 0001:0000f1d0       l1_metric                  00000001800101d0 f   libopus:celt_encoder.obj
 0001:0000f2a0       tf_analysis                00000001800102a0 f   libopus:celt_encoder.obj
 0001:0000f870       tf_encode                  0000000180010870 f   libopus:celt_encoder.obj
 0001:0000fa30       alloc_trim_analysis        0000000180010a30 f   libopus:celt_encoder.obj
 0001:0000fee0       stereo_analysis            0000000180010ee0 f   libopus:celt_encoder.obj
 0001:000101e0       dynalloc_analysis          00000001800111e0 f   libopus:celt_encoder.obj
 0001:000115e0       run_prefilter              00000001800125e0 f   libopus:celt_encoder.obj
 0001:00011c00       compute_vbr                0000000180012c00 f   libopus:celt_encoder.obj
 0001:00015014       $LN57                      0000000180016014     libopus:celt_encoder.obj
 0001:00015040       $LN56                      0000000180016040     libopus:celt_encoder.obj
 0001:00015068       $LN55                      0000000180016068     libopus:celt_encoder.obj
 0001:00015fd0       ec_dec_normalize           0000000180016fd0 f   libopus:entdec.obj
 0001:00016b90       parse_size                 0000000180017b90 f   libopus:opus.obj
 0001:00017100       opus_custom_decoder_init   0000000180018100 f   libopus:celt_decoder.obj
 0001:000171c0       deemphasis                 00000001800181c0 f   libopus:celt_decoder.obj
 0001:000175d0       celt_synthesis             00000001800185d0 f   libopus:celt_decoder.obj
 0001:00017b80       tf_decode                  0000000180018b80 f   libopus:celt_decoder.obj
 0001:00017d70       celt_plc_pitch_search      0000000180018d70 f   libopus:celt_decoder.obj
 0001:00017e00       celt_decode_lost           0000000180018e00 f   libopus:celt_decoder.obj
 0001:0001a720       silk_short2float_array     000000018001b720 f   libopus:control_codec.obj
 0001:0001a720       silk_short2float_array     000000018001b720 f   libopus:encode_frame_FLP.obj
 0001:0001b2e0       silk_LBRR_encode_FLP       000000018001c2e0 f   libopus:encode_frame_FLP.obj
 0001:0001b530       silk_float2short_array     000000018001c530 f   libopus:control_codec.obj
 0001:0001b710       silk_setup_resamplers      000000018001c710 f   libopus:control_codec.obj
 0001:0001b910       silk_setup_fs              000000018001c910 f   libopus:control_codec.obj
 0001:0001bc00       silk_setup_complexity      000000018001cc00 f   libopus:control_codec.obj
 0001:0001be10       silk_setup_LBRR            000000018001ce10 f   libopus:control_codec.obj
 0001:0001d340       silk_DIV32_varQ            000000018001e340 f   libopus:stereo_find_predictor.obj
 0001:0001d340       silk_DIV32_varQ            000000018001e340 f   libopus:stereo_LR_to_MS.obj
 0001:0001e8e0       kf_bfly2                   000000018001f8e0 f   libopus:kiss_fft.obj
 0001:0001ea40       kf_bfly4                   000000018001fa40 f   libopus:kiss_fft.obj
 0001:0001f0a0       kf_bfly3                   00000001800200a0 f   libopus:kiss_fft.obj
 0001:0001f290       kf_bfly5                   0000000180020290 f   libopus:kiss_fft.obj
 0001:0001fb70       tansig_approx              0000000180020b70 f   libopus:mlp.obj
 0001:0001ff50       comb_filter_const_c        0000000180020f50 f   libopus:celt.obj
 0001:00020ae0       loss_distortion            0000000180021ae0 f   libopus:quant_bands.obj
 0001:00020c20       quant_coarse_energy_impl   0000000180021c20 f   libopus:quant_bands.obj
 0001:00022280       bits2pulses                0000000180023280 f   libopus:bands.obj
 0001:00022390       dual_inner_prod_c          0000000180023390 f   libopus:bands.obj
 0001:00022390       dual_inner_prod_c          0000000180023390 f   libopus:pitch.obj
 0001:00022d90       intensity_stereo           0000000180023d90 f   libopus:bands.obj
 0001:00022f80       stereo_split               0000000180023f80 f   libopus:bands.obj
 0001:00023170       stereo_merge               0000000180024170 f   libopus:bands.obj
 0001:00023840       deinterleave_hadamard      0000000180024840 f   libopus:bands.obj
 0001:00023ae0       interleave_hadamard        0000000180024ae0 f   libopus:bands.obj
 0001:00023f40       compute_theta              0000000180024f40 f   libopus:bands.obj
 0001:00024850       quant_band_n1              0000000180025850 f   libopus:bands.obj
 0001:00024a00       quant_partition            0000000180025a00 f   libopus:bands.obj
 0001:00025210       quant_band                 0000000180026210 f   libopus:bands.obj
 0001:000256d0       quant_band_stereo          00000001800266d0 f   libopus:bands.obj
 0001:000265a0       interp_bits2pulses         00000001800275a0 f   libopus:rate.obj
 0001:000277a0       xcorr_kernel_c             00000001800287a0 f   libopus:pitch.obj
 0001:00027a60       find_best_pitch            0000000180028a60 f   libopus:pitch.obj
 0001:00027ec0       celt_fir5                  0000000180028ec0 f   libopus:pitch.obj
 0001:0002bc60       xcorr_kernel_c             000000018002cc60 f   libopus:celt_lpc.obj
 0001:0002cc00       exp_rotation1              000000018002dc00 f   libopus:vq.obj
 0001:0002cf60       exp_rotation               000000018002df60 f   libopus:vq.obj
 0001:0002d130       extract_collapse_mask      000000018002e130 f   libopus:vq.obj
 0001:0002da90       warped_true2monic_coefs    000000018002ea90 f   libopus:noise_shape_analysis_FLP.obj
 0001:0002f530       silk_warped_LPC_analysis_filter_FLP 0000000180030530 f   libopus:prefilter_FLP.obj
 0001:0002f980       silk_prefilt_FLP           0000000180030980 f   libopus:prefilter_FLP.obj
 0001:0002fd70       silk_LP_interpolate_filter_taps 0000000180030d70 f   libopus:LP_variable_cutoff.obj
 0001:00030900       silk_VAD_GetNoiseLevels    0000000180031900 f   libopus:VAD.obj
 0001:00031ff0       decode_split               0000000180032ff0 f   libopus:shell_coder.obj
 0001:00032c70       silk_SQRT_APPROX           0000000180033c70 f   libopus:stereo_find_predictor.obj
 0001:00032c70       silk_SQRT_APPROX           0000000180033c70 f   libopus:PLC.obj
 0001:000330f0       silk_resampler_private_IIR_FIR_INTERPOL 00000001800340f0 f   libopus:resampler_private_IIR_FIR.obj
 0001:00033330       silk_resampler_private_down_FIR_INTERPOL 0000000180034330 f   libopus:resampler_private_down_FIR.obj
 0001:000341c0       silk_INVERSE32_varQ        00000001800351c0 f   libopus:PLC.obj
 0001:000342c0       silk_PLC_update            00000001800352c0 f   libopus:PLC.obj
 0001:00034560       silk_PLC_conceal           0000000180035560 f   libopus:PLC.obj
 0001:00035380       silk_DIV32_varQ            0000000180036380 f   libopus:NSQ_del_dec.obj
 0001:00035380       silk_DIV32_varQ            0000000180036380 f   libopus:decode_core.obj
 0001:00035380       silk_DIV32_varQ            0000000180036380 f   libopus:NSQ.obj
 0001:000354a0       silk_INVERSE32_varQ        00000001800364a0 f   libopus:NSQ.obj
 0001:000354a0       silk_INVERSE32_varQ        00000001800364a0 f   libopus:NSQ_del_dec.obj
 0001:000354a0       silk_INVERSE32_varQ        00000001800364a0 f   libopus:decode_core.obj
 0001:000363c0       silk_CNG_exc               00000001800373c0 f   libopus:CNG.obj
 0001:00036cb0       icwrs                      0000000180037cb0 f   libopus:cwrs.obj
 0001:00036d60       cwrsi                      0000000180037d60 f   libopus:cwrs.obj
 0001:00039590       silk_P_Ana_calc_corr_st3   000000018003a590 f   libopus:pitch_analysis_core_FLP.obj
 0001:000398e0       silk_P_Ana_calc_energy_st3 000000018003a8e0 f   libopus:pitch_analysis_core_FLP.obj
 0001:00039d20       silk_LPC_analysis_filter16_FLP 000000018003ad20 f   libopus:LPC_analysis_filter_FLP.obj
 0001:0003a240       silk_LPC_analysis_filter12_FLP 000000018003b240 f   libopus:LPC_analysis_filter_FLP.obj
 0001:0003a650       silk_LPC_analysis_filter10_FLP 000000018003b650 f   libopus:LPC_analysis_filter_FLP.obj
 0001:0003a9d0       silk_LPC_analysis_filter8_FLP 000000018003b9d0 f   libopus:LPC_analysis_filter_FLP.obj
 0001:0003acc0       silk_LPC_analysis_filter6_FLP 000000018003bcc0 f   libopus:LPC_analysis_filter_FLP.obj
 0001:0003bb10       silk_noise_shape_quantizer 000000018003cb10 f   libopus:NSQ.obj
 0001:0003c440       silk_nsq_scale_states      000000018003d440 f   libopus:NSQ.obj
 0001:0003c7a0       silk_A2NLSF_eval_poly      000000018003d7a0 f   libopus:A2NLSF.obj
 0001:0003c920       silk_A2NLSF_init           000000018003d920 f   libopus:A2NLSF.obj
 0001:0003d990       silk_noise_shape_quantizer_del_dec 000000018003e990 f   libopus:NSQ_del_dec.obj
 0001:0003e7e0       silk_nsq_del_dec_scale_states 000000018003f7e0 f   libopus:NSQ_del_dec.obj
 0001:00040860       silk_INVERSE32_varQ        0000000180041860 f   libopus:LPC_inv_pred_gain.obj
 0001:00043b00       silk_SolveWithUpperTriangularFromLowerWdiagOnes_FLP 0000000180044b00 f   libopus:solve_LS_FLP.obj
 0001:00043c20       silk_LDL_FLP               0000000180044c20 f   libopus:solve_LS_FLP.obj
 0001:00044d80       $$000000                   0000000180045d80     LIBCMT:_amdsecgs_.obj
 0001:00044e00       ?dllmain_crt_dispatch@@YAHQEAUHINSTANCE__@@KQEAX@Z 0000000180045e00 f   LIBCMT:dll_dllmain.obj
 0001:00044e50       ?dllmain_crt_process_attach@@YAHQEAUHINSTANCE__@@QEAX@Z 0000000180045e50 f   LIBCMT:dll_dllmain.obj
 0001:00044f7c       ?dllmain_crt_process_detach@@YAH_N@Z 0000000180045f7c f   LIBCMT:dll_dllmain.obj
 0001:00045000       ?dllmain_dispatch@@YAHQEAUHINSTANCE__@@KQEAX@Z 0000000180046000 f   LIBCMT:dll_dllmain.obj
 0001:00045108       ?dllmain_raw@@YAHQEAUHINSTANCE__@@KQEAX@Z 0000000180046108 f   LIBCMT:dll_dllmain.obj
 0001:00045354       capture_current_context    0000000180046354 f   LIBCMT:gs_report.obj
 0001:000453c4       capture_previous_context   00000001800463c4 f   LIBCMT:gs_report.obj
 0001:00045ea0       $$000000                   0000000180046ea0     libvcruntime:memcpy.obj
 0001:00045f47       MoveSmall                  0000000180046f47     libvcruntime:memcpy.obj
 0001:000462e8       _TlgDefineProvider_annotation__Tlg_Microsoft_CRTProviderProv 00000001800472e8 f   libvcruntime:telemetry.obj
 0001:000469a0       $$000000                   00000001800479a0     libvcruntime:memset.obj
 0001:00046a8c       MsetTab                    0000000180047a8c     libvcruntime:memset.obj
 0001:00046b50       ?try_get_function@@YAPEAXW4function_id@?A0x61ce2399@@QEBDQEBW4module_id@2@2@Z 0000000180047b50 f   libvcruntime:winapi_downlevel.obj
 0001:00047160       $$000000                   0000000180048160     libvcruntime:_jmpuwind_.obj
 0001:000473f4       ??$common_assert_to_message_box@_W@@YAXQEB_W0IQEAX@Z 00000001800483f4 f   libucrt:assert.obj
 0001:000474b8       ??$common_assert_to_message_box_build_string@_W@@YAXQEA_W_KQEB_W2IQEAX@Z 00000001800484b8 f   libucrt:assert.obj
 0001:00047c8c       ??$common_assert_to_stderr@_W@@YAXQEB_W0I@Z 0000000180048c8c f   libucrt:assert.obj
 0001:00047dfc       ?get_assert_format@@YAPEB_W_W@Z 0000000180048dfc f   libucrt:assert.obj
 0001:000483dc       ?atexit_exception_filter@@YAHK@Z 00000001800493dc f   libucrt:exit.obj
 0001:000483e8       ?common_exit@@YAXHW4_crt_exit_cleanup_mode@@W4_crt_exit_return_mode@@@Z 00000001800493e8 f   libucrt:exit.obj
 0001:00048554       ?exit_or_terminate_process@@YAXI@Z 0000000180049554 f   libucrt:exit.obj
 0001:000485a0       ?try_cor_exit_process@@YAXI@Z 00000001800495a0 f   libucrt:exit.obj
 0001:00048638       ??$common_initialize_environment_nolock@D@@YAHXZ 0000000180049638 f   libucrt:environment_initialization.obj
 0001:000486a4       ??$create_environment@D@@YAQEAPEADQEAD@Z 00000001800496a4 f   libucrt:environment_initialization.obj
 0001:000487a0       ??$free_environment@D@@YAXQEAPEAD@Z 00000001800497a0 f   libucrt:environment_initialization.obj
 0001:000487a0       ??$free_environment@_W@@YAXQEAPEA_W@Z 00000001800497a0 f   libucrt:environment_initialization.obj
 0001:000487e4       ??$uninitialize_environment_internal@D@@YAXAEAPEAPEAD@Z 00000001800497e4 f   libucrt:environment_initialization.obj
 0001:00048800       ??$uninitialize_environment_internal@_W@@YAXAEAPEAPEA_W@Z 0000000180049800 f   libucrt:environment_initialization.obj
 0001:00048a38       ??R<lambda_4e60a939b0d047cfe11ddc22648dfba9>@@QEBAHXZ 0000000180049a38 f   libucrt:onexit.obj
 0001:00048ce8       initialize_global_variables 0000000180049ce8 f   libucrt:initialization.obj
 0001:00048cfc       initialize_c               0000000180049cfc f   libucrt:initialization.obj
 0001:00048d20       uninitialize_environment   0000000180049d20 f   libucrt:initialization.obj
 0001:00048d30       initialize_global_state_isolation 0000000180049d30 f   libucrt:initialization.obj
 0001:00048d30       report_memory_leaks        0000000180049d30 f   libucrt:initialization.obj
 0001:00048d30       uninitialize_global_state_isolation 0000000180049d30 f   libucrt:initialization.obj
 0001:00048d30       uninitialize_c             0000000180049d30 f   libucrt:initialization.obj
 0001:00048d30       initialize_environment     0000000180049d30 f   libucrt:initialization.obj
 0001:00048d34       initialize_pointers        0000000180049d34 f   libucrt:initialization.obj
 0001:00048d88       uninitialize_vcruntime     0000000180049d88 f   libucrt:initialization.obj
 0001:00048d90       uninitialize_allocated_memory 0000000180049d90 f   libucrt:initialization.obj
 0001:0004945c       ??R<lambda_dd75445284c072d0bd3768540cc698fa>@@QEBAHXZ 000000018004a45c f   libucrt:output.obj
 0001:0004bb80       ??$common_xtox@K_W@@YAHKQEA_W_KI_N@Z 000000018004cb80 f   libucrt:xtoa.obj
 0001:0004bc2c       ??$common_xtox_s@K_W@@YAHKQEA_W_KI_N@Z 000000018004cc2c f   libucrt:xtoa.obj
 0001:0004bef0       ??$message_box_wait_thread@_W@@YAKQEAX@Z 000000018004cef0 f   libucrt:crtmbox.obj
 0001:0004c2ac       common_flush_all           000000018004d2ac f   libucrt:fflush.obj
 0001:0004c414       ??R<lambda_b721fa326cdb32351d23dfa67958c160>@@QEBAHXZ 000000018004d414 f   libucrt:setvbuf.obj
 0001:0004c8d8       ?internal_isupper_l@@YA_NHQEAU__crt_locale_pointers@@@Z 000000018004d8d8 f   libucrt:tolower_toupper.obj
 0001:0004cbbc       ?construct_ptd_array@@YAXQEAU__acrt_ptd@@@Z 000000018004dbbc f   libucrt:per_thread_data.obj
 0001:0004cc8c       ?destroy_fls@@YAXPEAX@Z    000000018004dc8c f   libucrt:per_thread_data.obj
 0001:0004ccac       ?destroy_ptd_array@@YAXQEAU__acrt_ptd@@@Z 000000018004dcac f   libucrt:per_thread_data.obj
 0001:0004cda4       ?replace_current_thread_locale_nolock@@YAXQEAU__acrt_ptd@@QEAU__crt_locale_data@@@Z 000000018004dda4 f   libucrt:per_thread_data.obj
 0001:0004d158       ?try_get_function@@YAPEAXW4function_id@?A0x63058377@@QEBDQEBW4module_id@2@2@Z 000000018004e158 f   libucrt:winapi_thunks.obj
 0001:0004d9bc       ??R<lambda_ad1ced32f4ac17aa236e5ef05d6b3b7c>@@QEBAXXZ 000000018004e9bc f   libucrt:mbctype.obj
 0001:0004dbd4       ?getSystemCP@@YAHH@Z       000000018004ebd4 f   libucrt:mbctype.obj
 0001:0004dc54       ?setSBCS@@YAXPEAU__crt_multibyte_data@@@Z 000000018004ec54 f   libucrt:mbctype.obj
 0001:0004dce4       ?setSBUpLow@@YAXPEAU__crt_multibyte_data@@@Z 000000018004ece4 f   libucrt:mbctype.obj
 0001:0004dec8       ?setmbcp_internal@@YAHH_N@Z 000000018004eec8 f   libucrt:mbctype.obj
 0001:0004e5dc       ?initialize_inherited_file_handles_nolock@@YAXXZ 000000018004f5dc f   libucrt:ioinit.obj
 0001:0004e6c8       ?initialize_stdio_handles_nolock@@YAXXZ 000000018004f6c8 f   libucrt:ioinit.obj
 0001:0004f0c8       ?fp_format_a@@YAHQEBNPEAD_KQEAD2H_NIQEAU__crt_locale_pointers@@@Z 00000001800500c8 f   libucrt:cvt.obj
 0001:0004f428       ?fp_format_e@@YAHQEBNQEAD_K12H_NIQEAU__crt_locale_pointers@@@Z 0000000180050428 f   libucrt:cvt.obj
 0001:0004f4f8       ?fp_format_e_internal@@YAHQEAD_KH_NIQEAU_strflt@@2QEAU__crt_locale_pointers@@@Z 00000001800504f8 f   libucrt:cvt.obj
 0001:0004f6d4       ?fp_format_f_internal@@YAHQEAD_KHQEAU_strflt@@_NQEAU__crt_locale_pointers@@@Z 00000001800506d4 f   libucrt:cvt.obj
 0001:0004f81c       ?fp_format_g@@YAHQEBNQEAD_K12H_NIQEAU__crt_locale_pointers@@@Z 000000018005081c f   libucrt:cvt.obj
 0001:0004f954       ?fp_format_nan_or_infinity@@YAHW4__acrt_fp_class@@_NPEAD_K1@Z 0000000180050954 f   libucrt:cvt.obj
 0001:00050274       ?write_double_translated_ansi_nolock@@YA?AUwrite_result@?A0x9c548279@@HQEBDI@Z 0000000180051274 f   libucrt:write.obj
 0001:0005047c       ?write_text_ansi_nolock@@YA?AUwrite_result@?A0x9c548279@@HQEBDI@Z 000000018005147c f   libucrt:write.obj
 0001:00050584       ?write_text_utf16le_nolock@@YA?AUwrite_result@?A0x9c548279@@HQEBDI@Z 0000000180051584 f   libucrt:write.obj
 0001:000506a0       ?write_text_utf8_nolock@@YA?AUwrite_result@?A0x9c548279@@HQEBDI@Z 00000001800516a0 f   libucrt:write.obj
 0001:00050c24       ?__acrt_LCMapStringA_stat@@YAHPEAU__crt_locale_pointers@@PEB_WKPEBDHPEADHHH@Z 0000000180051c24 f   libucrt:lcmapstringa.obj
 0001:0005159c       ?free_crt_array_internal@@YAXQEAPEBX_K@Z 000000018005259c f   libucrt:inittime.obj
 0001:000518b0       ?GetTableIndexFromLocaleName@@YAHPEB_W@Z 00000001800528b0 f   libucrt:lcidtoname_downlevel.obj
 0001:000519ac       ?initialize_multibyte@@YAHXZ 00000001800529ac f   libucrt:multibyte_initializer.obj
 0001:000536fc       memcpy_s                   00000001800546fc f   libucrt:cfout.obj
 0001:00053784       ??$write_buffer_nolock@D@@YA_NDV__crt_stdio_stream@@@Z 0000000180054784 f   libucrt:_flsbuf.obj
 0001:00053888       ??$write_buffer_nolock@_W@@YA_N_WV__crt_stdio_stream@@@Z 0000000180054888 f   libucrt:_flsbuf.obj
 0001:00053c58       ??$common_lseek@_J@@YA_JH_JH@Z 0000000180054c58 f   libucrt:lseek.obj
 0001:00053d48       ??$common_lseek_nolock@_J@@YA_JH_JH@Z 0000000180054d48 f   libucrt:lseek.obj
 0001:00053ff0       $$000000                   0000000180054ff0     libucrt:log10.obj
 0001:000549a4       common_control87           00000001800559a4 f   libucrt:ieee.obj
 0001:00054c3c       _call_matherr              0000000180055c3c f   libucrt:libm_error.obj
 0001:00054ca4       _exception_enabled         0000000180055ca4 f   libucrt:libm_error.obj
 0001:00054f60       _log_special_common        0000000180055f60 f   libucrt:log_special.obj
 0001:00055000       $$000000                   0000000180056000     libucrt:fpsr.obj
 0001:00055cb0       $$000000                   0000000180056cb0     LIBCMT:_chkstk_.obj
 0001:00055d20       $$000000                   0000000180056d20     libvcruntime:memcmp.obj
 0001:00056690       $$000000                   0000000180057690     libucrt:cos.obj
 0001:00056c10       $$000000                   0000000180057c10     libucrt:exp.obj
 0001:000570c0       $$000000                   00000001800580c0     libucrt:log.obj
 0001:000575f0       $$000000                   00000001800585f0     libucrt:pow.obj
 0001:00058d60       $$000000                   0000000180059d60     libucrt:remainder_piby2_forasm.obj
 0001:000590b0       $$000000                   000000018005a0b0     libucrt:remainder_piby2_forfma3.obj
 0001:0005932c       _sincos_special            000000018005a32c f   libucrt:sincos_special.obj
 0001:000595a0       $$000000                   000000018005a5a0     LIBCMT:_guard_dispatch_.obj
 0001:000595c0       ?fin$0@?0??dllmain_crt_process_attach@@YAHQEAUHINSTANCE__@@QEAX@Z@4HA 000000018005a5c0 f   LIBCMT:dll_dllmain.obj
 0001:000595d7       ?fin$0@?0??dllmain_crt_process_detach@@YAH_N@Z@4HA 000000018005a5d7 f   LIBCMT:dll_dllmain.obj
 0001:000595f3       ?filt$0@?0??dllmain_dispatch@@YAHQEAUHINSTANCE__@@KQEAX@Z@4HA 000000018005a5f3 f   LIBCMT:dll_dllmain.obj
 0001:00059629       __scrt_is_nonwritable_in_current_image$filt$0 000000018005a629 f   LIBCMT:utility.obj
 0001:00059641       _query_new_handler$fin$0   000000018005a641 f   libucrt:new_handler.obj
 0001:00059657       ?filt$0@?0??common_exit@@YAXHW4_crt_exit_cleanup_mode@@W4_crt_exit_return_mode@@@Z@4HA 000000018005a657 f   libucrt:exit.obj
 0001:00059672       ?fin$1@?0??common_exit@@YAXHW4_crt_exit_cleanup_mode@@W4_crt_exit_return_mode@@@Z@4HA 000000018005a672 f   libucrt:exit.obj
 0001:0005968b       ?fin$0@?0???$?RV<lambda_e24bbb7b643b32fcea6fa61b31d4c984>@@AEAV<lambda_275893d493268fdec8709772e3fcec0e>@@V<lambda_9d71df4d7cf3f480f8d633942495c3b0>@@@?$__crt_seh_guarded_call@H@@QEAAH$$QEAV<lambda_e24bbb7b643b32fcea6fa61b31d4c984>@@AEAV<lambda_275893d493268fdec8709772e3fcec0e>@@$$QEAV<lambda_9d71df4d7cf3f480f8d633942495c3b0>@@@Z@4HA 000000018005a68b f   libucrt:onexit.obj
 0001:000596a8       common_flush_all$fin$0     000000018005a6a8 f   libucrt:fflush.obj
 0001:000596c2       common_flush_all$fin$1     000000018005a6c2 f   libucrt:fflush.obj
 0001:000596db       fflush$fin$0               000000018005a6db f   libucrt:fflush.obj
 0001:000596db       fclose$fin$0               000000018005a6db f   libucrt:fclose.obj
 0001:000596f3       ?fin$0@?0???$?RV<lambda_7b91131dde12e1c3dfc74ff76b3f2eac>@@AEAV<lambda_dd75445284c072d0bd3768540cc698fa>@@V<lambda_16bc4ecb55b4718497c16bceaea2ceaf>@@@?$__crt_seh_guarded_call@H@@QEAAH$$QEAV<lambda_7b91131dde12e1c3dfc74ff76b3f2eac>@@AEAV<lambda_dd75445284c072d0bd3768540cc698fa>@@$$QEAV<lambda_16bc4ecb55b4718497c16bceaea2ceaf>@@@Z@4HA 000000018005a6f3 f   libucrt:output.obj
 0001:000596f3       ?fin$0@?0???$?RV<lambda_7a5ef57ff966f610505f1d28a3d40618>@@AEAV<lambda_b721fa326cdb32351d23dfa67958c160>@@V<lambda_5e0fb27672408a07956fe59e48ccb2aa>@@@?$__crt_seh_guarded_call@H@@QEAAH$$QEAV<lambda_7a5ef57ff966f610505f1d28a3d40618>@@AEAV<lambda_b721fa326cdb32351d23dfa67958c160>@@$$QEAV<lambda_5e0fb27672408a07956fe59e48ccb2aa>@@@Z@4HA 000000018005a6f3 f   libucrt:setvbuf.obj
 0001:0005970e       raise$fin$0                000000018005a70e f   libucrt:signal.obj
 0001:00059732       ?fin$0@?0???$?RV<lambda_5e887d1dcbef67a5eb4283622ba103bf>@@AEAV<lambda_4466841279450cc726390878d4a41900>@@V<lambda_341c25c0346d94847f1f3c463c57e077>@@@?$__crt_seh_guarded_call@X@@QEAAX$$QEAV<lambda_5e887d1dcbef67a5eb4283622ba103bf>@@AEAV<lambda_4466841279450cc726390878d4a41900>@@$$QEAV<lambda_341c25c0346d94847f1f3c463c57e077>@@@Z@4HA 000000018005a732 f   libucrt:per_thread_data.obj
 0001:00059732       ?fin$0@?0???$?RV<lambda_b8c45f8f788dd370798f47cfe8ac3a86>@@AEAV<lambda_4e60a939b0d047cfe11ddc22648dfba9>@@V<lambda_332c3edc96d0294ec56c57d38c1cdfd5>@@@?$__crt_seh_guarded_call@H@@QEAAH$$QEAV<lambda_b8c45f8f788dd370798f47cfe8ac3a86>@@AEAV<lambda_4e60a939b0d047cfe11ddc22648dfba9>@@$$QEAV<lambda_332c3edc96d0294ec56c57d38c1cdfd5>@@@Z@4HA 000000018005a732 f   libucrt:onexit.obj
 0001:00059732       ?fin$0@?0???$?RV<lambda_c36588078e9f5dfd39652860aa6b3aaf>@@AEAV<lambda_ec61778202f4f5fc7e7711acc23c3bca>@@V<lambda_dc9d2797ccde5d239b4a0efae8ebd7db>@@@?$__crt_seh_guarded_call@P6AXH@Z@@QEAAP6AXH@Z$$QEAV<lambda_c36588078e9f5dfd39652860aa6b3aaf>@@AEAV<lambda_ec61778202f4f5fc7e7711acc23c3bca>@@$$QEAV<lambda_dc9d2797ccde5d239b4a0efae8ebd7db>@@@Z@4HA 000000018005a732 f   libucrt:signal.obj
 0001:00059732       ?fin$0@?0???$?RV<lambda_72d1df2b273a38828b1ce30cbf4cdab5>@@AEAV<lambda_876a65b173b8412d3a47c70a915b0cf4>@@V<lambda_41932305e351933ebe8f8be3ed8bb5dc>@@@?$__crt_seh_guarded_call@X@@QEAAX$$QEAV<lambda_72d1df2b273a38828b1ce30cbf4cdab5>@@AEAV<lambda_876a65b173b8412d3a47c70a915b0cf4>@@$$QEAV<lambda_41932305e351933ebe8f8be3ed8bb5dc>@@@Z@4HA 000000018005a732 f   libucrt:per_thread_data.obj
 0001:00059732       ?fin$0@?0???$?RV<lambda_99476a1ad63dd22509b5d3e65b0ffc95>@@AEAV<lambda_ad1ced32f4ac17aa236e5ef05d6b3b7c>@@V<lambda_f7424dd8d45958661754dc4f2697e9c3>@@@?$__crt_seh_guarded_call@X@@QEAAX$$QEAV<lambda_99476a1ad63dd22509b5d3e65b0ffc95>@@AEAV<lambda_ad1ced32f4ac17aa236e5ef05d6b3b7c>@@$$QEAV<lambda_f7424dd8d45958661754dc4f2697e9c3>@@@Z@4HA 000000018005a732 f   libucrt:mbctype.obj
 0001:00059732       ?fin$0@?0???$?RV<lambda_fb3a7dec4e47f37f22dae91bb15c9095>@@AEAV<lambda_698284760c8add0bfb0756c19673e34b>@@V<lambda_dfb8eca1e75fef3034a8fb18dd509707>@@@?$__crt_seh_guarded_call@X@@QEAAX$$QEAV<lambda_fb3a7dec4e47f37f22dae91bb15c9095>@@AEAV<lambda_698284760c8add0bfb0756c19673e34b>@@$$QEAV<lambda_dfb8eca1e75fef3034a8fb18dd509707>@@@Z@4HA 000000018005a732 f   libucrt:per_thread_data.obj
 0001:00059732       ?fin$0@?0???$?RV<lambda_46352004c1216016012b18bd6f87e700>@@AEAV<lambda_3bd07e1a1191394380780325891bf33f>@@V<lambda_334532d3f185bcaa59b5be82d7d22bff>@@@?$__crt_seh_guarded_call@X@@QEAAX$$QEAV<lambda_46352004c1216016012b18bd6f87e700>@@AEAV<lambda_3bd07e1a1191394380780325891bf33f>@@$$QEAV<lambda_334532d3f185bcaa59b5be82d7d22bff>@@@Z@4HA 000000018005a732 f   libucrt:per_thread_data.obj
 0001:0005974c       __acrt_update_thread_multibyte_data$fin$0 000000018005a74c f   libucrt:mbctype.obj
 0001:00059765       __acrt_initialize_lowio$fin$0 000000018005a765 f   libucrt:ioinit.obj
 0001:00059765       __acrt_lowio_ensure_fh_exists$fin$0 000000018005a765 f   libucrt:osfinfo.obj
 0001:0005977e       _fcloseall$fin$0           000000018005a77e f   libucrt:closeall.obj
 0001:00059797       ?fin$0@?0???$?RV<lambda_bfedae4ebbf01fab1bb6dcc6a9e276e0>@@AEAV<lambda_2fe9b910cf3cbf4a0ab98a02ba45b3ec>@@V<lambda_237c231691f317818eb88cc1d5d642d6>@@@?$__crt_seh_guarded_call@H@@QEAAH$$QEAV<lambda_bfedae4ebbf01fab1bb6dcc6a9e276e0>@@AEAV<lambda_2fe9b910cf3cbf4a0ab98a02ba45b3ec>@@$$QEAV<lambda_237c231691f317818eb88cc1d5d642d6>@@@Z@4HA 000000018005a797 f   libucrt:close.obj
 0001:00059797       ?fin$0@?0???$?RV<lambda_b521505b218e5242e90febf6bfebc422>@@AEAV<lambda_6978c1fb23f02e42e1d9e99668cc68aa>@@V<lambda_314360699dd331753a4119843814e9a7>@@@?$__crt_seh_guarded_call@H@@QEAAH$$QEAV<lambda_b521505b218e5242e90febf6bfebc422>@@AEAV<lambda_6978c1fb23f02e42e1d9e99668cc68aa>@@$$QEAV<lambda_314360699dd331753a4119843814e9a7>@@@Z@4HA 000000018005a797 f   libucrt:commit.obj
 0001:000597b1       __acrt_update_thread_locale_data$fin$0 000000018005a7b1 f   libucrt:locale_refcounting.obj
 0001:000597b1       __acrt_uninitialize_locale$fin$0 000000018005a7b1 f   libucrt:wsetlocale.obj
 0001:000597ca       _write$fin$0               000000018005a7ca f   libucrt:write.obj
 0001:000597ca       ?fin$0@?0???$common_lseek@_J@@YA_JH_JH@Z@4HA 000000018005a7ca f   libucrt:lseek.obj
 0001:000597e1       common_control87$filt$0    000000018005a7e1 f   libucrt:ieee.obj
 0001:000597e1       _ctrlfp$filt$0             000000018005a7e1 f   libucrt:fpctrl.obj
 0001:00059810       _IsNonwritableInCurrentImage$filt$0 000000018005a810 f   LIBCMT:pesect.obj
 0002:000002f8       GS_ExceptionPointers       000000018005b2f8     LIBCMT:gs_report.obj
 0002:000003d0       ?ExceptionTemplate@?1??_CxxThrowException@@9@4UEHExceptionRecord@@B 000000018005b3d0     libvcruntime:throw.obj
 0002:00000410       ?module_names@?A0x61ce2399@@3QBQEB_WB 000000018005b410     libvcruntime:winapi_downlevel.obj
 0002:000004dc       ?candidate_modules@?1??try_get_EventRegister@@YAP6AKPEBU_GUID@@P6AX0KE_K1PEAU_EVENT_FILTER_DESCRIPTOR@@PEAX@Z3PEA_K@ZXZ@4QBW4module_id@?A0x61ce2399@@B 000000018005b4dc     libvcruntime:winapi_downlevel.obj
 0002:000004f0       ?candidate_modules@?1??try_get_EventSetInformation@@YAP6AK_KW4_EVENT_INFO_CLASS@@PEAXK@ZXZ@4QBW4module_id@?A0x61ce2399@@B 000000018005b4f0     libvcruntime:winapi_downlevel.obj
 0002:0000050c       ?candidate_modules@?1??try_get_EventUnregister@@YAP6AK_K@ZXZ@4QBW4module_id@?A0x61ce2399@@B 000000018005b50c     libvcruntime:winapi_downlevel.obj
 0002:00000520       ?candidate_modules@?1??try_get_EventWriteTransfer@@YAP6AK_KPEBU_EVENT_DESCRIPTOR@@PEBU_GUID@@2KPEAU_EVENT_DATA_DESCRIPTOR@@@ZXZ@4QBW4module_id@?A0x61ce2399@@B 000000018005b520     libvcruntime:winapi_downlevel.obj
 0002:00000540       ?candidate_modules@?1??try_get_FlsAlloc@@YAP6AKP6AXPEAX@Z@ZXZ@4QBW4module_id@?A0x61ce2399@@B 000000018005b540     libvcruntime:winapi_downlevel.obj
 0002:00000558       ?candidate_modules@?1??try_get_FlsFree@@YAP6AHK@ZXZ@4QBW4module_id@?A0x61ce2399@@B 000000018005b558     libvcruntime:winapi_downlevel.obj
 0002:00000568       ?candidate_modules@?1??try_get_FlsGetValue@@YAP6APEAXK@ZXZ@4QBW4module_id@?A0x61ce2399@@B 000000018005b568     libvcruntime:winapi_downlevel.obj
 0002:00000580       ?candidate_modules@?1??try_get_FlsSetValue@@YAP6AHKPEAX@ZXZ@4QBW4module_id@?A0x61ce2399@@B 000000018005b580     libvcruntime:winapi_downlevel.obj
 0002:00000598       ?candidate_modules@?1??try_get_InitializeCriticalSectionEx@@YAP6AHPEAU_RTL_CRITICAL_SECTION@@KK@ZXZ@4QBW4module_id@?A0x61ce2399@@B 000000018005b598     libvcruntime:winapi_downlevel.obj
 0002:00000a80       ?rttiTable@@3QBQEBDB       000000018005ba80     libvcruntime:undname.obj
 0002:00000ab0       ?tokenTable@@3QBQEBDB      000000018005bab0     libvcruntime:undname.obj
 0002:00000b20       ?nameTable@@3QBQEBDB       000000018005bb20     libvcruntime:undname.obj
 0002:00001320       __acrt_initializers        000000018005c320     libucrt:initialization.obj
 0002:00001490       errtable                   000000018005c490     libucrt:errno.obj
 0002:00001c80       module_names               000000018005cc80     libucrt:winapi_thunks.obj
 0002:000021b0       ?candidate_modules@?1??try_get_FlsAlloc@@YAP6AKP6AXPEAX@Z@ZXZ@4QBW4module_id@?A0x63058377@@B 000000018005d1b0     libucrt:winapi_thunks.obj
 0002:000021b8       ?candidate_modules@?1??try_get_FlsFree@@YAP6AHK@ZXZ@4QBW4module_id@?A0x63058377@@B 000000018005d1b8     libucrt:winapi_thunks.obj
 0002:000021c0       ?candidate_modules@?1??try_get_FlsGetValue@@YAP6APEAXK@ZXZ@4QBW4module_id@?A0x63058377@@B 000000018005d1c0     libucrt:winapi_thunks.obj
 0002:000021c8       ?candidate_modules@?1??try_get_FlsSetValue@@YAP6AHKPEAX@ZXZ@4QBW4module_id@?A0x63058377@@B 000000018005d1c8     libucrt:winapi_thunks.obj
 0002:000021d0       ?candidate_modules@?1??try_get_GetActiveWindow@@YAP6APEAUHWND__@@XZXZ@4QBW4module_id@?A0x63058377@@B 000000018005d1d0     libucrt:winapi_thunks.obj
 0002:000021e8       ?candidate_modules@?1??try_get_GetCurrentPackageId@@YAP6AJPEAIPEAE@ZXZ@4QBW4module_id@?A0x63058377@@B 000000018005d1e8     libucrt:winapi_thunks.obj
 0002:00002208       ?candidate_modules@?1??try_get_GetLastActivePopup@@YAP6APEAUHWND__@@PEAU2@@ZXZ@4QBW4module_id@?A0x63058377@@B 000000018005d208     libucrt:winapi_thunks.obj
 0002:00002228       ?candidate_modules@?1??try_get_GetProcessWindowStation@@YAP6APEAUHWINSTA__@@XZXZ@4QBW4module_id@?A0x63058377@@B 000000018005d228     libucrt:winapi_thunks.obj
 0002:00002248       ?candidate_modules@?1??try_get_GetUserObjectInformationW@@YAP6AHPEAXH0KPEAK@ZXZ@4QBW4module_id@?A0x63058377@@B 000000018005d248     libucrt:winapi_thunks.obj
 0002:00002270       ?candidate_modules@?1??try_get_InitializeCriticalSectionEx@@YAP6AHPEAU_RTL_CRITICAL_SECTION@@KK@ZXZ@4QBW4module_id@?A0x63058377@@B 000000018005d270     libucrt:winapi_thunks.obj
 0002:00002278       ?candidate_modules@?1??try_get_LCMapStringEx@@YAP6AHPEB_WK0HPEA_WHPEAU_nlsversioninfo@@PEAX_J@ZXZ@4QBW4module_id@?A0x63058377@@B 000000018005d278     libucrt:winapi_thunks.obj
 0002:00002290       ?candidate_modules@?1??try_get_LocaleNameToLCID@@YAP6AKPEB_WK@ZXZ@4QBW4module_id@?A0x63058377@@B 000000018005d290     libucrt:winapi_thunks.obj
 0002:000022b0       ?candidate_modules@?1??try_get_MessageBoxA@@YAP6AHPEAUHWND__@@PEBD1I@ZXZ@4QBW4module_id@?A0x63058377@@B 000000018005d2b0     libucrt:winapi_thunks.obj
 0002:000022c8       ?candidate_modules@?1??try_get_MessageBoxW@@YAP6AHPEAUHWND__@@PEB_W1I@ZXZ@4QBW4module_id@?A0x63058377@@B 000000018005d2c8     libucrt:winapi_thunks.obj
 0002:000022e0       _mb_locale_names           000000018005d2e0     libucrt:mbctype.obj
 0002:00002bb0       LcidToLocaleNameTable      000000018005dbb0     libucrt:lcidtoname_downlevel.obj
 0002:00004600       LocaleNameToIndexTable     000000018005f600     libucrt:lcidtoname_downlevel.obj
 0002:00006890       __real_ninf                0000000180061890     libucrt:log10.obj
 0002:000068a0       __real_inf                 00000001800618a0     libucrt:log10.obj
 0002:000068b0       __real_neg_qnan            00000001800618b0     libucrt:log10.obj
 0002:000068c0       __real_qnanbit             00000001800618c0     libucrt:log10.obj
 0002:000068d0       __int_1023                 00000001800618d0     libucrt:log10.obj
 0002:000068e0       __mask_001                 00000001800618e0     libucrt:log10.obj
 0002:000068f0       __mask_mant                00000001800618f0     libucrt:log10.obj
 0002:00006900       __mask_mant_top8           0000000180061900     libucrt:log10.obj
 0002:00006910       __mask_mant9               0000000180061910     libucrt:log10.obj
 0002:00006920       __real_log10_e             0000000180061920     libucrt:log10.obj
 0002:00006930       __real_log10_e_lead        0000000180061930     libucrt:log10.obj
 0002:00006940       __real_log10_e_tail        0000000180061940     libucrt:log10.obj
 0002:00006950       __real_log10_2_lead        0000000180061950     libucrt:log10.obj
 0002:00006960       __real_log10_2_tail        0000000180061960     libucrt:log10.obj
 0002:00006970       __real_two                 0000000180061970     libucrt:log10.obj
 0002:00006980       __real_one                 0000000180061980     libucrt:log10.obj
 0002:00006990       __real_half                0000000180061990     libucrt:log10.obj
 0002:000069a0       __mask_100                 00000001800619a0     libucrt:log10.obj
 0002:000069b0       __real_1_over_512          00000001800619b0     libucrt:log10.obj
 0002:000069c0       __real_1_over_2            00000001800619c0     libucrt:log10.obj
 0002:000069d0       __real_1_over_3            00000001800619d0     libucrt:log10.obj
 0002:000069e0       __real_1_over_4            00000001800619e0     libucrt:log10.obj
 0002:000069f0       __real_1_over_5            00000001800619f0     libucrt:log10.obj
 0002:00006a00       __real_1_over_6            0000000180061a00     libucrt:log10.obj
 0002:00006a10       __real_neg_1023            0000000180061a10     libucrt:log10.obj
 0002:00006a20       __mask_2045                0000000180061a20     libucrt:log10.obj
 0002:00006a30       __real_threshold           0000000180061a30     libucrt:log10.obj
 0002:00006a40       __real_near_one_lt         0000000180061a40     libucrt:log10.obj
 0002:00006a50       __real_near_one_gt         0000000180061a50     libucrt:log10.obj
 0002:00006a60       __real_min_norm            0000000180061a60     libucrt:log10.obj
 0002:00006a70       __real_notsign             0000000180061a70     libucrt:log10.obj
 0002:00006a80       __real_ca1                 0000000180061a80     libucrt:log10.obj
 0002:00006a90       __real_ca2                 0000000180061a90     libucrt:log10.obj
 0002:00006aa0       __real_ca3                 0000000180061aa0     libucrt:log10.obj
 0002:00006ab0       __real_ca4                 0000000180061ab0     libucrt:log10.obj
 0002:00006ac0       __mask_lower               0000000180061ac0     libucrt:log10.obj
 0002:00006ad0       __flag_x_zero              0000000180061ad0     libucrt:log10.obj
 0002:00006ad4       __flag_x_neg               0000000180061ad4     libucrt:log10.obj
 0002:00006ad8       __flag_x_nan               0000000180061ad8     libucrt:log10.obj
 0002:00008330       __real@433fffffffffffff    0000000180063330     libucrt:fpsr.obj
 0002:00008338       __real@c33fffffffffffff    0000000180063338     libucrt:fpsr.obj
 0002:00008a00       mono_voice_bandwidth_thresholds 0000000180063a00     libopus:opus_encoder.obj
 0002:00008a20       stereo_voice_bandwidth_thresholds 0000000180063a20     libopus:opus_encoder.obj
 0002:00008a40       mode_thresholds            0000000180063a40     libopus:opus_encoder.obj
 0002:00008a50       mono_music_bandwidth_thresholds 0000000180063a50     libopus:opus_encoder.obj
 0002:00008a70       stereo_music_threshold     0000000180063a70     libopus:opus_encoder.obj
 0002:00008a74       stereo_voice_threshold     0000000180063a74     libopus:opus_encoder.obj
 0002:00008a78       spread_icdf                0000000180063a78     libopus:celt_encoder.obj
 0002:00008a7c       tapset_icdf                0000000180063a7c     libopus:celt_encoder.obj
 0002:00008a80       stereo_music_bandwidth_thresholds 0000000180063a80     libopus:opus_encoder.obj
 0002:00008aa0       analysis_window            0000000180063aa0     libopus:analysis.obj
 0002:00008e60       dct_table                  0000000180063e60     libopus:analysis.obj
 0002:00009060       extra_bands                0000000180064060     libopus:analysis.obj
 0002:000090b8       spread_icdf                00000001800640b8     libopus:celt_decoder.obj
 0002:000090c0       tbands                     00000001800640c0     libopus:analysis.obj
 0002:00009110       ?intensity_thresholds@?DN@??celt_encode_with_ec@@9@9 0000000180064110     libopus:celt_encoder.obj
 0002:00009164       tapset_icdf                0000000180064164     libopus:celt_decoder.obj
 0002:00009170       ?intensity_histeresis@?DN@??celt_encode_with_ec@@9@9 0000000180064170     libopus:celt_encoder.obj
 0002:000091c8       trim_icdf                  00000001800641c8     libopus:celt_encoder.obj
 0002:000091e0       ?inv_table@?1??transient_analysis@@9@9 00000001800641e0     libopus:celt_encoder.obj
 0002:00009260       trim_icdf                  0000000180064260     libopus:celt_decoder.obj
 0002:000092cc       silk_LBRR_flags_2_iCDF     00000001800642cc     libopus:tables_other.obj
 0002:000092d8       silk_LBRR_flags_3_iCDF     00000001800642d8     libopus:tables_other.obj
 0002:000093e0       delay_matrix_enc           00000001800643e0     libopus:resampler.obj
 0002:000093f0       delay_matrix_dec           00000001800643f0     libopus:resampler.obj
 0002:00009400       tansig_table               0000000180064400     libopus:mlp.obj
 0002:00009724       beta_intra                 0000000180064724     libopus:quant_bands.obj
 0002:00009728       ?gains@?1??comb_filter@@9@9 0000000180064728     libopus:celt.obj
 0002:00009768       topo                       0000000180064768     libopus:mlp_data.obj
 0002:00009774       small_energy_icdf          0000000180064774     libopus:quant_bands.obj
 0002:00009778       pred_coef                  0000000180064778     libopus:quant_bands.obj
 0002:00009788       static_mode_list           0000000180064788     libopus:modes.obj
 0002:00009790       weights                    0000000180064790     libopus:mlp_data.obj
 0002:00009e28       silk_NLSF_DELTA_MIN_NB_MB_Q15 0000000180064e28     libopus:tables_NLSF_CB_NB_MB.obj
 0002:00009e60       ?error_strings@?1??opus_strerror@@9@9 0000000180064e60     libopus:celt.obj
 0002:00009f08       beta_coef                  0000000180064f08     libopus:quant_bands.obj
 0002:00009f18       silk_NLSF_PRED_NB_MB_Q8    0000000180064f18     libopus:tables_NLSF_CB_NB_MB.obj
 0002:00009f30       e_prob_model               0000000180064f30     libopus:quant_bands.obj
 0002:0000a080       ?correction@?1??ec_tell_frac@@9@9 0000000180065080     libopus:entcode.obj
 0002:0000a0a0       ?bit_interleave_table@?5??quant_band@@9@9 00000001800650a0     libopus:bands.obj
 0002:0000a0b0       ordery_table               00000001800650b0     libopus:bands.obj
 0002:0000a128       ?exp2_table8@?1??compute_qn@@9@9 0000000180065128     libopus:bands.obj
 0002:0000a160       ?bit_deinterleave_table@?N@??quant_band@@9@9 0000000180065160     libopus:bands.obj
 0002:0000a170       LOG2_FRAC_TABLE            0000000180065170     libopus:rate.obj
 0002:0000a1a0       second_check               00000001800651a0     libopus:pitch.obj
 0002:0000a1e0       eband5ms                   00000001800651e0     libopus:modes.obj
 0002:0000a210       fft_state48000_960_2       0000000180065210     libopus:modes.obj
 0002:0000a258       logN400                    0000000180065258     libopus:modes.obj
 0002:0000a288       ?SPREAD_FACTOR@?1??exp_rotation@@9@9 0000000180065288     libopus:vq.obj
 0002:0000a2b8       silk_NLSF_DELTA_MIN_WB_Q15 00000001800652b8     libopus:tables_NLSF_CB_WB.obj
 0002:0000a2e0       fft_bitrev60               00000001800652e0     libopus:modes.obj
 0002:0000a358       silk_LTP_gain_vq_0         0000000180065358     libopus:tables_LTP.obj
 0002:0000a380       fft_bitrev120              0000000180065380     libopus:modes.obj
 0002:0000a470       fft_state48000_960_0       0000000180065470     libopus:modes.obj
 0002:0000a4b8       silk_LTP_gain_iCDF_0       00000001800654b8     libopus:tables_LTP.obj
 0002:0000a4c0       mdct_twiddles960           00000001800654c0     libopus:modes.obj
 0002:0000c0e0       fft_bitrev240              00000001800670e0     libopus:modes.obj
 0002:0000c2c0       cache_caps50               00000001800672c0     libopus:modes.obj
 0002:0000c370       cache_index50              0000000180067370     libopus:modes.obj
 0002:0000c468       silk_LTP_gain_BITS_Q5_2    0000000180067468     libopus:tables_LTP.obj
 0002:0000c488       silk_LTP_gain_BITS_Q5_0    0000000180067488     libopus:tables_LTP.obj
 0002:0000c490       window120                  0000000180067490     libopus:modes.obj
 0002:0000c670       fft_twiddles48000_960      0000000180067670     libopus:modes.obj
 0002:0000d570       cache_bits50               0000000180068570     libopus:modes.obj
 0002:0000d6f8       silk_LTP_gain_vq_0_gain    00000001800686f8     libopus:tables_LTP.obj
 0002:0000d700       mode48000_960_120          0000000180068700     libopus:modes.obj
 0002:0000d7a0       band_allocation            00000001800687a0     libopus:modes.obj
 0002:0000d888       silk_LTP_gain_iCDF_2       0000000180068888     libopus:tables_LTP.obj
 0002:0000d8c0       fft_state48000_960_3       00000001800688c0     libopus:modes.obj
 0002:0000d910       fft_bitrev480              0000000180068910     libopus:modes.obj
 0002:0000dcd0       fft_state48000_960_1       0000000180068cd0     libopus:modes.obj
 0002:0000dd30       tiltWeights                0000000180068d30     libopus:VAD.obj
 0002:0000dd80       silk_NLSF_CB2_iCDF_NB_MB   0000000180068d80     libopus:tables_NLSF_CB_NB_MB.obj
 0002:0000dde0       silk_NLSF_CB2_BITS_NB_MB_Q5 0000000180068de0     libopus:tables_NLSF_CB_NB_MB.obj
 0002:0000de28       silk_resampler_up2_hq_0    0000000180068e28     libopus:resampler_private_up2_HQ.obj
 0002:0000de30       silk_NLSF_CB2_SELECT_NB_MB 0000000180068e30     libopus:tables_NLSF_CB_NB_MB.obj
 0002:0000ded0       silk_NLSF_CB1_NB_MB_Q8     0000000180068ed0     libopus:tables_NLSF_CB_NB_MB.obj
 0002:0000e010       silk_NLSF_CB1_iCDF_NB_MB   0000000180069010     libopus:tables_NLSF_CB_NB_MB.obj
 0002:0000e090       silk_NLSF_CB2_iCDF_WB      0000000180069090     libopus:tables_NLSF_CB_WB.obj
 0002:0000e0d8       silk_NLSF_PRED_WB_Q8       00000001800690d8     libopus:tables_NLSF_CB_WB.obj
 0002:0000e0f8       silk_LTP_gain_vq_2_gain    00000001800690f8     libopus:tables_LTP.obj
 0002:0000e118       silk_resampler_up2_hq_1    0000000180069118     libopus:resampler_private_up2_HQ.obj
 0002:0000e120       silk_NLSF_CB1_WB_Q8        0000000180069120     libopus:tables_NLSF_CB_WB.obj
 0002:0000e320       silk_NLSF_CB2_BITS_WB_Q5   0000000180069320     libopus:tables_NLSF_CB_WB.obj
 0002:0000e390       silk_NLSF_CB2_SELECT_WB    0000000180069390     libopus:tables_NLSF_CB_WB.obj
 0002:0000e490       silk_NLSF_CB1_iCDF_WB      0000000180069490     libopus:tables_NLSF_CB_WB.obj
 0002:0000e510       silk_LTP_gain_vq_2         0000000180069510     libopus:tables_LTP.obj
 0002:0000e630       silk_LTP_gain_vq_1         0000000180069630     libopus:tables_LTP.obj
 0002:0000e698       silk_LTP_gain_vq_1_gain    0000000180069698     libopus:tables_LTP.obj
 0002:0000e6a8       silk_LTP_gain_BITS_Q5_1    00000001800696a8     libopus:tables_LTP.obj
 0002:0000e6b8       silk_LTP_gain_iCDF_1       00000001800696b8     libopus:tables_LTP.obj
 0002:0000e754       PLC_RAND_ATTENUATE_UV_Q15  0000000180069754     libopus:PLC.obj
 0002:0000e758       HARM_ATT_Q15               0000000180069758     libopus:PLC.obj
 0002:0000e814       PLC_RAND_ATTENUATE_V_Q15   0000000180069814     libopus:PLC.obj
 0002:0000e818       A_fb1_21                   0000000180069818     libopus:ana_filt_bank_1.obj
 0002:0000e844       A_fb1_20                   0000000180069844     libopus:ana_filt_bank_1.obj
 0002:0000e848       sigm_LUT_neg_Q15           0000000180069848     libopus:sigm_Q15.obj
 0002:0000e908       sigm_LUT_pos_Q15           0000000180069908     libopus:sigm_Q15.obj
 0002:0000e9b8       sigm_LUT_slope_Q10         00000001800699b8     libopus:sigm_Q15.obj
 0002:0000ec40       CELT_PVQ_U_ROW             0000000180069c40     libopus:cwrs.obj
 0002:0000ecb8       silk_resampler_down2_1     0000000180069cb8     libopus:resampler_down2.obj
 0002:0000ecc0       CELT_PVQ_U_DATA            0000000180069cc0     libopus:cwrs.obj
 0002:000100a0       ?ordering16@?1??silk_NLSF2A@@9@9 000000018006b0a0     libopus:NLSF2A.obj
 0002:000100b0       ?ordering10@?1??silk_NLSF2A@@9@9 000000018006b0b0     libopus:NLSF2A.obj
 0002:000100d8       silk_resampler_down2_0     000000018006b0d8     libopus:resampler_down2.obj
 0002:00010830       ?atan_jby256_lead@?1??atan2@@9@9 000000018006b830     libucrt:atan2.obj
 0002:00010fc0       ?atan_jby256_tail@?1??atan2@@9@9 000000018006bfc0     libucrt:atan2.obj
 0002:00011810       L_real_piby2_1             000000018006c810     libucrt:cos.obj
 0002:00011820       L_real_piby2_1tail         000000018006c820     libucrt:cos.obj
 0002:00011830       L_real_piby2_2             000000018006c830     libucrt:cos.obj
 0002:00011840       L_real_piby2_2tail         000000018006c840     libucrt:cos.obj
 0002:00011850       L_one                      000000018006c850     libucrt:cos.obj
 0002:00011860       L_signbit                  000000018006c860     libucrt:cos.obj
 0002:00011870       L_int_one                  000000018006c870     libucrt:cos.obj
 0002:00011880       L_int_two                  000000018006c880     libucrt:cos.obj
 0002:00011890       L_2_by_pi                  000000018006c890     libucrt:cos.obj
 0002:00011898       L_one_half                 000000018006c898     libucrt:cos.obj
 0002:000118a0       L_neg_one_half             000000018006c8a0     libucrt:cos.obj
 0002:000118a8       L_two_to_neg_27            000000018006c8a8     libucrt:cos.obj
 0002:000118b0       L_two_to_neg_13            000000018006c8b0     libucrt:cos.obj
 0002:000118b8       L_piby4                    000000018006c8b8     libucrt:cos.obj
 0002:000118c0       L_small_arg_cw             000000018006c8c0     libucrt:cos.obj
 0002:000118c8       L_small_arg_bdl            000000018006c8c8     libucrt:cos.obj
 0002:000118d0       L_sign_mask                000000018006c8d0     libucrt:cos.obj
 0002:000118d8       L__inf_mask_64             000000018006c8d8     libucrt:cos.obj
 0002:000118e0       L_2_to_32                  000000018006c8e0     libucrt:cos.obj
 0002:000118f0       __flag_x_nan               000000018006c8f0     libucrt:exp.obj
 0002:000118f4       __flag_y_zero              000000018006c8f4     libucrt:exp.obj
 0002:000118f8       __flag_y_inf               000000018006c8f8     libucrt:exp.obj
 0002:00011900       L__real_1_by_720           000000018006c900     libucrt:exp.obj
 0002:00011910       L__real_1_by_120           000000018006c910     libucrt:exp.obj
 0002:00011920       L__real_1_by_6             000000018006c920     libucrt:exp.obj
 0002:00011930       L__real_1_by_2             000000018006c930     libucrt:exp.obj
 0002:00011940       L__real_1_by_24            000000018006c940     libucrt:exp.obj
 0002:00011950       L__log2_by_64_mtail_mhead  000000018006c950     libucrt:exp.obj
 0002:00011960       L__ln_of_smallest_normal   000000018006c960     libucrt:exp.obj
 0002:00011968       L__zero                    000000018006c968     libucrt:exp.obj
 0002:00011970       L__max_exp_arg             000000018006c970     libucrt:exp.obj
 0002:00011978       L__denormal_tiny_threshold 000000018006c978     libucrt:exp.obj
 0002:00011980       L__min_exp_arg             000000018006c980     libucrt:exp.obj
 0002:00011988       L__real_64_by_log2         000000018006c988     libucrt:exp.obj
 0002:00011990       L__positive_infinity       000000018006c990     libucrt:exp.obj
 0002:00011998       L__negative_infinity       000000018006c998     libucrt:exp.obj
 0002:000119a0       L__real_qnanbit            000000018006c9a0     libucrt:exp.obj
 0002:000119a8       L__real_x_near0_threshold  000000018006c9a8     libucrt:exp.obj
 0002:000119b0       L__log2_by_64_mhead        000000018006c9b0     libucrt:exp.obj
 0002:000119b8       L__log2_by_64_mtail        000000018006c9b8     libucrt:exp.obj
 0002:000119c0       L__real_smallest_denormal  000000018006c9c0     libucrt:exp.obj
 0002:000119c8       L__real_one                000000018006c9c8     libucrt:exp.obj
 0002:000119d0       L__2_to_neg_26             000000018006c9d0     libucrt:exp.obj
 0002:000119d8       L__2_to_32                 000000018006c9d8     libucrt:exp.obj
 0002:000119e0       L__min_normal              000000018006c9e0     libucrt:exp.obj
 0002:000119e8       L__2_to_neg_63             000000018006c9e8     libucrt:exp.obj
 0002:00011a00       __real_ninf                000000018006ca00     libucrt:log.obj
 0002:00011a10       __real_inf                 000000018006ca10     libucrt:log.obj
 0002:00011a20       __real_neg_qnan            000000018006ca20     libucrt:log.obj
 0002:00011a30       __real_qnanbit             000000018006ca30     libucrt:log.obj
 0002:00011a40       __real_min_norm            000000018006ca40     libucrt:log.obj
 0002:00011a50       __real_mant                000000018006ca50     libucrt:log.obj
 0002:00011a60       __mask_1023                000000018006ca60     libucrt:log.obj
 0002:00011a70       __mask_001                 000000018006ca70     libucrt:log.obj
 0002:00011a80       __mask_mant_all8           000000018006ca80     libucrt:log.obj
 0002:00011a90       __mask_mant9               000000018006ca90     libucrt:log.obj
 0002:00011aa0       __real_two                 000000018006caa0     libucrt:log.obj
 0002:00011ab0       __real_one                 000000018006cab0     libucrt:log.obj
 0002:00011ac0       __real_near_one_lt         000000018006cac0     libucrt:log.obj
 0002:00011ad0       __real_near_one_gt         000000018006cad0     libucrt:log.obj
 0002:00011ae0       __real_half                000000018006cae0     libucrt:log.obj
 0002:00011af0       __mask_100                 000000018006caf0     libucrt:log.obj
 0002:00011b00       __real_1_over_512          000000018006cb00     libucrt:log.obj
 0002:00011b10       __real_1_over_2            000000018006cb10     libucrt:log.obj
 0002:00011b20       __real_1_over_3            000000018006cb20     libucrt:log.obj
 0002:00011b30       __real_1_over_4            000000018006cb30     libucrt:log.obj
 0002:00011b40       __real_1_over_5            000000018006cb40     libucrt:log.obj
 0002:00011b50       __real_1_over_6            000000018006cb50     libucrt:log.obj
 0002:00011b60       __mask_1023_f              000000018006cb60     libucrt:log.obj
 0002:00011b70       __mask_2045                000000018006cb70     libucrt:log.obj
 0002:00011b80       __real_threshold           000000018006cb80     libucrt:log.obj
 0002:00011b90       __real_notsign             000000018006cb90     libucrt:log.obj
 0002:00011ba0       __real_ca1                 000000018006cba0     libucrt:log.obj
 0002:00011bb0       __real_ca2                 000000018006cbb0     libucrt:log.obj
 0002:00011bc0       __real_ca3                 000000018006cbc0     libucrt:log.obj
 0002:00011bd0       __real_ca4                 000000018006cbd0     libucrt:log.obj
 0002:00011be0       __real_log2_lead           000000018006cbe0     libucrt:log.obj
 0002:00011bf0       __real_log2_tail           000000018006cbf0     libucrt:log.obj
 0002:00011c00       __flag_x_zero              000000018006cc00     libucrt:log.obj
 0002:00011c04       __flag_x_neg               000000018006cc04     libucrt:log.obj
 0002:00011c08       __flag_x_nan               000000018006cc08     libucrt:log.obj
 0002:00011c10       __flag_x_one_y_snan        000000018006cc10     libucrt:pow.obj
 0002:00011c14       __flag_x_zero_z_inf        000000018006cc14     libucrt:pow.obj
 0002:00011c18       __flag_x_nan               000000018006cc18     libucrt:pow.obj
 0002:00011c1c       __flag_y_nan               000000018006cc1c     libucrt:pow.obj
 0002:00011c20       __flag_x_nan_y_nan         000000018006cc20     libucrt:pow.obj
 0002:00011c24       __flag_x_neg_y_notint      000000018006cc24     libucrt:pow.obj
 0002:00011c28       __flag_z_zero              000000018006cc28     libucrt:pow.obj
 0002:00011c2c       __flag_z_denormal          000000018006cc2c     libucrt:pow.obj
 0002:00011c30       __flag_z_inf               000000018006cc30     libucrt:pow.obj
 0002:00011c40       __ay_max_bound             000000018006cc40     libucrt:pow.obj
 0002:00011c48       __ay_min_bound             000000018006cc48     libucrt:pow.obj
 0002:00011c50       __sign_mask                000000018006cc50     libucrt:pow.obj
 0002:00011c58       __sign_and_exp_mask        000000018006cc58     libucrt:pow.obj
 0002:00011c60       __exp_mask                 000000018006cc60     libucrt:pow.obj
 0002:00011c68       __neg_inf                  000000018006cc68     libucrt:pow.obj
 0002:00011c70       __pos_inf                  000000018006cc70     libucrt:pow.obj
 0002:00011c78       __pos_one                  000000018006cc78     libucrt:pow.obj
 0002:00011c80       __pos_zero                 000000018006cc80     libucrt:pow.obj
 0002:00011c88       __exp_mant_mask            000000018006cc88     libucrt:pow.obj
 0002:00011c90       __mant_mask                000000018006cc90     libucrt:pow.obj
 0002:00011c98       __ind_pattern              000000018006cc98     libucrt:pow.obj
 0002:00011ca0       __neg_qnan                 000000018006cca0     libucrt:pow.obj
 0002:00011ca8       __qnan                     000000018006cca8     libucrt:pow.obj
 0002:00011cb0       __qnan_set                 000000018006ccb0     libucrt:pow.obj
 0002:00011cb8       __neg_one                  000000018006ccb8     libucrt:pow.obj
 0002:00011cc0       __neg_zero                 000000018006ccc0     libucrt:pow.obj
 0002:00011cc8       __exp_shift                000000018006ccc8     libucrt:pow.obj
 0002:00011cd0       __exp_bias                 000000018006ccd0     libucrt:pow.obj
 0002:00011cd8       __exp_bias_m1              000000018006ccd8     libucrt:pow.obj
 0002:00011ce0       __yexp_53                  000000018006cce0     libucrt:pow.obj
 0002:00011ce8       __mant_full                000000018006cce8     libucrt:pow.obj
 0002:00011cf0       __1_before_mant            000000018006ccf0     libucrt:pow.obj
 0002:00011cf8       __mask_mant_all8           000000018006ccf8     libucrt:pow.obj
 0002:00011d00       __mask_mant9               000000018006cd00     libucrt:pow.obj
 0002:00011d10       __real_fffffffff8000000    000000018006cd10     libucrt:pow.obj
 0002:00011d20       __mask_8000000000000000    000000018006cd20     libucrt:pow.obj
 0002:00011d30       __real_4090040000000000    000000018006cd30     libucrt:pow.obj
 0002:00011d40       __real_C090C80000000000    000000018006cd40     libucrt:pow.obj
 0002:00011d50       __real_ninf                000000018006cd50     libucrt:pow.obj
 0002:00011d60       __real_inf                 000000018006cd60     libucrt:pow.obj
 0002:00011d70       __real_nan                 000000018006cd70     libucrt:pow.obj
 0002:00011d80       __real_mant                000000018006cd80     libucrt:pow.obj
 0002:00011d90       __mask_1023                000000018006cd90     libucrt:pow.obj
 0002:00011da0       __mask_001                 000000018006cda0     libucrt:pow.obj
 0002:00011db0       __real_log2_lead           000000018006cdb0     libucrt:pow.obj
 0002:00011dc0       __real_log2_tail           000000018006cdc0     libucrt:pow.obj
 0002:00011dd0       __real_two                 000000018006cdd0     libucrt:pow.obj
 0002:00011de0       __real_one                 000000018006cde0     libucrt:pow.obj
 0002:00011df0       __real_half                000000018006cdf0     libucrt:pow.obj
 0002:00011e00       __mask_100                 000000018006ce00     libucrt:pow.obj
 0002:00011e10       __real_1_over_2            000000018006ce10     libucrt:pow.obj
 0002:00011e20       __real_1_over_3            000000018006ce20     libucrt:pow.obj
 0002:00011e30       __real_1_over_4            000000018006ce30     libucrt:pow.obj
 0002:00011e40       __real_1_over_5            000000018006ce40     libucrt:pow.obj
 0002:00011e50       __real_1_over_6            000000018006ce50     libucrt:pow.obj
 0002:00011e60       __real_1_over_7            000000018006ce60     libucrt:pow.obj
 0002:00011e70       __mask_1023_f              000000018006ce70     libucrt:pow.obj
 0002:00011e80       __mask_2045                000000018006ce80     libucrt:pow.obj
 0002:00011e90       __real_threshold           000000018006ce90     libucrt:pow.obj
 0002:00011ea0       __real_notsign             000000018006cea0     libucrt:pow.obj
 0002:00011eb0       __log_F_inv_head           000000018006ceb0     libucrt:pow.obj
 0002:000126c0       __log_F_inv_tail           000000018006d6c0     libucrt:pow.obj
 0002:00012ed0       __denormal_threshold       000000018006ded0     libucrt:pow.obj
 0002:00012ee0       __enable_almost_inf        000000018006dee0     libucrt:pow.obj
 0002:00012ef0       __real_zero                000000018006def0     libucrt:pow.obj
 0002:00012f00       __real_smallest_denormal   000000018006df00     libucrt:pow.obj
 0002:00012f10       __denormal_tiny_threshold  000000018006df10     libucrt:pow.obj
 0002:00012f20       __real_p65536              000000018006df20     libucrt:pow.obj
 0002:00012f30       __real_m68800              000000018006df30     libucrt:pow.obj
 0002:00012f40       __real_64_by_log2          000000018006df40     libucrt:pow.obj
 0002:00012f50       __real_log2_by_64_head     000000018006df50     libucrt:pow.obj
 0002:00012f60       __real_log2_by_64_tail     000000018006df60     libucrt:pow.obj
 0002:00012f70       __real_1_by_720            000000018006df70     libucrt:pow.obj
 0002:00012f80       __real_1_by_120            000000018006df80     libucrt:pow.obj
 0002:00012f90       __real_1_by_24             000000018006df90     libucrt:pow.obj
 0002:00012fa0       __real_1_by_6              000000018006dfa0     libucrt:pow.obj
 0002:00012fb0       __real_1_by_2              000000018006dfb0     libucrt:pow.obj
 0002:00013080       L__piby2_part3_piby2_lead  000000018006e080     libucrt:remainder_piby2_forasm.obj
 0002:00013090       L__piby2_part1             000000018006e090     libucrt:remainder_piby2_forasm.obj
 0002:000130a0       L__piby2_part2             000000018006e0a0     libucrt:remainder_piby2_forasm.obj
 0002:000130b0       L_piby2_1                  000000018006e0b0     libucrt:remainder_piby2_forasm.obj
 0002:000130c0       L_piby2_2                  000000018006e0c0     libucrt:remainder_piby2_forasm.obj
 0002:000130d0       L_piby2_3                  000000018006e0d0     libucrt:remainder_piby2_forasm.obj
 0002:000130e0       L_piby2_1tail              000000018006e0e0     libucrt:remainder_piby2_forasm.obj
 0002:000130f0       L_piby2_2tail              000000018006e0f0     libucrt:remainder_piby2_forasm.obj
 0002:00013100       L_piby2_3tail              000000018006e100     libucrt:remainder_piby2_forasm.obj
 0002:00013110       L_twobypi                  000000018006e110     libucrt:remainder_piby2_forasm.obj
 0002:00013120       L_point_five               000000018006e120     libucrt:remainder_piby2_forasm.obj
 0002:00013130       L_int_three                000000018006e130     libucrt:remainder_piby2_forasm.obj
 0002:00013140       L_inf_mask_64              000000018006e140     libucrt:remainder_piby2_forasm.obj
 0002:00013150       L_signbit                  000000018006e150     libucrt:remainder_piby2_forasm.obj
 0002:00013160       L_int_1                    000000018006e160     libucrt:remainder_piby2_forasm.obj
 0002:00013170       L_int_15                   000000018006e170     libucrt:remainder_piby2_forasm.obj
 0002:00013178       L_int_48                   000000018006e178     libucrt:remainder_piby2_forasm.obj
 0002:00013180       L_3pio4                    000000018006e180     libucrt:remainder_piby2_forasm.obj
 0002:00013188       L_5pio4                    000000018006e188     libucrt:remainder_piby2_forasm.obj
 0002:00013190       L_7pio4                    000000018006e190     libucrt:remainder_piby2_forasm.obj
 0002:00013198       L_9pio4                    000000018006e198     libucrt:remainder_piby2_forasm.obj
 0002:000131a0       L__2_by_pi_bits            000000018006e1a0     libucrt:remainder_piby2_forasm.obj
 0002:00013240       L_piby2_lead               000000018006e240     libucrt:remainder_piby2_forfma3.obj
 0002:00013250       L_fff800                   000000018006e250     libucrt:remainder_piby2_forfma3.obj
 0002:00013260       L_piby2_part1              000000018006e260     libucrt:remainder_piby2_forfma3.obj
 0002:00013270       L_piby2_part2              000000018006e270     libucrt:remainder_piby2_forfma3.obj
 0002:00013280       L_piby2_part3              000000018006e280     libucrt:remainder_piby2_forfma3.obj
 0002:00013290       L_piby2_1                  000000018006e290     libucrt:remainder_piby2_forfma3.obj
 0002:000132a0       L_piby2_2                  000000018006e2a0     libucrt:remainder_piby2_forfma3.obj
 0002:000132b0       L_piby2_3                  000000018006e2b0     libucrt:remainder_piby2_forfma3.obj
 0002:000132c0       L_piby2_1tail              000000018006e2c0     libucrt:remainder_piby2_forfma3.obj
 0002:000132d0       L_piby2_2tail              000000018006e2d0     libucrt:remainder_piby2_forfma3.obj
 0002:000132e0       L_piby2_3tail              000000018006e2e0     libucrt:remainder_piby2_forfma3.obj
 0002:000132f0       L_sign_mask                000000018006e2f0     libucrt:remainder_piby2_forfma3.obj
 0002:00013300       L_twobypi                  000000018006e300     libucrt:remainder_piby2_forfma3.obj
 0002:00013310       L_point_five               000000018006e310     libucrt:remainder_piby2_forfma3.obj
 0002:00013320       L_int_three                000000018006e320     libucrt:remainder_piby2_forfma3.obj
 0002:00013330       L_inf_mask_64              000000018006e330     libucrt:remainder_piby2_forfma3.obj
 0002:00013340       L_signbit                  000000018006e340     libucrt:remainder_piby2_forfma3.obj
 0002:00013350       L_r                        000000018006e350     libucrt:remainder_piby2_forfma3.obj
 0002:00013360       L_xc1                      000000018006e360     libucrt:remainder_piby2_forfma3.obj
 0002:00013370       L_xc2                      000000018006e370     libucrt:remainder_piby2_forfma3.obj
 0002:00013380       L_xc3                      000000018006e380     libucrt:remainder_piby2_forfma3.obj
 0002:00013390       L_sigma                    000000018006e390     libucrt:remainder_piby2_forfma3.obj
 0002:00014cc0       ?_TlgEvent@?3??__telemetry_main_invoke_trigger@@9@4U<unnamed-type-_TlgEvent>@?3??1@YAXQEAUHINSTANCE__@@@Z@B 000000018006fcc0     libvcruntime:telemetry.obj
 0002:00014cfc       ?_TlgEvent@?3??__telemetry_main_return_trigger@@9@4U<unnamed-type-_TlgEvent>@?3??1@YAXQEAUHINSTANCE__@@@Z@B 000000018006fcfc     libvcruntime:telemetry.obj
 0002:00014d37       ?_Tlg_Microsoft_CRTProviderProv_Meta@@3U<unnamed-type-_Tlg_Microsoft_CRTProviderProv_Meta>@@B 000000018006fd37     libvcruntime:telemetry.obj
 0002:000151d8       $unwind$__scrt_release_startup_lock 00000001800701d8     LIBCMT:utility.obj
 0002:000151d8       $unwind$?exit_or_terminate_process@@YAXI@Z 00000001800701d8     libucrt:exit.obj
 0002:000151d8       $unwind$__acrt_uninitialize_locks 00000001800701d8     libucrt:locks.obj
 0002:000151d8       $unwind$_onexit            00000001800701d8     LIBCMT:utility.obj
 0002:000151d8       $unwind$__acrt_initialize_locks 00000001800701d8     libucrt:locks.obj
 0002:000151d8       $unwind$strcpy_s           00000001800701d8     libucrt:strcpy_s.obj
 0002:000151d8       $unwind$opus_encoder_get_size 00000001800701d8     libopus:opus_encoder.obj
 0002:000151d8       $unwind$fesetenv           00000001800701d8     libucrt:fesetenv.obj
 0002:000151d8       $unwind$__scrt_initialize_crt 00000001800701d8     LIBCMT:utility.obj
 0002:000151d8       $unwind$??2@YAPEAX_K@Z     00000001800701d8     LIBCMT:new_scalar.obj
 0002:000151d8       $unwind$??$message_box_wait_thread@_W@@YAKQEAX@Z 00000001800701d8     libucrt:crtmbox.obj
 0002:000151d8       $unwind$wcscat_s           00000001800701d8     libucrt:wcscat_s.obj
 0002:000151d8       $unwind$?WeakCallback@ObjectWrap@node@@CAXAEBV?$WeakCallbackInfo@VObjectWrap@node@@@v8@@@Z 00000001800701d8     node-opus.obj
 0002:000151d8       $unwind$??0?$output_processor@_WV?$stream_output_adapter@_W@__crt_stdio_output@@V?$standard_base@_WV?$stream_output_adapter@_W@__crt_stdio_output@@@2@@__crt_stdio_output@@QEAA@AEBV?$stream_output_adapter@_W@1@_KQEB_WQEAU__crt_locale_pointers@@QEAD@Z 00000001800701d8     libucrt:output.obj
 0002:000151d8       $unwind$feholdexcept       00000001800701d8     libucrt:feholdexcept.obj
 0002:000151d8       $unwind$wcscpy_s           00000001800701d8     libucrt:wcscpy_s.obj
 0002:000151d8       $unwind$_fflush_nolock     00000001800701d8     libucrt:fflush.obj
 0002:000151d8       $unwind$__acrt_freeptd     00000001800701d8     libucrt:per_thread_data.obj
 0002:000151d8       $unwind$__acrt_stdio_allocate_buffer_nolock 00000001800701d8     libucrt:_getbuf.obj
 0002:000151d8       $unwind$_clrfp             00000001800701d8     libucrt:fpctrl.obj
 0002:000151d8       $unwind$_setfpstatusword   00000001800701d8     libucrt:_fenvutils.obj
 0002:000151d8       $unwind$_clearfp           00000001800701d8     libucrt:ieee.obj
 0002:000151d8       $unwind$__acrt_uninitialize_winapi_thunks 00000001800701d8     libucrt:winapi_thunks.obj
 0002:000151d8       $unwind$ec_dec_bit_logp    00000001800701d8     libopus:entdec.obj
 0002:000151d8       $unwind$__acrt_stdio_free_buffer_nolock 00000001800701d8     libucrt:_freebuf.obj
 0002:000151d8       $unwind$__vcrt_initialize_locks 00000001800701d8     libvcruntime:locks.obj
 0002:000151d8       $unwind$__raise_securityfailure 00000001800701d8     LIBCMT:gs_report.obj
 0002:000151d8       $unwind$__scrt_uninitialize_crt 00000001800701d8     LIBCMT:utility.obj
 0002:000151d8       $unwind$__acrt_update_locale_info 00000001800701d8     libucrt:locale_update.obj
 0002:000151d8       $unwind$initialize_pointers 00000001800701d8     libucrt:initialization.obj
 0002:000151d8       $unwind$?type_case_integer@?$output_processor@_WV?$string_output_adapter@_W@__crt_stdio_output@@V?$standard_base@_WV?$string_output_adapter@_W@__crt_stdio_output@@@2@@__crt_stdio_output@@AEAA_NI_N@Z 00000001800701d8     libucrt:output.obj
 0002:000151d8       $unwind$??0bad_array_new_length@std@@QEAA@AEBV01@@Z 00000001800701d8     LIBCMT:throw_bad_alloc.obj
 0002:000151d8       $unwind$uninitialize_allocated_memory 00000001800701d8     libucrt:initialization.obj
 0002:000151d8       $unwind$??1ObjectWrap@node@@UEAA@XZ 00000001800701d8     node-opus.obj
 0002:000151d8       $unwind$?load_exe_hook@@YAP6A_JXZIPEAUDelayLoadInfo@@@Z 00000001800701d8     win_delay_load_hook.obj
 0002:000151d8       $unwind$_set_statfp        00000001800701d8     libucrt:fpctrl.obj
 0002:000151d8       $unwind$__acrt_fp_strflt_to_string 00000001800701d8     libucrt:_fptostr.obj
 0002:000151d8       $unwind$__acrt_update_multibyte_info 00000001800701d8     libucrt:locale_update.obj
 0002:000151d8       $unwind$__std_exception_destroy 00000001800701d8     libvcruntime:std_exception.obj
 0002:000151d8       $unwind$opus_decoder_get_size 00000001800701d8     libopus:opus_decoder.obj
 0002:000151d8       $unwind$??0exception@std@@QEAA@AEBV01@@Z 00000001800701d8     LIBCMT:throw_bad_alloc.obj
 0002:000151d8       $unwind$fegetenv           00000001800701d8     libucrt:fegetenv.obj
 0002:000151d8       $unwind$__std_type_info_destroy_list 00000001800701d8     libvcruntime:std_type_info.obj
 0002:000151d8       $unwind$?SetBitrate@OpusEncoder@@SAXAEBV?$FunctionCallbackInfo@VValue@v8@@@Nan@@@Z 00000001800701d8     node-opus.obj
 0002:000151d8       $unwind$__vcrt_uninitialize_locks 00000001800701d8     libvcruntime:locks.obj
 0002:000151d8       $unwind$??_Gtype_info@@UEAAPEAXI@Z 00000001800701d8     LIBCMT:std_type_info_static.obj
 0002:000151d8       $unwind$__acrt_can_show_message_box 00000001800701d8     libucrt:winapi_thunks.obj
 0002:000151d8       $unwind$__acrt_uninitialize_stdio 00000001800701d8     libucrt:_file.obj
 0002:000151d8       $unwind$??0?$output_processor@_WV?$string_output_adapter@_W@__crt_stdio_output@@V?$standard_base@_WV?$string_output_adapter@_W@__crt_stdio_output@@@2@@__crt_stdio_output@@QEAA@AEBV?$string_output_adapter@_W@1@_KQEB_WQEAU__crt_locale_pointers@@QEAD@Z 00000001800701d8     libucrt:output.obj
 0002:000151d8       $unwind$ec_laplace_encode  00000001800701d8     libopus:laplace.obj
 0002:000151d8       $unwind$?Unref@ObjectWrap@node@@MEAAXXZ 00000001800701d8     node-opus.obj
 0002:000151d8       $unwind$?DloadReleaseSectionWriteAccess@@YAXXZ 00000001800701d8     DelayImp:delayhlp.obj
 0002:000151d8       $unwind$__vcrt_freeptd     00000001800701d8     libvcruntime:per_thread_data.obj
 0002:000151d8       $unwind$_calloc_base       00000001800701d8     libucrt:calloc_base.obj
 0002:000151d8       $unwind$__vcrt_uninitialize 00000001800701d8     libvcruntime:initialization.obj
 0002:000151d8       $unwind$_malloc_base       00000001800701d8     libucrt:malloc_base.obj
 0002:000151d8       $unwind$??0bad_alloc@std@@QEAA@AEBV01@@Z 00000001800701d8     LIBCMT:throw_bad_alloc.obj
 0002:000151d8       $unwind$?Ref@ObjectWrap@node@@MEAAXXZ 00000001800701d8     node-opus.obj
 0002:000151d8       $unwind$?type_case_integer@?$output_processor@_WV?$stream_output_adapter@_W@__crt_stdio_output@@V?$standard_base@_WV?$stream_output_adapter@_W@__crt_stdio_output@@@2@@__crt_stdio_output@@AEAA_NI_N@Z 00000001800701d8     libucrt:output.obj
 0002:000151e0       $unwind$?Wrap@ObjectWrap@node@@IEAAXV?$Local@VObject@v8@@@v8@@@Z 00000001800701e0     node-opus.obj
 0002:000151e0       $unwind$??$free_environment@_W@@YAXQEAPEA_W@Z 00000001800701e0     libucrt:environment_initialization.obj
 0002:000151e0       $unwind$??$free_environment@D@@YAXQEAPEAD@Z 00000001800701e0     libucrt:environment_initialization.obj
 0002:000151ec       $unwind$__acrt_errno_map_os_error 00000001800701ec     libucrt:errno.obj
 0002:000151ec       $unwind$__acrt_FlsGetValue 00000001800701ec     libucrt:winapi_thunks.obj
 0002:000151ec       $unwind$?DloadAcquireSectionWriteAccess@@YAXXZ 00000001800701ec     DelayImp:delayhlp.obj
 0002:000151ec       $unwind$?DloadGetSRWLockFunctionPointers@@YAEXZ 00000001800701ec     DelayImp:delayhlp.obj
 0002:000151ec       $unwind$??_Gbad_array_new_length@std@@UEAAPEAXI@Z 00000001800701ec     LIBCMT:throw_bad_alloc.obj
 0002:000151ec       $unwind$__acrt_FlsFree     00000001800701ec     libucrt:winapi_thunks.obj
 0002:000151ec       $unwind$_close_nolock      00000001800701ec     libucrt:close.obj
 0002:000151ec       $unwind$silk_PLC_update    00000001800701ec     libopus:PLC.obj
 0002:000151ec       $unwind$__acrt_uninitialize_lowio 00000001800701ec     libucrt:ioinit.obj
 0002:000151ec       $unwind$?internal_isupper_l@@YA_NHQEAU__crt_locale_pointers@@@Z 00000001800701ec     libucrt:tolower_toupper.obj
 0002:000151ec       $unwind$opus_packet_get_nb_samples 00000001800701ec     libopus:opus_decoder.obj
 0002:000151ec       $unwind$??_Gbad_alloc@std@@UEAAPEAXI@Z 00000001800701ec     LIBCMT:throw_bad_alloc.obj
 0002:000151ec       $unwind$?replace_current_thread_locale_nolock@@YAXQEAU__acrt_ptd@@QEAU__crt_locale_data@@@Z 00000001800701ec     libucrt:per_thread_data.obj
 0002:000151ec       $unwind$__acrt_get_parent_window 00000001800701ec     libucrt:winapi_thunks.obj
 0002:000151ec       $unwind$??_GObjectWrap@node@@UEAAPEAXI@Z 00000001800701ec     node-opus.obj
 0002:000151ec       $unwind$__vcrt_FlsGetValue 00000001800701ec     libvcruntime:winapi_downlevel.obj
 0002:000151ec       $unwind$??$common_initialize_environment_nolock@D@@YAHXZ 00000001800701ec     libucrt:environment_initialization.obj
 0002:000151ec       $unwind$__acrt_stdio_begin_temporary_buffering_nolock 00000001800701ec     libucrt:_sftbuf.obj
 0002:000151ec       $unwind$?force_decimal_point@__crt_stdio_output@@YAXPEADQEAU__crt_locale_pointers@@@Z 00000001800701ec     libucrt:output.obj
 0002:000151ec       $unwind$__vcrt_EventUnregister 00000001800701ec     libvcruntime:winapi_downlevel.obj
 0002:000151ec       $unwind$?try_cor_exit_process@@YAXI@Z 00000001800701ec     libucrt:exit.obj
 0002:000151ec       $unwind$??0_LocaleUpdate@@QEAA@QEAU__crt_locale_pointers@@@Z 00000001800701ec     libucrt:stricmp.obj
 0002:000151ec       $unwind$??$common_xtox@K_W@@YAHKQEA_W_KI_N@Z 00000001800701ec     libucrt:xtoa.obj
 0002:000151ec       $unwind$__vcrt_FlsAlloc    00000001800701ec     libvcruntime:winapi_downlevel.obj
 0002:000151ec       $unwind$_callnewh          00000001800701ec     libucrt:new_handler.obj
 0002:000151ec       $unwind$??_Gexception@std@@UEAAPEAXI@Z 00000001800701ec     LIBCMT:throw_bad_alloc.obj
 0002:000151ec       $unwind$_fclose_nolock     00000001800701ec     libucrt:fclose.obj
 0002:000151ec       $unwind$wcsncat_s          00000001800701ec     libucrt:wcsncat_s.obj
 0002:000151ec       $unwind$_realloc_base      00000001800701ec     libucrt:realloc_base.obj
 0002:000151ec       $unwind$??_GOpusEncoder@@UEAAPEAXI@Z 00000001800701ec     node-opus.obj
 0002:000151ec       $unwind$__vcrt_FlsFree     00000001800701ec     libvcruntime:winapi_downlevel.obj
 0002:000151ec       $unwind$__acrt_invoke_user_matherr 00000001800701ec     libucrt:matherr.obj
 0002:000151ec       $unwind$__acrt_FlsAlloc    00000001800701ec     libucrt:winapi_thunks.obj
 0002:000151ec       $unwind$silk_init_encoder  00000001800701ec     libopus:init_encoder.obj
 0002:000151ec       $unwind$__acrt_getptd      00000001800701ec     libucrt:per_thread_data.obj
 0002:000151ec       $unwind$_updatetlocinfoEx_nolock 00000001800701ec     libucrt:locale_refcounting.obj
 0002:000151f8       $unwind$?FunctionCallbackWrapper@imp@Nan@@YAXAEBV?$FunctionCallbackInfo@VValue@v8@@@v8@@@Z 00000001800701f8     node-opus.obj
 0002:00015208       $unwind$?New@?$Factory@VFunctionTemplate@v8@@@imp@Nan@@SA?AV?$Local@VFunctionTemplate@v8@@@v8@@P6AXAEBV?$FunctionCallbackInfo@VValue@v8@@@3@@ZV?$Local@VValue@v8@@@5@V?$Local@VSignature@v8@@@5@@Z 0000000180070208     node-opus.obj
 0002:00015214       $chain$0$?New@?$Factory@VFunctionTemplate@v8@@@imp@Nan@@SA?AV?$Local@VFunctionTemplate@v8@@@v8@@P6AXAEBV?$FunctionCallbackInfo@VValue@v8@@@3@@ZV?$Local@VValue@v8@@@5@V?$Local@VSignature@v8@@@5@@Z 0000000180070214     node-opus.obj
 0002:00015228       $chain$1$?New@?$Factory@VFunctionTemplate@v8@@@imp@Nan@@SA?AV?$Local@VFunctionTemplate@v8@@@v8@@P6AXAEBV?$FunctionCallbackInfo@VValue@v8@@@3@@ZV?$Local@VValue@v8@@@5@V?$Local@VSignature@v8@@@5@@Z 0000000180070228     node-opus.obj
 0002:00015238       $unwind$?ThrowTypeError@Nan@@YAXPEBD@Z 0000000180070238     node-opus.obj
 0002:00015238       $unwind$?ThrowError@Nan@@YAXPEBD@Z 0000000180070238     node-opus.obj
 0002:00015240       $unwind$?SetPrototypeMethod@Nan@@YAXV?$Local@VFunctionTemplate@v8@@@v8@@PEBDP6AXAEBV?$FunctionCallbackInfo@VValue@v8@@@1@@Z@Z 0000000180070240     node-opus.obj
 0002:00015250       $unwind$?Encode@OpusEncoder@@SAXAEBV?$FunctionCallbackInfo@VValue@v8@@@Nan@@@Z 0000000180070250     node-opus.obj
 0002:0001525c       $chain$0$?Encode@OpusEncoder@@SAXAEBV?$FunctionCallbackInfo@VValue@v8@@@Nan@@@Z 000000018007025c     node-opus.obj
 0002:00015270       $chain$3$?Encode@OpusEncoder@@SAXAEBV?$FunctionCallbackInfo@VValue@v8@@@Nan@@@Z 0000000180070270     node-opus.obj
 0002:0001528c       $chain$4$?Encode@OpusEncoder@@SAXAEBV?$FunctionCallbackInfo@VValue@v8@@@Nan@@@Z 000000018007028c     node-opus.obj
 0002:000152a0       $chain$5$?Encode@OpusEncoder@@SAXAEBV?$FunctionCallbackInfo@VValue@v8@@@Nan@@@Z 00000001800702a0     node-opus.obj
 0002:000152b0       $unwind$?Decode@OpusEncoder@@SAXAEBV?$FunctionCallbackInfo@VValue@v8@@@Nan@@@Z 00000001800702b0     node-opus.obj
 0002:000152b8       $chain$2$?Decode@OpusEncoder@@SAXAEBV?$FunctionCallbackInfo@VValue@v8@@@Nan@@@Z 00000001800702b8     node-opus.obj
 0002:000152d4       $chain$4$?Decode@OpusEncoder@@SAXAEBV?$FunctionCallbackInfo@VValue@v8@@@Nan@@@Z 00000001800702d4     node-opus.obj
 0002:000152f0       $chain$5$?Decode@OpusEncoder@@SAXAEBV?$FunctionCallbackInfo@VValue@v8@@@Nan@@@Z 00000001800702f0     node-opus.obj
 0002:00015300       $chain$0$?SetBitrate@OpusEncoder@@SAXAEBV?$FunctionCallbackInfo@VValue@v8@@@Nan@@@Z 0000000180070300     node-opus.obj
 0002:00015314       $chain$2$?SetBitrate@OpusEncoder@@SAXAEBV?$FunctionCallbackInfo@VValue@v8@@@Nan@@@Z 0000000180070314     node-opus.obj
 0002:00015328       $chain$3$?SetBitrate@OpusEncoder@@SAXAEBV?$FunctionCallbackInfo@VValue@v8@@@Nan@@@Z 0000000180070328     node-opus.obj
 0002:00015338       $unwind$?GetBitrate@OpusEncoder@@SAXAEBV?$FunctionCallbackInfo@VValue@v8@@@Nan@@@Z 0000000180070338     node-opus.obj
 0002:00015344       $unwind$?New@OpusEncoder@@SAXAEBV?$FunctionCallbackInfo@VValue@v8@@@Nan@@@Z 0000000180070344     node-opus.obj
 0002:0001534c       $chain$3$?New@OpusEncoder@@SAXAEBV?$FunctionCallbackInfo@VValue@v8@@@Nan@@@Z 000000018007034c     node-opus.obj
 0002:0001536c       $chain$4$?New@OpusEncoder@@SAXAEBV?$FunctionCallbackInfo@VValue@v8@@@Nan@@@Z 000000018007036c     node-opus.obj
 0002:0001537c       $unwind$?Init@OpusEncoder@@SAXV?$Local@VObject@v8@@@v8@@@Z 000000018007037c     node-opus.obj
 0002:0001538c       $unwind$_getfpstatusword   000000018007038c     libucrt:_fenvutils.obj
 0002:0001538c       $unwind$__acrt_uninitialize_ptd 000000018007038c     libucrt:per_thread_data.obj
 0002:0001538c       $unwind$_getfpcontrolword  000000018007038c     libucrt:_fenvutils.obj
 0002:0001538c       $unwind$__dcrt_terminate_console_output 000000018007038c     libucrt:initcon.obj
 0002:0001538c       $unwind$??$uninitialize_environment_internal@_W@@YAXAEAPEAPEA_W@Z 000000018007038c     libucrt:environment_initialization.obj
 0002:0001538c       $unwind$?dllmain_crt_dispatch@@YAHQEAUHINSTANCE__@@KQEAX@Z 000000018007038c     LIBCMT:dll_dllmain.obj
 0002:0001538c       $unwind$??$uninitialize_environment_internal@D@@YAXAEAPEAPEAD@Z 000000018007038c     libucrt:environment_initialization.obj
 0002:0001538c       $unwind$__dcrt_uninitialize_environments_nolock 000000018007038c     libucrt:environment_initialization.obj
 0002:0001538c       $unwind$_isatty            000000018007038c     libucrt:isatty.obj
 0002:0001538c       $unwind$atexit             000000018007038c     LIBCMT:utility.obj
 0002:0001538c       $unwind$__scrt_acquire_startup_lock 000000018007038c     LIBCMT:utility.obj
 0002:0001538c       $unwind$_fileno            000000018007038c     libucrt:fileno.obj
 0002:0001538c       $unwind$__scrt_dllmain_before_initialize_c 000000018007038c     LIBCMT:utility.obj
 0002:0001538c       $unwind$__scrt_dllmain_after_initialize_c 000000018007038c     LIBCMT:utility.obj
 0002:0001538c       $unwind$__scrt_dllmain_uninitialize_critical 000000018007038c     LIBCMT:utility.obj
 0002:0001538c       $unwind$_stricmp           000000018007038c     libucrt:stricmp.obj
 0002:0001538c       $unwind$__acrt_uninitialize_critical 000000018007038c     libucrt:initialization.obj
 0002:0001538c       $unwind$__scrt_dllmain_crt_thread_attach 000000018007038c     LIBCMT:utility.obj
 0002:0001538c       $unwind$__acrt_thread_attach 000000018007038c     libucrt:initialization.obj
 0002:0001538c       $unwind$_statfp            000000018007038c     libucrt:fpctrl.obj
 0002:0001538c       $unwind$__acrt_thread_detach 000000018007038c     libucrt:initialization.obj
 0002:0001538c       $unwind$__scrt_dllmain_crt_thread_detach 000000018007038c     LIBCMT:utility.obj
 0002:0001538c       $unwind$initialize_c       000000018007038c     libucrt:initialization.obj
 0002:0001538c       $unwind$__acrt_initialize_ptd 000000018007038c     libucrt:per_thread_data.obj
 0002:0001538c       $unwind$?initialize_multibyte@@YAHXZ 000000018007038c     libucrt:multibyte_initializer.obj
 0002:0001538c       $unwind$_get_osfhandle     000000018007038c     libucrt:osfinfo.obj
 0002:0001538c       $unwind$__vcrt_initialize  000000018007038c     libvcruntime:initialization.obj
 0002:0001538c       $unwind$_msize             000000018007038c     libucrt:msize.obj
 0002:0001538c       $unwind$__vcrt_uninitialize_critical 000000018007038c     libvcruntime:initialization.obj
 0002:0001538c       $unwind$__report_rangecheckfailure 000000018007038c     LIBCMT:gs_report.obj
 0002:0001538c       $unwind$__acrt_initialize_heap 000000018007038c     libucrt:heap_handle.obj
 0002:0001538c       $unwind$__vcrt_thread_attach 000000018007038c     libvcruntime:initialization.obj
 0002:0001538c       $unwind$__vcrt_thread_detach 000000018007038c     libvcruntime:initialization.obj
 0002:0001538c       $unwind$__vcrt_initialize_ptd 000000018007038c     libvcruntime:per_thread_data.obj
 0002:0001538c       $unwind$__vcrt_uninitialize_ptd 000000018007038c     libvcruntime:per_thread_data.obj
 0002:0001538c       $unwind$tolower            000000018007038c     libucrt:tolower_toupper.obj
 0002:0001538c       $unwind$__vcrt_freefls     000000018007038c     libvcruntime:per_thread_data.obj
 0002:0001538c       $unwind$__acrt_initialize_command_line 000000018007038c     libucrt:argv_data.obj
 0002:0001538c       $unwind$abort              000000018007038c     libucrt:abort.obj
 0002:0001538c       $unwind$__vcrt_uninitialize_telemetry_provider 000000018007038c     libvcruntime:telemetry.obj
 0002:0001538c       $unwind$_set_error_mode    000000018007038c     libucrt:set_error_mode.obj
 0002:0001538c       $unwind$_invoke_watson     000000018007038c     libucrt:invalid_parameter.obj
 0002:0001538c       $unwind$_errno             000000018007038c     libucrt:errno.obj
 0002:0001538c       $unwind$__GSHandlerCheck   000000018007038c     LIBCMT:_gshandler_.obj
 0002:0001538c       $unwind$__doserrno         000000018007038c     libucrt:errno.obj
 0002:0001538c       $unwind$__acrt_initialize_multibyte 000000018007038c     libucrt:mbctype.obj
 0002:0001538c       $unwind$?NodeInit@@YAXV?$Local@VObject@v8@@@v8@@@Z 000000018007038c     node-opus.obj
 0002:0001538c       $unwind$opus_repacketizer_create 000000018007038c     libopus:repacketizer.obj
 0002:0001538c       $unwind$__acrt_DownlevelLocaleNameToLCID 000000018007038c     libucrt:lcidtoname_downlevel.obj
 0002:0001538c       $unwind$?state_case_size@?$output_processor@_WV?$string_output_adapter@_W@__crt_stdio_output@@V?$standard_base@_WV?$string_output_adapter@_W@__crt_stdio_output@@@2@@__crt_stdio_output@@AEAA_NXZ 000000018007038c     libucrt:output.obj
 0002:0001538c       $unwind$?state_case_size@?$output_processor@_WV?$stream_output_adapter@_W@__crt_stdio_output@@V?$standard_base@_WV?$stream_output_adapter@_W@__crt_stdio_output@@@2@@__crt_stdio_output@@AEAA_NXZ 000000018007038c     libucrt:output.obj
 0002:0001538c       $unwind$__acrt_release_locale_ref 000000018007038c     libucrt:locale_refcounting.obj
 0002:0001538c       $unwind$__scrt_initialize_default_local_stdio_options 000000018007038c     LIBCMT:default_local_stdio_options.obj
 0002:0001538c       $unwind$uninitialize_environment 000000018007038c     libucrt:initialization.obj
 0002:0001538c       $unwind$_set_errno_from_matherr 000000018007038c     libucrt:fpexcept.obj
 0002:0001538c       $unwind$__scrt_dllmain_uninitialize_c 000000018007038c     LIBCMT:utility.obj
 0002:0001538c       $unwind$__pctype_func      000000018007038c     libucrt:ctype.obj
 0002:00015394       $unwind$??$Unwrap@VOpusEncoder@@@ObjectWrap@node@@SAPEAVOpusEncoder@@V?$Local@VObject@v8@@@v8@@@Z 0000000180070394     node-opus.obj
 0002:0001539c       $unwind$opus_encoder_init  000000018007039c     libopus:opus_encoder.obj
 0002:0001539c       $unwind$silk_gains_quant   000000018007039c     libopus:gain_quant.obj
 0002:000153ac       $chain$2$opus_encoder_init 00000001800703ac     libopus:opus_encoder.obj
 0002:000153c8       $chain$4$opus_encoder_init 00000001800703c8     libopus:opus_encoder.obj
 0002:000153e4       $chain$5$opus_encoder_init 00000001800703e4     libopus:opus_encoder.obj
 0002:000153f4       $unwind$silk_biquad_float  00000001800703f4     libopus:opus_encoder.obj
 0002:00015418       $chain$5$silk_biquad_float 0000000180070418     libopus:opus_encoder.obj
 0002:00015440       $chain$6$silk_biquad_float 0000000180070440     libopus:opus_encoder.obj
 0002:00015450       $unwind$__acrt_fp_format   0000000180070450     libucrt:cvt.obj
 0002:00015450       $unwind$hp_cutoff          0000000180070450     libopus:opus_encoder.obj
 0002:0001546c       $unwind$dc_reject          000000018007046c     libopus:opus_encoder.obj
 0002:00015478       $chain$5$dc_reject         0000000180070478     libopus:opus_encoder.obj
 0002:000154a0       $chain$6$dc_reject         00000001800704a0     libopus:opus_encoder.obj
 0002:000154b0       $unwind$stereo_fade        00000001800704b0     libopus:opus_encoder.obj
 0002:000154c8       $chain$0$stereo_fade       00000001800704c8     libopus:opus_encoder.obj
 0002:000154dc       $chain$1$stereo_fade       00000001800704dc     libopus:opus_encoder.obj
 0002:000154ec       $unwind$gain_fade          00000001800704ec     libopus:opus_encoder.obj
 0002:00015508       $unwind$opus_encoder_create 0000000180070508     libopus:opus_encoder.obj
 0002:0001551c       $chain$0$opus_encoder_create 000000018007051c     libopus:opus_encoder.obj
 0002:00015530       $chain$3$opus_encoder_create 0000000180070530     libopus:opus_encoder.obj
 0002:00015530       $chain$1$opus_encoder_create 0000000180070530     libopus:opus_encoder.obj
 0002:00015540       $chain$2$opus_encoder_create 0000000180070540     libopus:opus_encoder.obj
 0002:00015554       $unwind$transient_boost    0000000180070554     libopus:opus_encoder.obj
 0002:00015564       $unwind$transient_viterbi  0000000180070564     libopus:opus_encoder.obj
 0002:00015578       $chain$7$transient_viterbi 0000000180070578     libopus:opus_encoder.obj
 0002:000155a8       $chain$12$transient_viterbi 00000001800705a8     libopus:opus_encoder.obj
 0002:000155cc       $chain$13$transient_viterbi 00000001800705cc     libopus:opus_encoder.obj
 0002:000155dc       $chain$14$transient_viterbi 00000001800705dc     libopus:opus_encoder.obj
 0002:000155f0       $chain$15$transient_viterbi 00000001800705f0     libopus:opus_encoder.obj
 0002:00015600       $unwind$optimize_framesize 0000000180070600     libopus:opus_encoder.obj
 0002:00015634       $unwind$downmix_float      0000000180070634     libopus:opus_encoder.obj
 0002:0001563c       $chain$6$downmix_float     000000018007063c     libopus:opus_encoder.obj
 0002:00015668       $chain$7$downmix_float     0000000180070668     libopus:opus_encoder.obj
 0002:00015680       $chain$8$downmix_float     0000000180070680     libopus:opus_encoder.obj
 0002:00015690       $unwind$downmix_int        0000000180070690     libopus:opus_encoder.obj
 0002:00015698       $chain$6$downmix_int       0000000180070698     libopus:opus_encoder.obj
 0002:000156c4       $chain$7$downmix_int       00000001800706c4     libopus:opus_encoder.obj
 0002:000156d8       $chain$8$downmix_int       00000001800706d8     libopus:opus_encoder.obj
 0002:000156e8       $unwind$compute_frame_size 00000001800706e8     libopus:opus_encoder.obj
 0002:000156f8       $unwind$compute_stereo_width 00000001800706f8     libopus:opus_encoder.obj
 0002:00015704       $chain$7$compute_stereo_width 0000000180070704     libopus:opus_encoder.obj
 0002:00015734       $chain$8$compute_stereo_width 0000000180070734     libopus:opus_encoder.obj
 0002:00015748       $chain$9$compute_stereo_width 0000000180070748     libopus:opus_encoder.obj
 0002:00015758       $chain$10$compute_stereo_width 0000000180070758     libopus:opus_encoder.obj
 0002:00015768       $unwind$opus_encode_native 0000000180070768     libopus:opus_encoder.obj
 0002:000157a0       $unwind$opus_encode        00000001800707a0     libopus:opus_encoder.obj
 0002:000157c8       $unwind$opus_encode_float  00000001800707c8     libopus:opus_encoder.obj
 0002:000157e0       $unwind$opus_encoder_ctl   00000001800707e0     libopus:opus_encoder.obj
 0002:000157f0       $chain$1$opus_encoder_ctl  00000001800707f0     libopus:opus_encoder.obj
 0002:00015808       $chain$2$opus_encoder_ctl  0000000180070808     libopus:opus_encoder.obj
 0002:00015818       $unwind$opus_decoder_init  0000000180070818     libopus:opus_decoder.obj
 0002:0001582c       $unwind$opus_decoder_create 000000018007082c     libopus:opus_decoder.obj
 0002:00015840       $unwind$smooth_fade        0000000180070840     libopus:opus_decoder.obj
 0002:00015854       $chain$2$smooth_fade       0000000180070854     libopus:opus_decoder.obj
 0002:00015870       $chain$3$smooth_fade       0000000180070870     libopus:opus_decoder.obj
 0002:00015880       $unwind$opus_decode_frame  0000000180070880     libopus:opus_decoder.obj
 0002:000158a0       $unwind$opus_decode_native 00000001800708a0     libopus:opus_decoder.obj
 0002:000158b8       $unwind$?__acrt_LCMapStringA_stat@@YAHPEAU__crt_locale_pointers@@PEB_WKPEBDHPEADHHH@Z 00000001800708b8     libucrt:lcmapstringa.obj
 0002:000158b8       $unwind$opus_decode        00000001800708b8     libopus:opus_decoder.obj
 0002:000158e0       $unwind$opus_decode_float  00000001800708e0     libopus:opus_decoder.obj
 0002:000158e0       $unwind$_sincos_special    00000001800708e0     libucrt:sincos_special.obj
 0002:000158e8       $unwind$opus_decoder_ctl   00000001800708e8     libopus:opus_decoder.obj
 0002:000158e8       $unwind$opus_custom_decoder_ctl 00000001800708e8     libopus:celt_decoder.obj
 0002:000158f4       $unwind$ec_laplace_decode  00000001800708f4     libopus:laplace.obj
 0002:000158f4       $unwind$silk_InitEncoder   00000001800708f4     libopus:enc_API.obj
 0002:000158f4       $unwind$silk_decoder_set_fs 00000001800708f4     libopus:decoder_set_fs.obj
 0002:0001590c       $unwind$silk_Encode        000000018007090c     libopus:enc_API.obj
 0002:00015934       $unwind$fast_atan2f        0000000180070934     libopus:analysis.obj
 0002:00015940       $chain$0$fast_atan2f       0000000180070940     libopus:analysis.obj
 0002:00015954       $unwind$ec_enc_bits        0000000180070954     libopus:entenc.obj
 0002:00015954       $unwind$silk_INVERSE32_varQ 0000000180070954     libopus:LPC_inv_pred_gain.obj
 0002:00015954       $unwind$silk_DIV32_varQ    0000000180070954     libopus:stereo_find_predictor.obj
 0002:00015954       $unwind$silk_setup_LBRR    0000000180070954     libopus:control_codec.obj
 0002:00015954       $unwind$silk_LPC_analysis_filter12_FLP 0000000180070954     libopus:LPC_analysis_filter_FLP.obj
 0002:00015954       $unwind$silk_LPC_analysis_filter8_FLP 0000000180070954     libopus:LPC_analysis_filter_FLP.obj
 0002:00015954       $unwind$silk_LPC_analysis_filter10_FLP 0000000180070954     libopus:LPC_analysis_filter_FLP.obj
 0002:00015954       $unwind$silk_DIV32_varQ    0000000180070954     libopus:stereo_LR_to_MS.obj
 0002:00015954       $unwind$tonality_get_info  0000000180070954     libopus:analysis.obj
 0002:00015954       $unwind$icwrs              0000000180070954     libopus:cwrs.obj
 0002:00015954       $unwind$silk_LPC_analysis_filter6_FLP 0000000180070954     libopus:LPC_analysis_filter_FLP.obj
 0002:00015954       $unwind$opus_custom_mode_create 0000000180070954     libopus:modes.obj
 0002:00015954       $unwind$silk_LPC_analysis_filter16_FLP 0000000180070954     libopus:LPC_analysis_filter_FLP.obj
 0002:00015954       $unwind$silk_corrVector_FLP 0000000180070954     libopus:corrMatrix_FLP.obj
 0002:00015960       $unwind$tonality_analysis  0000000180070960     libopus:analysis.obj
 0002:000159ac       $unwind$run_analysis       00000001800709ac     libopus:analysis.obj
 0002:000159bc       $chain$2$run_analysis      00000001800709bc     libopus:analysis.obj
 0002:000159d8       $chain$3$run_analysis      00000001800709d8     libopus:analysis.obj
 0002:000159e8       $unwind$?type_case_s@?$output_processor@_WV?$string_output_adapter@_W@__crt_stdio_output@@V?$standard_base@_WV?$string_output_adapter@_W@__crt_stdio_output@@@2@@__crt_stdio_output@@AEAA_NXZ 00000001800709e8     libucrt:output.obj
 0002:000159e8       $unwind$?TraceLoggingRegister@__vcrt_trace_logging_provider@@YAJPEBU_TlgProvider_t@1@PEBU_GUID@@P6AX1KE_K2PEAU_EVENT_FILTER_DESCRIPTOR@@PEAX@Z4@Z 00000001800709e8     libvcruntime:telemetry.obj
 0002:000159e8       $unwind$__acrt_execute_uninitializers 00000001800709e8     libucrt:shared_initialization.obj
 0002:000159e8       $unwind$__acrt_FlsSetValue 00000001800709e8     libucrt:winapi_thunks.obj
 0002:000159e8       $unwind$?type_case_Z@?$output_processor@_WV?$string_output_adapter@_W@__crt_stdio_output@@V?$standard_base@_WV?$string_output_adapter@_W@__crt_stdio_output@@@2@@__crt_stdio_output@@AEAA_NXZ 00000001800709e8     libucrt:output.obj
 0002:000159e8       $unwind$__acrt_stdio_flush_and_write_wide_nolock 00000001800709e8     libucrt:_flsbuf.obj
 0002:000159e8       $unwind$ec_enc_uint        00000001800709e8     libopus:entenc.obj
 0002:000159e8       $unwind$celt_decoder_init  00000001800709e8     libopus:celt_decoder.obj
 0002:000159e8       $unwind$__acrt_stdio_flush_and_write_narrow_nolock 00000001800709e8     libucrt:_flsbuf.obj
 0002:000159e8       $unwind$_exception_enabled 00000001800709e8     libucrt:libm_error.obj
 0002:000159e8       $unwind$_initterm_e        00000001800709e8     libucrt:initterm.obj
 0002:000159e8       $unwind$__acrt_getptd_noexit 00000001800709e8     libucrt:per_thread_data.obj
 0002:000159e8       $unwind$_RTC_Initialize    00000001800709e8     LIBCMT:_initsect_.obj
 0002:000159e8       $unwind$?type_case_Z@?$output_processor@_WV?$stream_output_adapter@_W@__crt_stdio_output@@V?$standard_base@_WV?$stream_output_adapter@_W@__crt_stdio_output@@@2@@__crt_stdio_output@@AEAA_NXZ 00000001800709e8     libucrt:output.obj
 0002:000159e8       $unwind$?type_case_s@?$output_processor@_WV?$stream_output_adapter@_W@__crt_stdio_output@@V?$standard_base@_WV?$stream_output_adapter@_W@__crt_stdio_output@@@2@@__crt_stdio_output@@AEAA_NXZ 00000001800709e8     libucrt:output.obj
 0002:000159e8       $unwind$__vcrt_getptd_noexit 00000001800709e8     libvcruntime:per_thread_data.obj
 0002:000159e8       $unwind$?free_crt_array_internal@@YAXQEAPEBX_K@Z 00000001800709e8     libucrt:inittime.obj
 0002:000159e8       $unwind$?type_case_n@?$output_processor@_WV?$stream_output_adapter@_W@__crt_stdio_output@@V?$standard_base@_WV?$stream_output_adapter@_W@__crt_stdio_output@@@2@@__crt_stdio_output@@AEAA_NXZ 00000001800709e8     libucrt:output.obj
 0002:000159e8       $unwind$__acrt_stdio_flush_nolock 00000001800709e8     libucrt:fflush.obj
 0002:000159e8       $unwind$__vcrt_FlsSetValue 00000001800709e8     libvcruntime:winapi_downlevel.obj
 0002:000159e8       $unwind$opus_custom_decoder_init 00000001800709e8     libopus:celt_decoder.obj
 0002:000159e8       $unwind$memcpy_s           00000001800709e8     libucrt:cfout.obj
 0002:000159e8       $unwind$??R<lambda_ad1ced32f4ac17aa236e5ef05d6b3b7c>@@QEBAXXZ 00000001800709e8     libucrt:mbctype.obj
 0002:000159e8       $unwind$_RTC_Terminate     00000001800709e8     LIBCMT:_initsect_.obj
 0002:000159e8       $unwind$silk_stereo_encode_pred 00000001800709e8     libopus:stereo_encode_pred.obj
 0002:000159e8       $unwind$__acrt_LocaleNameToLCID 00000001800709e8     libucrt:winapi_thunks.obj
 0002:000159e8       $unwind$??$common_lseek_nolock@_J@@YA_JH_JH@Z 00000001800709e8     libucrt:lseek.obj
 0002:000159e8       $unwind$?type_case_n@?$output_processor@_WV?$string_output_adapter@_W@__crt_stdio_output@@V?$standard_base@_WV?$string_output_adapter@_W@__crt_stdio_output@@@2@@__crt_stdio_output@@AEAA_NXZ 00000001800709e8     libucrt:output.obj
 0002:000159e8       $unwind$_DllMainCRTStartup 00000001800709e8     LIBCMT:dll_dllmain.obj
 0002:000159f8       $unwind$silk_resampler_init 00000001800709f8     libopus:resampler.obj
 0002:000159f8       $unwind$decode_pulses      00000001800709f8     libopus:cwrs.obj
 0002:000159f8       $unwind$_free_osfhnd       00000001800709f8     libucrt:osfinfo.obj
 0002:000159f8       $unwind$ec_enc_done        00000001800709f8     libopus:entenc.obj
 0002:000159f8       $unwind$?initialize_stdio_handles_nolock@@YAXXZ 00000001800709f8     libucrt:ioinit.obj
 0002:000159f8       $unwind$__std_exception_copy 00000001800709f8     libvcruntime:std_exception.obj
 0002:00015a0c       $unwind$opus_repacketizer_cat_impl 0000000180070a0c     libopus:repacketizer.obj
 0002:00015a20       $chain$1$opus_repacketizer_cat_impl 0000000180070a20     libopus:repacketizer.obj
 0002:00015a34       $chain$2$opus_repacketizer_cat_impl 0000000180070a34     libopus:repacketizer.obj
 0002:00015a34       $chain$4$opus_repacketizer_cat_impl 0000000180070a34     libopus:repacketizer.obj
 0002:00015a44       $chain$3$opus_repacketizer_cat_impl 0000000180070a44     libopus:repacketizer.obj
 0002:00015a58       $unwind$opus_repacketizer_out_range_impl 0000000180070a58     libopus:repacketizer.obj
 0002:00015a60       $chain$6$opus_repacketizer_out_range_impl 0000000180070a60     libopus:repacketizer.obj
 0002:00015a8c       $chain$8$opus_repacketizer_out_range_impl 0000000180070a8c     libopus:repacketizer.obj
 0002:00015ab8       $chain$9$opus_repacketizer_out_range_impl 0000000180070ab8     libopus:repacketizer.obj
 0002:00015ac8       $unwind$?__scrt_throw_std_bad_array_new_length@@YAXXZ 0000000180070ac8     LIBCMT:throw_bad_alloc.obj
 0002:00015ac8       $unwind$opus_packet_parse  0000000180070ac8     libopus:opus.obj
 0002:00015ac8       $unwind$__dcrt_lowio_initialize_console_output 0000000180070ac8     libucrt:initcon.obj
 0002:00015ac8       $unwind$?__scrt_throw_std_bad_alloc@@YAXXZ 0000000180070ac8     LIBCMT:throw_bad_alloc.obj
 0002:00015ac8       $unwind$_raise_exc         0000000180070ac8     libucrt:fpexcept.obj
 0002:00015ac8       $unwind$opus_repacketizer_out_range 0000000180070ac8     libopus:repacketizer.obj
 0002:00015ac8       $unwind$opus_repacketizer_out 0000000180070ac8     libopus:repacketizer.obj
 0002:00015ad0       $unwind$opus_packet_pad    0000000180070ad0     libopus:repacketizer.obj
 0002:00015ae8       $chain$1$opus_packet_pad   0000000180070ae8     libopus:repacketizer.obj
 0002:00015b00       $chain$2$opus_packet_pad   0000000180070b00     libopus:repacketizer.obj
 0002:00015b10       $unwind$opus_packet_unpad  0000000180070b10     libopus:repacketizer.obj
 0002:00015b28       $unwind$opus_multistream_packet_pad 0000000180070b28     libopus:repacketizer.obj
 0002:00015b40       $chain$2$opus_multistream_packet_pad 0000000180070b40     libopus:repacketizer.obj
 0002:00015b5c       $chain$3$opus_multistream_packet_pad 0000000180070b5c     libopus:repacketizer.obj
 0002:00015b6c       $chain$4$opus_multistream_packet_pad 0000000180070b6c     libopus:repacketizer.obj
 0002:00015b88       $unwind$opus_multistream_packet_unpad 0000000180070b88     libopus:repacketizer.obj
 0002:00015ba0       $chain$4$opus_multistream_packet_unpad 0000000180070ba0     libopus:repacketizer.obj
 0002:00015bc4       $chain$5$opus_multistream_packet_unpad 0000000180070bc4     libopus:repacketizer.obj
 0002:00015bd4       $chain$6$opus_multistream_packet_unpad 0000000180070bd4     libopus:repacketizer.obj
 0002:00015bf8       $unwind$ec_dec_uint        0000000180070bf8     libopus:entdec.obj
 0002:00015bf8       $unwind$__acrt_free_locale 0000000180070bf8     libucrt:locale_refcounting.obj
 0002:00015bf8       $unwind$?setSBCS@@YAXPEAU__crt_multibyte_data@@@Z 0000000180070bf8     libucrt:mbctype.obj
 0002:00015bf8       $unwind$__acrt_InitializeCriticalSectionEx 0000000180070bf8     libucrt:winapi_thunks.obj
 0002:00015bf8       $unwind$opus_custom_encoder_init_arch 0000000180070bf8     libopus:celt_encoder.obj
 0002:00015bf8       $unwind$__acrt_execute_initializers 0000000180070bf8     libucrt:shared_initialization.obj
 0002:00015bf8       $unwind$__vcrt_InitializeCriticalSectionEx 0000000180070bf8     libvcruntime:winapi_downlevel.obj
 0002:00015bf8       $unwind$?dllmain_raw@@YAHQEAUHINSTANCE__@@KQEAX@Z 0000000180070bf8     LIBCMT:dll_dllmain.obj
 0002:00015bf8       $unwind$??$ensure_buffer_is_big_enough@D@formatting_buffer@__crt_stdio_output@@QEAA_N_K@Z 0000000180070bf8     libucrt:output.obj
 0002:00015bf8       $unwind$_recalloc_base     0000000180070bf8     libucrt:recalloc.obj
 0002:00015bf8       $unwind$celt_encoder_init  0000000180070bf8     libopus:celt_encoder.obj
 0002:00015bf8       $unwind$__acrt_lowio_create_handle_array 0000000180070bf8     libucrt:osfinfo.obj
 0002:00015bf8       $unwind$_seh_filter_exe    0000000180070bf8     libucrt:exception_filter.obj
 0002:00015bf8       $unwind$_wassert           0000000180070bf8     libucrt:assert.obj
 0002:00015bf8       $unwind$__scrt_dllmain_exception_filter 0000000180070bf8     LIBCMT:utility.obj
 0002:00015c0c       $unwind$transient_analysis 0000000180070c0c     libopus:celt_encoder.obj
 0002:00015c5c       $unwind$patch_transient_decision 0000000180070c5c     libopus:celt_encoder.obj
 0002:00015c88       $unwind$compute_mdcts      0000000180070c88     libopus:celt_encoder.obj
 0002:00015ca0       $unwind$celt_preemphasis   0000000180070ca0     libopus:celt_encoder.obj
 0002:00015cbc       $chain$0$celt_preemphasis  0000000180070cbc     libopus:celt_encoder.obj
 0002:00015cd0       $chain$1$celt_preemphasis  0000000180070cd0     libopus:celt_encoder.obj
 0002:00015ce0       $unwind$tf_analysis        0000000180070ce0     libopus:celt_encoder.obj
 0002:00015d10       $unwind$tf_encode          0000000180070d10     libopus:celt_encoder.obj
 0002:00015d28       $unwind$alloc_trim_analysis 0000000180070d28     libopus:celt_encoder.obj
 0002:00015d38       $chain$7$alloc_trim_analysis 0000000180070d38     libopus:celt_encoder.obj
 0002:00015d68       $chain$13$alloc_trim_analysis 0000000180070d68     libopus:celt_encoder.obj
 0002:00015d90       $chain$14$alloc_trim_analysis 0000000180070d90     libopus:celt_encoder.obj
 0002:00015db4       $chain$15$alloc_trim_analysis 0000000180070db4     libopus:celt_encoder.obj
 0002:00015dcc       $chain$16$alloc_trim_analysis 0000000180070dcc     libopus:celt_encoder.obj
 0002:00015de0       $chain$17$alloc_trim_analysis 0000000180070de0     libopus:celt_encoder.obj
 0002:00015df0       $chain$18$alloc_trim_analysis 0000000180070df0     libopus:celt_encoder.obj
 0002:00015e04       $chain$19$alloc_trim_analysis 0000000180070e04     libopus:celt_encoder.obj
 0002:00015e14       $unwind$stereo_analysis    0000000180070e14     libopus:celt_encoder.obj
 0002:00015e38       $unwind$dynalloc_analysis  0000000180070e38     libopus:celt_encoder.obj
 0002:00015e80       $unwind$run_prefilter      0000000180070e80     libopus:celt_encoder.obj
 0002:00015eb4       $unwind$compute_vbr        0000000180070eb4     libopus:celt_encoder.obj
 0002:00015ecc       $unwind$celt_encode_with_ec 0000000180070ecc     libopus:celt_encoder.obj
 0002:00015f18       $unwind$opus_custom_encoder_ctl 0000000180070f18     libopus:celt_encoder.obj
 0002:00015f20       $chain$1$opus_custom_encoder_ctl 0000000180070f20     libopus:celt_encoder.obj
 0002:00015f38       $chain$2$opus_custom_encoder_ctl 0000000180070f38     libopus:celt_encoder.obj
 0002:00015f48       $unwind$silk_InitDecoder   0000000180070f48     libopus:dec_API.obj
 0002:00015f60       $unwind$silk_Decode        0000000180070f60     libopus:dec_API.obj
 0002:00015f84       $unwind$dual_inner_prod_c  0000000180070f84     libopus:bands.obj
 0002:00015f84       $unwind$dual_inner_prod_c  0000000180070f84     libopus:pitch.obj
 0002:00015f84       $unwind$ec_dec_normalize   0000000180070f84     libopus:entdec.obj
 0002:00015f84       $unwind$silk_LP_interpolate_filter_taps 0000000180070f84     libopus:LP_variable_cutoff.obj
 0002:00015f8c       $chain$1$ec_dec_normalize  0000000180070f8c     libopus:entdec.obj
 0002:00015fa4       $chain$2$ec_dec_normalize  0000000180070fa4     libopus:entdec.obj
 0002:00015fb4       $unwind$silk_scale_copy_vector_FLP 0000000180070fb4     libopus:scale_copy_vector_FLP.obj
 0002:00015fb4       $unwind$silk_bwexpander_32 0000000180070fb4     libopus:bwexpander_32.obj
 0002:00015fb4       $unwind$ec_dec_bits        0000000180070fb4     libopus:entdec.obj
 0002:00015fbc       $chain$0$ec_dec_bits       0000000180070fbc     libopus:entdec.obj
 0002:00015fd0       $chain$1$ec_dec_bits       0000000180070fd0     libopus:entdec.obj
 0002:00015fe0       $unwind$opus_pcm_soft_clip 0000000180070fe0     libopus:opus.obj
 0002:00015fec       $chain$0$opus_pcm_soft_clip 0000000180070fec     libopus:opus.obj
 0002:00016000       $chain$10$opus_pcm_soft_clip 0000000180071000     libopus:opus.obj
 0002:00016038       $chain$11$opus_pcm_soft_clip 0000000180071038     libopus:opus.obj
 0002:00016048       $chain$12$opus_pcm_soft_clip 0000000180071048     libopus:opus.obj
 0002:00016058       $unwind$opus_packet_parse_impl 0000000180071058     libopus:opus.obj
 0002:00016070       $unwind$deemphasis         0000000180071070     libopus:celt_decoder.obj
 0002:00016098       $unwind$celt_synthesis     0000000180071098     libopus:celt_decoder.obj
 0002:000160c0       $unwind$tf_decode          00000001800710c0     libopus:celt_decoder.obj
 0002:000160d8       $unwind$celt_plc_pitch_search 00000001800710d8     libopus:celt_decoder.obj
 0002:000160f0       $unwind$celt_decode_lost   00000001800710f0     libopus:celt_decoder.obj
 0002:00016130       $unwind$celt_decode_with_ec 0000000180071130     libopus:celt_decoder.obj
 0002:0001615c       $unwind$silk_encode_frame_FLP 000000018007115c     libopus:encode_frame_FLP.obj
 0002:00016174       $chain$3$silk_encode_frame_FLP 0000000180071174     libopus:encode_frame_FLP.obj
 0002:00016194       $chain$13$silk_encode_frame_FLP 0000000180071194     libopus:encode_frame_FLP.obj
 0002:000161cc       $chain$14$silk_encode_frame_FLP 00000001800711cc     libopus:encode_frame_FLP.obj
 0002:000161dc       $chain$15$silk_encode_frame_FLP 00000001800711dc     libopus:encode_frame_FLP.obj
 0002:000161ec       $unwind$silk_LBRR_encode_FLP 00000001800711ec     libopus:encode_frame_FLP.obj
 0002:00016208       $chain$0$silk_LBRR_encode_FLP 0000000180071208     libopus:encode_frame_FLP.obj
 0002:0001621c       $chain$1$silk_LBRR_encode_FLP 000000018007121c     libopus:encode_frame_FLP.obj
 0002:0001622c       $unwind$silk_control_encoder 000000018007122c     libopus:control_codec.obj
 0002:00016244       $unwind$celt_fir_c         0000000180071244     libopus:celt_lpc.obj
 0002:00016244       $unwind$silk_setup_resamplers 0000000180071244     libopus:control_codec.obj
 0002:0001626c       $unwind$silk_setup_fs      000000018007126c     libopus:control_codec.obj
 0002:0001626c       $unwind$?try_get_function@@YAPEAXW4function_id@?A0x63058377@@QEBDQEBW4module_id@2@2@Z 000000018007126c     libucrt:winapi_thunks.obj
 0002:0001626c       $unwind$?try_get_function@@YAPEAXW4function_id@?A0x61ce2399@@QEBDQEBW4module_id@2@2@Z 000000018007126c     libvcruntime:winapi_downlevel.obj
 0002:0001626c       $unwind$quant_energy_finalise 000000018007126c     libopus:quant_bands.obj
 0002:0001626c       $unwind$?write_string@?$string_output_adapter@_W@__crt_stdio_output@@QEBAXQEB_WHQEAH1@Z 000000018007126c     libucrt:output.obj
 0002:00016288       $unwind$silk_encode_indices 0000000180071288     libopus:encode_indices.obj
 0002:0001629c       $chain$2$silk_encode_indices 000000018007129c     libopus:encode_indices.obj
 0002:000162b8       $chain$5$silk_encode_indices 00000001800712b8     libopus:encode_indices.obj
 0002:000162d4       $chain$6$silk_encode_indices 00000001800712d4     libopus:encode_indices.obj
 0002:000162e8       $chain$7$silk_encode_indices 00000001800712e8     libopus:encode_indices.obj
 0002:00016304       $chain$8$silk_encode_indices 0000000180071304     libopus:encode_indices.obj
 0002:00016318       $unwind$silk_encode_pulses 0000000180071318     libopus:encode_pulses.obj
 0002:0001633c       $unwind$silk_stereo_LR_to_MS 000000018007133c     libopus:stereo_LR_to_MS.obj
 0002:00016364       $unwind$silk_DIV32_varQ    0000000180071364     libopus:decode_core.obj
 0002:00016364       $unwind$silk_control_SNR   0000000180071364     libopus:control_SNR.obj
 0002:00016364       $unwind$??$type_case_integer_parse_into_buffer@I@?$output_processor@_WV?$stream_output_adapter@_W@__crt_stdio_output@@V?$standard_base@_WV?$stream_output_adapter@_W@__crt_stdio_output@@@2@@__crt_stdio_output@@AEAAXII_N@Z 0000000180071364     libucrt:output.obj
 0002:00016364       $unwind$silk_INVERSE32_varQ 0000000180071364     libopus:PLC.obj
 0002:00016364       $unwind$silk_INVERSE32_varQ 0000000180071364     libopus:NSQ_del_dec.obj
 0002:00016364       $unwind$silk_DIV32_varQ    0000000180071364     libopus:NSQ.obj
 0002:00016364       $unwind$silk_INVERSE32_varQ 0000000180071364     libopus:NSQ.obj
 0002:00016364       $unwind$silk_DIV32_varQ    0000000180071364     libopus:NSQ_del_dec.obj
 0002:00016364       $unwind$silk_INVERSE32_varQ 0000000180071364     libopus:decode_core.obj
 0002:00016364       $unwind$??$type_case_integer_parse_into_buffer@_K@?$output_processor@_WV?$stream_output_adapter@_W@__crt_stdio_output@@V?$standard_base@_WV?$stream_output_adapter@_W@__crt_stdio_output@@@2@@__crt_stdio_output@@AEAAX_KI_N@Z 0000000180071364     libucrt:output.obj
 0002:00016364       $unwind$??$type_case_integer_parse_into_buffer@_K@?$output_processor@_WV?$string_output_adapter@_W@__crt_stdio_output@@V?$standard_base@_WV?$string_output_adapter@_W@__crt_stdio_output@@@2@@__crt_stdio_output@@AEAAX_KI_N@Z 0000000180071364     libucrt:output.obj
 0002:00016364       $unwind$??$type_case_integer_parse_into_buffer@I@?$output_processor@_WV?$string_output_adapter@_W@__crt_stdio_output@@V?$standard_base@_WV?$string_output_adapter@_W@__crt_stdio_output@@@2@@__crt_stdio_output@@AEAAXII_N@Z 0000000180071364     libucrt:output.obj
 0002:0001636c       $unwind$silk_HP_variable_cutoff 000000018007136c     libopus:HP_variable_cutoff.obj
 0002:00016374       $chain$3$silk_HP_variable_cutoff 0000000180071374     libopus:HP_variable_cutoff.obj
 0002:00016394       $chain$6$silk_HP_variable_cutoff 0000000180071394     libopus:HP_variable_cutoff.obj
 0002:000163b0       $chain$7$silk_HP_variable_cutoff 00000001800713b0     libopus:HP_variable_cutoff.obj
 0002:000163c4       $chain$8$silk_HP_variable_cutoff 00000001800713c4     libopus:HP_variable_cutoff.obj
 0002:000163d4       $chain$9$silk_HP_variable_cutoff 00000001800713d4     libopus:HP_variable_cutoff.obj
 0002:000163e4       $unwind$silk_resampler     00000001800713e4     libopus:resampler.obj
 0002:000163fc       $unwind$kf_bfly2           00000001800713fc     libopus:kiss_fft.obj
 0002:000163fc       $unwind$strrchr            00000001800713fc     libvcruntime:strrchr.obj
 0002:00016404       $chain$0$kf_bfly2          0000000180071404     libopus:kiss_fft.obj
 0002:00016418       $chain$1$kf_bfly2          0000000180071418     libopus:kiss_fft.obj
 0002:00016428       $unwind$kf_bfly4           0000000180071428     libopus:kiss_fft.obj
 0002:00016434       $chain$10$kf_bfly4         0000000180071434     libopus:kiss_fft.obj
 0002:00016470       $chain$11$kf_bfly4         0000000180071470     libopus:kiss_fft.obj
 0002:00016480       $unwind$kf_bfly3           0000000180071480     libopus:kiss_fft.obj
 0002:0001648c       $chain$5$kf_bfly3          000000018007148c     libopus:kiss_fft.obj
 0002:000164b4       $chain$6$kf_bfly3          00000001800714b4     libopus:kiss_fft.obj
 0002:000164c4       $unwind$kf_bfly5           00000001800714c4     libopus:kiss_fft.obj
 0002:000164cc       $chain$17$kf_bfly5         00000001800714cc     libopus:kiss_fft.obj
 0002:00016524       $chain$18$kf_bfly5         0000000180071524     libopus:kiss_fft.obj
 0002:00016534       $unwind$opus_fft_impl      0000000180071534     libopus:kiss_fft.obj
 0002:0001654c       $chain$2$opus_fft_impl     000000018007154c     libopus:kiss_fft.obj
 0002:00016568       $chain$3$opus_fft_impl     0000000180071568     libopus:kiss_fft.obj
 0002:00016578       $unwind$opus_fft_c         0000000180071578     libopus:kiss_fft.obj
 0002:00016590       $chain$2$opus_fft_c        0000000180071590     libopus:kiss_fft.obj
 0002:000165ac       $chain$3$opus_fft_c        00000001800715ac     libopus:kiss_fft.obj
 0002:000165bc       $unwind$tansig_approx      00000001800715bc     libopus:mlp.obj
 0002:000165d0       $unwind$mlp_process        00000001800715d0     libopus:mlp.obj
 0002:000165e8       $chain$0$mlp_process       00000001800715e8     libopus:mlp.obj
 0002:000165fc       $chain$13$mlp_process      00000001800715fc     libopus:mlp.obj
 0002:00016640       $chain$14$mlp_process      0000000180071640     libopus:mlp.obj
 0002:00016650       $chain$15$mlp_process      0000000180071650     libopus:mlp.obj
 0002:00016660       $unwind$comb_filter_const_c 0000000180071660     libopus:celt.obj
 0002:00016680       $chain$0$comb_filter_const_c 0000000180071680     libopus:celt.obj
 0002:00016694       $chain$4$comb_filter_const_c 0000000180071694     libopus:celt.obj
 0002:000166b4       $chain$5$comb_filter_const_c 00000001800716b4     libopus:celt.obj
 0002:000166c4       $chain$6$comb_filter_const_c 00000001800716c4     libopus:celt.obj
 0002:000166d4       $unwind$comb_filter        00000001800716d4     libopus:celt.obj
 0002:000166e0       $chain$13$comb_filter      00000001800716e0     libopus:celt.obj
 0002:00016728       $chain$14$comb_filter      0000000180071728     libopus:celt.obj
 0002:0001673c       $chain$15$comb_filter      000000018007173c     libopus:celt.obj
 0002:00016750       $chain$16$comb_filter      0000000180071750     libopus:celt.obj
 0002:00016760       $chain$17$comb_filter      0000000180071760     libopus:celt.obj
 0002:00016780       $chain$18$comb_filter      0000000180071780     libopus:celt.obj
 0002:00016790       $unwind$loss_distortion    0000000180071790     libopus:quant_bands.obj
 0002:00016790       $unwind$init_caps          0000000180071790     libopus:celt.obj
 0002:000167a8       $unwind$quant_coarse_energy_impl 00000001800717a8     libopus:quant_bands.obj
 0002:000167c0       $chain$11$quant_coarse_energy_impl 00000001800717c0     libopus:quant_bands.obj
 0002:00016800       $chain$12$quant_coarse_energy_impl 0000000180071800     libopus:quant_bands.obj
 0002:00016810       $unwind$quant_coarse_energy 0000000180071810     libopus:quant_bands.obj
 0002:00016860       $unwind$quant_fine_energy  0000000180071860     libopus:quant_bands.obj
 0002:00016868       $chain$9$quant_fine_energy 0000000180071868     libopus:quant_bands.obj
 0002:000168a0       $chain$10$quant_fine_energy 00000001800718a0     libopus:quant_bands.obj
 0002:000168b0       $unwind$unquant_coarse_energy 00000001800718b0     libopus:quant_bands.obj
 0002:000168c0       $chain$2$unquant_coarse_energy 00000001800718c0     libopus:quant_bands.obj
 0002:000168dc       $chain$3$unquant_coarse_energy 00000001800718dc     libopus:quant_bands.obj
 0002:000168ec       $unwind$unquant_fine_energy 00000001800718ec     libopus:quant_bands.obj
 0002:000168f8       $chain$3$unquant_fine_energy 00000001800718f8     libopus:quant_bands.obj
 0002:00016918       $chain$4$unquant_fine_energy 0000000180071918     libopus:quant_bands.obj
 0002:00016928       $unwind$unquant_energy_finalise 0000000180071928     libopus:quant_bands.obj
 0002:00016944       $unwind$amp2Log2           0000000180071944     libopus:quant_bands.obj
 0002:00016964       $chain$1$dual_inner_prod_c 0000000180071964     libopus:bands.obj
 0002:00016964       $chain$1$dual_inner_prod_c 0000000180071964     libopus:pitch.obj
 0002:0001697c       $chain$2$dual_inner_prod_c 000000018007197c     libopus:bands.obj
 0002:0001697c       $chain$2$dual_inner_prod_c 000000018007197c     libopus:pitch.obj
 0002:0001698c       $unwind$compute_band_energies 000000018007198c     libopus:bands.obj
 0002:000169a8       $unwind$normalise_bands    00000001800719a8     libopus:bands.obj
 0002:000169c0       $unwind$denormalise_bands  00000001800719c0     libopus:bands.obj
 0002:000169d4       $chain$1$denormalise_bands 00000001800719d4     libopus:bands.obj
 0002:000169ec       $chain$2$denormalise_bands 00000001800719ec     libopus:bands.obj
 0002:000169fc       $unwind$anti_collapse      00000001800719fc     libopus:bands.obj
 0002:00016a0c       $chain$14$anti_collapse    0000000180071a0c     libopus:bands.obj
 0002:00016a58       $chain$15$anti_collapse    0000000180071a58     libopus:bands.obj
 0002:00016a68       $unwind$intensity_stereo   0000000180071a68     libopus:bands.obj
 0002:00016a7c       $unwind$stereo_merge       0000000180071a7c     libopus:bands.obj
 0002:00016a9c       $chain$1$stereo_merge      0000000180071a9c     libopus:bands.obj
 0002:00016ab4       $chain$2$stereo_merge      0000000180071ab4     libopus:bands.obj
 0002:00016ac8       $chain$3$stereo_merge      0000000180071ac8     libopus:bands.obj
 0002:00016ad8       $chain$4$stereo_merge      0000000180071ad8     libopus:bands.obj
 0002:00016ae8       $unwind$spreading_decision 0000000180071ae8     libopus:bands.obj
 0002:00016afc       $chain$1$spreading_decision 0000000180071afc     libopus:bands.obj
 0002:00016b14       $chain$2$spreading_decision 0000000180071b14     libopus:bands.obj
 0002:00016b24       $unwind$deinterleave_hadamard 0000000180071b24     libopus:bands.obj
 0002:00016b24       $unwind$interleave_hadamard 0000000180071b24     libopus:bands.obj
 0002:00016b4c       $unwind$haar1              0000000180071b4c     libopus:bands.obj
 0002:00016b58       $chain$2$haar1             0000000180071b58     libopus:bands.obj
 0002:00016b74       $chain$3$haar1             0000000180071b74     libopus:bands.obj
 0002:00016b84       $unwind$compute_theta      0000000180071b84     libopus:bands.obj
 0002:00016b9c       $unwind$quant_band_n1      0000000180071b9c     libopus:bands.obj
 0002:00016bb4       $unwind$quant_partition    0000000180071bb4     libopus:bands.obj
 0002:00016bc4       $chain$1$quant_partition   0000000180071bc4     libopus:bands.obj
 0002:00016bdc       $chain$2$quant_partition   0000000180071bdc     libopus:bands.obj
 0002:00016bf0       $chain$4$quant_partition   0000000180071bf0     libopus:bands.obj
 0002:00016c0c       $chain$5$quant_partition   0000000180071c0c     libopus:bands.obj
 0002:00016c1c       $unwind$quant_band         0000000180071c1c     libopus:bands.obj
 0002:00016c3c       $unwind$quant_band_stereo  0000000180071c3c     libopus:bands.obj
 0002:00016c64       $unwind$quant_all_bands    0000000180071c64     libopus:bands.obj
 0002:00016c94       $unwind$interp_bits2pulses 0000000180071c94     libopus:rate.obj
 0002:00016cb0       $unwind$compute_allocation 0000000180071cb0     libopus:rate.obj
 0002:00016cd8       $unwind$xcorr_kernel_c     0000000180071cd8     libopus:pitch.obj
 0002:00016cec       $chain$0$xcorr_kernel_c    0000000180071cec     libopus:pitch.obj
 0002:00016d00       $chain$2$xcorr_kernel_c    0000000180071d00     libopus:pitch.obj
 0002:00016d18       $chain$3$xcorr_kernel_c    0000000180071d18     libopus:pitch.obj
 0002:00016d28       $chain$4$xcorr_kernel_c    0000000180071d28     libopus:pitch.obj
 0002:00016d38       $unwind$find_best_pitch    0000000180071d38     libopus:pitch.obj
 0002:00016d5c       $chain$1$find_best_pitch   0000000180071d5c     libopus:pitch.obj
 0002:00016d74       $chain$2$find_best_pitch   0000000180071d74     libopus:pitch.obj
 0002:00016d84       $unwind$celt_fir5          0000000180071d84     libopus:pitch.obj
 0002:00016db4       $chain$0$celt_fir5         0000000180071db4     libopus:pitch.obj
 0002:00016dc8       $chain$1$celt_fir5         0000000180071dc8     libopus:pitch.obj
 0002:00016dd8       $unwind$pitch_downsample   0000000180071dd8     libopus:pitch.obj
 0002:00016df4       $unwind$celt_pitch_xcorr   0000000180071df4     libopus:pitch.obj
 0002:00016e0c       $chain$0$celt_pitch_xcorr  0000000180071e0c     libopus:pitch.obj
 0002:00016e20       $chain$1$celt_pitch_xcorr  0000000180071e20     libopus:pitch.obj
 0002:00016e30       $unwind$pitch_search       0000000180071e30     libopus:pitch.obj
 0002:00016e58       $unwind$remove_doubling    0000000180071e58     libopus:pitch.obj
 0002:00016ea4       $unwind$clt_mdct_forward_c 0000000180071ea4     libopus:mdct.obj
 0002:00016ed0       $unwind$clt_mdct_backward_c 0000000180071ed0     libopus:mdct.obj
 0002:00016ee0       $chain$1$clt_mdct_backward_c 0000000180071ee0     libopus:mdct.obj
 0002:00016ef8       $chain$4$clt_mdct_backward_c 0000000180071ef8     libopus:mdct.obj
 0002:00016f14       $chain$5$clt_mdct_backward_c 0000000180071f14     libopus:mdct.obj
 0002:00016f28       $chain$6$clt_mdct_backward_c 0000000180071f28     libopus:mdct.obj
 0002:00016f44       $chain$7$clt_mdct_backward_c 0000000180071f44     libopus:mdct.obj
 0002:00016f58       $chain$8$clt_mdct_backward_c 0000000180071f58     libopus:mdct.obj
 0002:00016f68       $chain$9$clt_mdct_backward_c 0000000180071f68     libopus:mdct.obj
 0002:00016f78       $unwind$silk_decode_frame  0000000180071f78     libopus:decode_frame.obj
 0002:00016fa0       $unwind$silk_decode_indices 0000000180071fa0     libopus:decode_indices.obj
 0002:00016fc0       $unwind$silk_stereo_decode_pred 0000000180071fc0     libopus:stereo_decode_pred.obj
 0002:00016fe0       $unwind$silk_stereo_MS_to_LR 0000000180071fe0     libopus:stereo_MS_to_LR.obj
 0002:00016fec       $chain$5$silk_stereo_MS_to_LR 0000000180071fec     libopus:stereo_MS_to_LR.obj
 0002:00017014       $chain$6$silk_stereo_MS_to_LR 0000000180072014     libopus:stereo_MS_to_LR.obj
 0002:00017024       $unwind$silk_decode_pulses 0000000180072024     libopus:decode_pulses.obj
 0002:0001704c       $unwind$xcorr_kernel_c     000000018007204c     libopus:celt_lpc.obj
 0002:0001706c       $unwind$_celt_lpc          000000018007206c     libopus:celt_lpc.obj
 0002:00017080       $chain$0$_celt_lpc         0000000180072080     libopus:celt_lpc.obj
 0002:00017094       $chain$3$_celt_lpc         0000000180072094     libopus:celt_lpc.obj
 0002:000170b0       $chain$4$_celt_lpc         00000001800720b0     libopus:celt_lpc.obj
 0002:000170c0       $chain$5$_celt_lpc         00000001800720c0     libopus:celt_lpc.obj
 0002:000170d0       $unwind$celt_iir           00000001800720d0     libopus:celt_lpc.obj
 0002:000170fc       $unwind$_celt_autocorr     00000001800720fc     libopus:celt_lpc.obj
 0002:00017124       $unwind$exp_rotation1      0000000180072124     libopus:vq.obj
 0002:0001713c       $chain$0$exp_rotation1     000000018007213c     libopus:vq.obj
 0002:00017150       $chain$1$exp_rotation1     0000000180072150     libopus:vq.obj
 0002:00017160       $unwind$exp_rotation       0000000180072160     libopus:vq.obj
 0002:00017174       $chain$2$exp_rotation      0000000180072174     libopus:vq.obj
 0002:00017190       $chain$3$exp_rotation      0000000180072190     libopus:vq.obj
 0002:000171a4       $chain$4$exp_rotation      00000001800721a4     libopus:vq.obj
 0002:000171b4       $chain$5$exp_rotation      00000001800721b4     libopus:vq.obj
 0002:000171c4       $unwind$extract_collapse_mask 00000001800721c4     libopus:vq.obj
 0002:000171d4       $unwind$alg_quant          00000001800721d4     libopus:vq.obj
 0002:00017218       $unwind$alg_unquant        0000000180072218     libopus:vq.obj
 0002:00017240       $unwind$renormalise_vector 0000000180072240     libopus:vq.obj
 0002:00017250       $unwind$stereo_itheta      0000000180072250     libopus:vq.obj
 0002:00017264       $unwind$warped_true2monic_coefs 0000000180072264     libopus:noise_shape_analysis_FLP.obj
 0002:000172ac       $unwind$silk_noise_shape_analysis_FLP 00000001800722ac     libopus:noise_shape_analysis_FLP.obj
 0002:000172d4       $chain$7$silk_noise_shape_analysis_FLP 00000001800722d4     libopus:noise_shape_analysis_FLP.obj
 0002:00017304       $chain$10$silk_noise_shape_analysis_FLP 0000000180072304     libopus:noise_shape_analysis_FLP.obj
 0002:00017320       $chain$11$silk_noise_shape_analysis_FLP 0000000180072320     libopus:noise_shape_analysis_FLP.obj
 0002:00017344       $chain$12$silk_noise_shape_analysis_FLP 0000000180072344     libopus:noise_shape_analysis_FLP.obj
 0002:00017364       $chain$13$silk_noise_shape_analysis_FLP 0000000180072364     libopus:noise_shape_analysis_FLP.obj
 0002:00017374       $chain$2$silk_gains_quant  0000000180072374     libopus:gain_quant.obj
 0002:00017390       $chain$3$silk_gains_quant  0000000180072390     libopus:gain_quant.obj
 0002:000173a0       $unwind$silk_gains_dequant 00000001800723a0     libopus:gain_quant.obj
 0002:000173b4       $chain$0$silk_gains_dequant 00000001800723b4     libopus:gain_quant.obj
 0002:000173c8       $chain$1$silk_gains_dequant 00000001800723c8     libopus:gain_quant.obj
 0002:000173d8       $unwind$silk_warped_LPC_analysis_filter_FLP 00000001800723d8     libopus:prefilter_FLP.obj
 0002:000173e4       $chain$1$silk_warped_LPC_analysis_filter_FLP 00000001800723e4     libopus:prefilter_FLP.obj
 0002:000173fc       $chain$2$silk_warped_LPC_analysis_filter_FLP 00000001800723fc     libopus:prefilter_FLP.obj
 0002:0001740c       $unwind$silk_prefilter_FLP 000000018007240c     libopus:prefilter_FLP.obj
 0002:00017428       $chain$11$silk_prefilter_FLP 0000000180072428     libopus:prefilter_FLP.obj
 0002:00017468       $chain$12$silk_prefilter_FLP 0000000180072468     libopus:prefilter_FLP.obj
 0002:00017478       $unwind$silk_prefilt_FLP   0000000180072478     libopus:prefilter_FLP.obj
 0002:00017498       $chain$0$silk_prefilt_FLP  0000000180072498     libopus:prefilter_FLP.obj
 0002:000174ac       $chain$1$silk_prefilt_FLP  00000001800724ac     libopus:prefilter_FLP.obj
 0002:000174bc       $chain$1$silk_LP_interpolate_filter_taps 00000001800724bc     libopus:LP_variable_cutoff.obj
 0002:000174d4       $chain$3$silk_LP_interpolate_filter_taps 00000001800724d4     libopus:LP_variable_cutoff.obj
 0002:000174ec       $chain$4$silk_LP_interpolate_filter_taps 00000001800724ec     libopus:LP_variable_cutoff.obj
 0002:000174fc       $unwind$silk_LP_variable_cutoff 00000001800724fc     libopus:LP_variable_cutoff.obj
 0002:00017514       $chain$0$silk_LP_variable_cutoff 0000000180072514     libopus:LP_variable_cutoff.obj
 0002:00017528       $chain$1$silk_LP_variable_cutoff 0000000180072528     libopus:LP_variable_cutoff.obj
 0002:00017538       $unwind$silk_VAD_GetSA_Q8_c 0000000180072538     libopus:VAD.obj
 0002:0001755c       $unwind$silk_VAD_GetNoiseLevels 000000018007255c     libopus:VAD.obj
 0002:0001755c       $unwind$silk_SolveWithUpperTriangularFromLowerWdiagOnes_FLP 000000018007255c     libopus:solve_LS_FLP.obj
 0002:00017570       $unwind$silk_find_pitch_lags_FLP 0000000180072570     libopus:find_pitch_lags_FLP.obj
 0002:00017594       $unwind$silk_process_gains_FLP 0000000180072594     libopus:process_gains_FLP.obj
 0002:000175a8       $chain$4$silk_process_gains_FLP 00000001800725a8     libopus:process_gains_FLP.obj
 0002:000175cc       $chain$6$silk_process_gains_FLP 00000001800725cc     libopus:process_gains_FLP.obj
 0002:000175e4       $chain$7$silk_process_gains_FLP 00000001800725e4     libopus:process_gains_FLP.obj
 0002:000175f4       $chain$8$silk_process_gains_FLP 00000001800725f4     libopus:process_gains_FLP.obj
 0002:00017610       $chain$9$silk_process_gains_FLP 0000000180072610     libopus:process_gains_FLP.obj
 0002:00017624       $chain$10$silk_process_gains_FLP 0000000180072624     libopus:process_gains_FLP.obj
 0002:00017634       $unwind$silk_NLSF2A_FLP    0000000180072634     libopus:wrappers_FLP.obj
 0002:00017648       $unwind$silk_NSQ_wrapper_FLP 0000000180072648     libopus:wrappers_FLP.obj
 0002:00017668       $unwind$silk_quant_LTP_gains_FLP 0000000180072668     libopus:wrappers_FLP.obj
 0002:00017684       $unwind$silk_find_pred_coefs_FLP 0000000180072684     libopus:find_pred_coefs_FLP.obj
 0002:000176a0       $chain$0$silk_find_pred_coefs_FLP 00000001800726a0     libopus:find_pred_coefs_FLP.obj
 0002:000176b4       $chain$1$silk_find_pred_coefs_FLP 00000001800726b4     libopus:find_pred_coefs_FLP.obj
 0002:000176c4       $unwind$decode_split       00000001800726c4     libopus:shell_coder.obj
 0002:000176d4       $chain$0$decode_split      00000001800726d4     libopus:shell_coder.obj
 0002:000176e8       $chain$1$decode_split      00000001800726e8     libopus:shell_coder.obj
 0002:000176f8       $unwind$silk_shell_encoder 00000001800726f8     libopus:shell_coder.obj
 0002:00017714       $unwind$silk_shell_decoder 0000000180072714     libopus:shell_coder.obj
 0002:00017728       $unwind$silk_encode_signs  0000000180072728     libopus:code_signs.obj
 0002:00017738       $chain$2$silk_encode_signs 0000000180072738     libopus:code_signs.obj
 0002:00017754       $chain$3$silk_encode_signs 0000000180072754     libopus:code_signs.obj
 0002:00017764       $unwind$silk_decode_signs  0000000180072764     libopus:code_signs.obj
 0002:00017774       $chain$2$silk_decode_signs 0000000180072774     libopus:code_signs.obj
 0002:00017790       $chain$3$silk_decode_signs 0000000180072790     libopus:code_signs.obj
 0002:000177a0       $unwind$silk_stereo_quant_pred 00000001800727a0     libopus:stereo_quant_pred.obj
 0002:000177bc       $unwind$silk_stereo_find_predictor 00000001800727bc     libopus:stereo_find_predictor.obj
 0002:000177d4       $unwind$silk_resampler_private_up2_HQ 00000001800727d4     libopus:resampler_private_up2_HQ.obj
 0002:000177e4       $chain$2$silk_resampler_private_up2_HQ 00000001800727e4     libopus:resampler_private_up2_HQ.obj
 0002:00017800       $chain$3$silk_resampler_private_up2_HQ 0000000180072800     libopus:resampler_private_up2_HQ.obj
 0002:00017810       $unwind$silk_resampler_private_IIR_FIR_INTERPOL 0000000180072810     libopus:resampler_private_IIR_FIR.obj
 0002:00017820       $chain$1$silk_resampler_private_IIR_FIR_INTERPOL 0000000180072820     libopus:resampler_private_IIR_FIR.obj
 0002:00017838       $chain$2$silk_resampler_private_IIR_FIR_INTERPOL 0000000180072838     libopus:resampler_private_IIR_FIR.obj
 0002:00017848       $unwind$silk_resampler_private_IIR_FIR 0000000180072848     libopus:resampler_private_IIR_FIR.obj
 0002:00017870       $unwind$silk_resampler_private_down_FIR_INTERPOL 0000000180072870     libopus:resampler_private_down_FIR.obj
 0002:00017888       $unwind$silk_resampler_private_down_FIR 0000000180072888     libopus:resampler_private_down_FIR.obj
 0002:000178b0       $chain$1$ec_laplace_encode 00000001800728b0     libopus:laplace.obj
 0002:000178c8       $chain$3$ec_laplace_encode 00000001800728c8     libopus:laplace.obj
 0002:000178e0       $chain$4$ec_laplace_encode 00000001800728e0     libopus:laplace.obj
 0002:000178f0       $chain$5$ec_laplace_encode 00000001800728f0     libopus:laplace.obj
 0002:00017900       $unwind$silk_PLC_conceal   0000000180072900     libopus:PLC.obj
 0002:00017924       $unwind$?type_case_c_tchar@?$output_processor@_WV?$string_output_adapter@_W@__crt_stdio_output@@V?$standard_base@_WV?$string_output_adapter@_W@__crt_stdio_output@@@2@@__crt_stdio_output@@AEAA_N_W@Z 0000000180072924     libucrt:output.obj
 0002:00017924       $unwind$?type_case_c_tchar@?$output_processor@_WV?$stream_output_adapter@_W@__crt_stdio_output@@V?$standard_base@_WV?$stream_output_adapter@_W@__crt_stdio_output@@@2@@__crt_stdio_output@@AEAA_N_W@Z 0000000180072924     libucrt:output.obj
 0002:00017924       $unwind$silk_PLC_glue_frames 0000000180072924     libopus:PLC.obj
 0002:00017924       $unwind$??R<lambda_b721fa326cdb32351d23dfa67958c160>@@QEBAHXZ 0000000180072924     libucrt:setvbuf.obj
 0002:00017934       $unwind$silk_decode_core   0000000180072934     libopus:decode_core.obj
 0002:00017958       $unwind$silk_decode_parameters 0000000180072958     libopus:decode_parameters.obj
 0002:0001796c       $chain$1$silk_decode_parameters 000000018007296c     libopus:decode_parameters.obj
 0002:00017984       $chain$2$silk_decode_parameters 0000000180072984     libopus:decode_parameters.obj
 0002:00017994       $unwind$silk_CNG_exc       0000000180072994     libopus:CNG.obj
 0002:000179a8       $chain$1$silk_CNG_exc      00000001800729a8     libopus:CNG.obj
 0002:000179c0       $chain$2$silk_CNG_exc      00000001800729c0     libopus:CNG.obj
 0002:000179d0       $unwind$silk_CNG           00000001800729d0     libopus:CNG.obj
 0002:000179f4       $unwind$cwrsi              00000001800729f4     libopus:cwrs.obj
 0002:00017a00       $chain$4$cwrsi             0000000180072a00     libopus:cwrs.obj
 0002:00017a24       $chain$5$cwrsi             0000000180072a24     libopus:cwrs.obj
 0002:00017a34       $unwind$silk_autocorrelation_FLP 0000000180072a34     libopus:autocorrelation_FLP.obj
 0002:00017a44       $chain$0$silk_autocorrelation_FLP 0000000180072a44     libopus:autocorrelation_FLP.obj
 0002:00017a58       $chain$1$silk_autocorrelation_FLP 0000000180072a58     libopus:autocorrelation_FLP.obj
 0002:00017a68       $unwind$silk_warped_autocorrelation_FLP 0000000180072a68     libopus:warped_autocorrelation_FLP.obj
 0002:00017a84       $unwind$silk_levinsondurbin_FLP 0000000180072a84     libopus:levinsondurbin_FLP.obj
 0002:00017a94       $chain$3$silk_levinsondurbin_FLP 0000000180072a94     libopus:levinsondurbin_FLP.obj
 0002:00017ab4       $chain$4$silk_levinsondurbin_FLP 0000000180072ab4     libopus:levinsondurbin_FLP.obj
 0002:00017ac4       $unwind$silk_apply_sine_window_FLP 0000000180072ac4     libopus:apply_sine_window_FLP.obj
 0002:00017ad0       $unwind$silk_LPC_inverse_pred_gain_FLP 0000000180072ad0     libopus:LPC_inv_pred_gain_FLP.obj
 0002:00017afc       $unwind$silk_biquad_alt    0000000180072afc     libopus:biquad_alt.obj
 0002:00017b08       $chain$4$silk_biquad_alt   0000000180072b08     libopus:biquad_alt.obj
 0002:00017b2c       $chain$5$silk_biquad_alt   0000000180072b2c     libopus:biquad_alt.obj
 0002:00017b3c       $unwind$silk_ana_filt_bank_1 0000000180072b3c     libopus:ana_filt_bank_1.obj
 0002:00017b4c       $chain$2$silk_ana_filt_bank_1 0000000180072b4c     libopus:ana_filt_bank_1.obj
 0002:00017b68       $chain$3$silk_ana_filt_bank_1 0000000180072b68     libopus:ana_filt_bank_1.obj
 0002:00017b78       $unwind$silk_schur_FLP     0000000180072b78     libopus:schur_FLP.obj
 0002:00017b94       $chain$0$silk_schur_FLP    0000000180072b94     libopus:schur_FLP.obj
 0002:00017ba8       $chain$1$silk_schur_FLP    0000000180072ba8     libopus:schur_FLP.obj
 0002:00017bb8       $unwind$silk_pitch_analysis_core_FLP 0000000180072bb8     libopus:pitch_analysis_core_FLP.obj
 0002:00017be0       $chain$0$silk_pitch_analysis_core_FLP 0000000180072be0     libopus:pitch_analysis_core_FLP.obj
 0002:00017bf4       $chain$4$silk_pitch_analysis_core_FLP 0000000180072bf4     libopus:pitch_analysis_core_FLP.obj
 0002:00017c14       $chain$6$silk_pitch_analysis_core_FLP 0000000180072c14     libopus:pitch_analysis_core_FLP.obj
 0002:00017c2c       $chain$7$silk_pitch_analysis_core_FLP 0000000180072c2c     libopus:pitch_analysis_core_FLP.obj
 0002:00017c40       $chain$8$silk_pitch_analysis_core_FLP 0000000180072c40     libopus:pitch_analysis_core_FLP.obj
 0002:00017c50       $chain$9$silk_pitch_analysis_core_FLP 0000000180072c50     libopus:pitch_analysis_core_FLP.obj
 0002:00017c50       $chain$11$silk_pitch_analysis_core_FLP 0000000180072c50     libopus:pitch_analysis_core_FLP.obj
 0002:00017c60       $chain$10$silk_pitch_analysis_core_FLP 0000000180072c60     libopus:pitch_analysis_core_FLP.obj
 0002:00017c88       $unwind$silk_P_Ana_calc_corr_st3 0000000180072c88     libopus:pitch_analysis_core_FLP.obj
 0002:00017ca8       $unwind$silk_P_Ana_calc_energy_st3 0000000180072ca8     libopus:pitch_analysis_core_FLP.obj
 0002:00017cc4       $chain$2$silk_P_Ana_calc_energy_st3 0000000180072cc4     libopus:pitch_analysis_core_FLP.obj
 0002:00017ce0       $chain$3$silk_P_Ana_calc_energy_st3 0000000180072ce0     libopus:pitch_analysis_core_FLP.obj
 0002:00017cf0       $unwind$silk_k2a_FLP       0000000180072cf0     libopus:k2a_FLP.obj
 0002:00017d04       $chain$4$silk_k2a_FLP      0000000180072d04     libopus:k2a_FLP.obj
 0002:00017d28       $chain$5$silk_k2a_FLP      0000000180072d28     libopus:k2a_FLP.obj
 0002:00017d38       $unwind$silk_process_NLSFs 0000000180072d38     libopus:process_NLSFs.obj
 0002:00017d54       $chain$2$silk_process_NLSFs 0000000180072d54     libopus:process_NLSFs.obj
 0002:00017d70       $chain$3$silk_process_NLSFs 0000000180072d70     libopus:process_NLSFs.obj
 0002:00017d80       $unwind$silk_quant_LTP_gains 0000000180072d80     libopus:quant_LTP_gains.obj
 0002:00017d98       $unwind$silk_NSQ_c         0000000180072d98     libopus:NSQ.obj
 0002:00017dc0       $unwind$silk_noise_shape_quantizer 0000000180072dc0     libopus:NSQ.obj
 0002:00017dcc       $chain$5$silk_noise_shape_quantizer 0000000180072dcc     libopus:NSQ.obj
 0002:00017df4       $chain$6$silk_noise_shape_quantizer 0000000180072df4     libopus:NSQ.obj
 0002:00017e04       $unwind$silk_nsq_scale_states 0000000180072e04     libopus:NSQ.obj
 0002:00017e20       $unwind$silk_A2NLSF_init   0000000180072e20     libopus:A2NLSF.obj
 0002:00017e28       $chain$0$silk_A2NLSF_init  0000000180072e28     libopus:A2NLSF.obj
 0002:00017e3c       $chain$2$silk_A2NLSF_init  0000000180072e3c     libopus:A2NLSF.obj
 0002:00017e54       $chain$4$silk_A2NLSF_init  0000000180072e54     libopus:A2NLSF.obj
 0002:00017e6c       $chain$5$silk_A2NLSF_init  0000000180072e6c     libopus:A2NLSF.obj
 0002:00017e7c       $chain$6$silk_A2NLSF_init  0000000180072e7c     libopus:A2NLSF.obj
 0002:00017e90       $chain$7$silk_A2NLSF_init  0000000180072e90     libopus:A2NLSF.obj
 0002:00017ea0       $chain$8$silk_A2NLSF_init  0000000180072ea0     libopus:A2NLSF.obj
 0002:00017eb0       $unwind$silk_A2NLSF        0000000180072eb0     libopus:A2NLSF.obj
 0002:00017ed4       $unwind$silk_NSQ_del_dec_c 0000000180072ed4     libopus:NSQ_del_dec.obj
 0002:00017efc       $unwind$silk_noise_shape_quantizer_del_dec 0000000180072efc     libopus:NSQ_del_dec.obj
 0002:00017f24       $unwind$silk_nsq_del_dec_scale_states 0000000180072f24     libopus:NSQ_del_dec.obj
 0002:00017f34       $chain$1$silk_nsq_del_dec_scale_states 0000000180072f34     libopus:NSQ_del_dec.obj
 0002:00017f4c       $chain$2$silk_nsq_del_dec_scale_states 0000000180072f4c     libopus:NSQ_del_dec.obj
 0002:00017f60       $unwind$silk_NLSF2A        0000000180072f60     libopus:NLSF2A.obj
 0002:00017f80       $chain$0$silk_NLSF2A       0000000180072f80     libopus:NLSF2A.obj
 0002:00017f94       $chain$1$silk_scale_copy_vector_FLP 0000000180072f94     libopus:scale_copy_vector_FLP.obj
 0002:00017fac       $chain$2$silk_scale_copy_vector_FLP 0000000180072fac     libopus:scale_copy_vector_FLP.obj
 0002:00017fc0       $chain$3$silk_scale_copy_vector_FLP 0000000180072fc0     libopus:scale_copy_vector_FLP.obj
 0002:00017fd0       $chain$4$silk_scale_copy_vector_FLP 0000000180072fd0     libopus:scale_copy_vector_FLP.obj
 0002:00017fe0       $unwind$silk_LTP_analysis_filter_FLP 0000000180072fe0     libopus:LTP_analysis_filter_FLP.obj
 0002:00017fec       $chain$5$silk_LTP_analysis_filter_FLP 0000000180072fec     libopus:LTP_analysis_filter_FLP.obj
 0002:00018014       $chain$6$silk_LTP_analysis_filter_FLP 0000000180073014     libopus:LTP_analysis_filter_FLP.obj
 0002:00018024       $unwind$silk_find_LPC_FLP  0000000180073024     libopus:find_LPC_FLP.obj
 0002:00018040       $chain$3$silk_find_LPC_FLP 0000000180073040     libopus:find_LPC_FLP.obj
 0002:00018060       $chain$5$silk_find_LPC_FLP 0000000180073060     libopus:find_LPC_FLP.obj
 0002:00018078       $chain$6$silk_find_LPC_FLP 0000000180073078     libopus:find_LPC_FLP.obj
 0002:00018088       $chain$7$silk_find_LPC_FLP 0000000180073088     libopus:find_LPC_FLP.obj
 0002:00018098       $unwind$silk_residual_energy_covar_FLP 0000000180073098     libopus:residual_energy_FLP.obj
 0002:000180cc       $unwind$silk_residual_energy_FLP 00000001800730cc     libopus:residual_energy_FLP.obj
 0002:000180f0       $unwind$silk_find_LTP_FLP  00000001800730f0     libopus:find_LTP_FLP.obj
 0002:0001811c       $chain$2$silk_find_LTP_FLP 000000018007311c     libopus:find_LTP_FLP.obj
 0002:00018138       $chain$4$silk_find_LTP_FLP 0000000180073138     libopus:find_LTP_FLP.obj
 0002:00018150       $chain$5$silk_find_LTP_FLP 0000000180073150     libopus:find_LTP_FLP.obj
 0002:00018164       $chain$6$silk_find_LTP_FLP 0000000180073164     libopus:find_LTP_FLP.obj
 0002:00018178       $chain$7$silk_find_LTP_FLP 0000000180073178     libopus:find_LTP_FLP.obj
 0002:00018188       $unwind$silk_sum_sqr_shift 0000000180073188     libopus:sum_sqr_shift.obj
 0002:000181a0       $unwind$silk_inner_prod_aligned_scale 00000001800731a0     libopus:inner_prod_aligned.obj
 0002:000181b8       $unwind$silk_LPC_inverse_pred_gain 00000001800731b8     libopus:LPC_inv_pred_gain.obj
 0002:000181cc       $chain$5$silk_LPC_inverse_pred_gain 00000001800731cc     libopus:LPC_inv_pred_gain.obj
 0002:000181f4       $chain$6$silk_LPC_inverse_pred_gain 00000001800731f4     libopus:LPC_inv_pred_gain.obj
 0002:00018204       $unwind$silk_LPC_analysis_filter 0000000180073204     libopus:LPC_analysis_filter.obj
 0002:00018214       $chain$2$silk_LPC_analysis_filter 0000000180073214     libopus:LPC_analysis_filter.obj
 0002:00018230       $chain$3$silk_LPC_analysis_filter 0000000180073230     libopus:LPC_analysis_filter.obj
 0002:00018240       $unwind$silk_NLSF_decode   0000000180073240     libopus:NLSF_decode.obj
 0002:00018258       $chain$1$silk_NLSF_decode  0000000180073258     libopus:NLSF_decode.obj
 0002:00018270       $chain$2$silk_NLSF_decode  0000000180073270     libopus:NLSF_decode.obj
 0002:00018284       $chain$3$silk_NLSF_decode  0000000180073284     libopus:NLSF_decode.obj
 0002:00018294       $chain$4$silk_NLSF_decode  0000000180073294     libopus:NLSF_decode.obj
 0002:000182a8       $unwind$?DloadObtainSection@@YAPEAXPEAK0@Z 00000001800732a8     DelayImp:delayhlp.obj
 0002:000182a8       $unwind$silk_decode_pitch  00000001800732a8     libopus:decode_pitch.obj
 0002:000182b8       $unwind$silk_insertion_sort_decreasing_FLP 00000001800732b8     libopus:sort_FLP.obj
 0002:000182cc       $chain$1$silk_insertion_sort_decreasing_FLP 00000001800732cc     libopus:sort_FLP.obj
 0002:000182e0       $chain$2$silk_insertion_sort_decreasing_FLP 00000001800732e0     libopus:sort_FLP.obj
 0002:000182f0       $unwind$silk_resampler_down2_3 00000001800732f0     libopus:resampler_down2_3.obj
 0002:00018318       $unwind$silk_NLSF_encode   0000000180073318     libopus:NLSF_encode.obj
 0002:0001833c       $unwind$silk_NLSF_VQ_weights_laroia 000000018007333c     libopus:NLSF_VQ_weights_laroia.obj
 0002:0001834c       $chain$2$silk_NLSF_VQ_weights_laroia 000000018007334c     libopus:NLSF_VQ_weights_laroia.obj
 0002:00018368       $chain$3$silk_NLSF_VQ_weights_laroia 0000000180073368     libopus:NLSF_VQ_weights_laroia.obj
 0002:00018378       $unwind$silk_interpolate   0000000180073378     libopus:interpolate.obj
 0002:00018384       $chain$0$silk_interpolate  0000000180073384     libopus:interpolate.obj
 0002:00018398       $chain$1$silk_interpolate  0000000180073398     libopus:interpolate.obj
 0002:000183a8       $unwind$silk_VQ_WMat_EC_c  00000001800733a8     libopus:VQ_WMat_EC.obj
 0002:000183b0       $chain$6$silk_VQ_WMat_EC_c 00000001800733b0     libopus:VQ_WMat_EC.obj
 0002:000183dc       $chain$7$silk_VQ_WMat_EC_c 00000001800733dc     libopus:VQ_WMat_EC.obj
 0002:000183ec       $chain$0$silk_bwexpander_32 00000001800733ec     libopus:bwexpander_32.obj
 0002:00018400       $chain$1$silk_bwexpander_32 0000000180073400     libopus:bwexpander_32.obj
 0002:00018410       $unwind$silk_burg_modified_FLP 0000000180073410     libopus:burg_modified_FLP.obj
 0002:00018440       $chain$3$silk_burg_modified_FLP 0000000180073440     libopus:burg_modified_FLP.obj
 0002:00018460       $chain$7$silk_burg_modified_FLP 0000000180073460     libopus:burg_modified_FLP.obj
 0002:00018480       $chain$8$silk_burg_modified_FLP 0000000180073480     libopus:burg_modified_FLP.obj
 0002:00018490       $chain$9$silk_burg_modified_FLP 0000000180073490     libopus:burg_modified_FLP.obj
 0002:000184a0       $unwind$silk_corrMatrix_FLP 00000001800734a0     libopus:corrMatrix_FLP.obj
 0002:000184b8       $unwind$silk_LDL_FLP       00000001800734b8     libopus:solve_LS_FLP.obj
 0002:000184dc       $unwind$silk_NLSF_stabilize 00000001800734dc     libopus:NLSF_stabilize.obj
 0002:000184f4       $unwind$silk_NLSF_VQ       00000001800734f4     libopus:NLSF_VQ.obj
 0002:00018508       $unwind$silk_insertion_sort_increasing 0000000180073508     libopus:sort.obj
 0002:00018520       $chain$1$silk_insertion_sort_increasing 0000000180073520     libopus:sort.obj
 0002:00018534       $chain$2$silk_insertion_sort_increasing 0000000180073534     libopus:sort.obj
 0002:00018544       $unwind$silk_NLSF_del_dec_quant 0000000180073544     libopus:NLSF_del_dec_quant.obj
 0002:0001856c       xdata                      000000018007356c     node:node.exe
 0002:00018578       $xdatasym                  0000000180073578     LIBCMT:_amdsecgs_.obj
 0002:0001857c       $unwind$?dllmain_crt_process_attach@@YAHQEAUHINSTANCE__@@QEAX@Z 000000018007357c     LIBCMT:dll_dllmain.obj
 0002:000185a8       $unwind$?dllmain_crt_process_detach@@YAH_N@Z 00000001800735a8     LIBCMT:dll_dllmain.obj
 0002:000185d0       $unwind$?dllmain_dispatch@@YAHQEAUHINSTANCE__@@KQEAX@Z 00000001800735d0     LIBCMT:dll_dllmain.obj
 0002:000185f8       $unwind$?filt$0@?0??dllmain_dispatch@@YAHQEAUHINSTANCE__@@KQEAX@Z@4HA 00000001800735f8     LIBCMT:dll_dllmain.obj
 0002:00018600       $unwind$__report_securityfailure 0000000180073600     LIBCMT:gs_report.obj
 0002:00018608       $unwind$__report_gsfailure 0000000180073608     LIBCMT:gs_report.obj
 0002:00018608       $unwind$_putwch_nolock     0000000180073608     libucrt:putwch.obj
 0002:00018610       $unwind$capture_current_context 0000000180073610     LIBCMT:gs_report.obj
 0002:0001861c       $unwind$capture_previous_context 000000018007361c     LIBCMT:gs_report.obj
 0002:00018628       $unwind$__scrt_is_nonwritable_in_current_image 0000000180073628     LIBCMT:utility.obj
 0002:00018648       $unwind$__scrt_is_nonwritable_in_current_image$filt$0 0000000180073648     LIBCMT:utility.obj
 0002:00018650       $unwind$__scrt_initialize_onexit_tables 0000000180073650     LIBCMT:utility.obj
 0002:0001865c       $unwind$__security_init_cookie 000000018007365c     LIBCMT:gs_support.obj
 0002:00018668       $unwind$__scrt_fastfail    0000000180073668     LIBCMT:utility_desktop.obj
 0002:00018678       $unwind$__isa_available_init 0000000180073678     LIBCMT:_cpu_disp_.obj
 0002:00018688       $xdatasym                  0000000180073688     LIBCMT:_guard_dispatch_.obj
 0002:00018690       $xdatasym                  0000000180073690     libvcruntime:memcpy.obj
 0002:00018694       $unwind$__telemetry_main_return_trigger 0000000180073694     libvcruntime:telemetry.obj
 0002:00018694       $unwind$__telemetry_main_invoke_trigger 0000000180073694     libvcruntime:telemetry.obj
 0002:000186ac       $unwind$?_TlgEnableCallback@__vcrt_trace_logging_provider@@YAXPEBU_GUID@@KE_K1PEAU_EVENT_FILTER_DESCRIPTOR@@PEAX@Z 00000001800736ac     libvcruntime:telemetry.obj
 0002:000186c8       $unwind$__C_specific_handler 00000001800736c8     libvcruntime:_chandler_.obj
 0002:000186e4       $unwind$_CxxThrowException 00000001800736e4     libvcruntime:throw.obj
 0002:000186f8       $xdatasym                  00000001800736f8     libvcruntime:memset.obj
 0002:000186fc       $unwind$__vcrt_EventWriteTransfer 00000001800736fc     libvcruntime:winapi_downlevel.obj
 0002:000186fc       $unwind$_invalid_parameter 00000001800736fc     libucrt:invalid_parameter.obj
 0002:00018714       $unwind$__acrt_initialize_winapi_thunks 0000000180073714     libucrt:winapi_thunks.obj
 0002:00018714       $unwind$__vcrt_initialize_winapi_thunks 0000000180073714     libvcruntime:winapi_downlevel.obj
 0002:0001871c       $unwind$__vcrt_uninitialize_winapi_thunks 000000018007371c     libvcruntime:winapi_downlevel.obj
 0002:0001871c       $unwind$__acrt_stdio_end_temporary_buffering_nolock 000000018007371c     libucrt:_sftbuf.obj
 0002:00018728       $xdatasym                  0000000180073728     libvcruntime:_jmpuwind_.obj
 0002:0001873c       $unwind$fwprintf           000000018007373c     libucrt:assert.obj
 0002:00018748       $unwind$swprintf           0000000180073748     libucrt:assert.obj
 0002:00018758       $unwind$??$common_assert_to_stderr@_W@@YAXQEB_W0I@Z 0000000180073758     libucrt:assert.obj
 0002:00018774       $unwind$??$common_assert_to_message_box@_W@@YAXQEB_W0IQEAX@Z 0000000180073774     libucrt:assert.obj
 0002:00018790       $unwind$??$common_assert_to_message_box_build_string@_W@@YAXQEA_W_KQEB_W2IQEAX@Z 0000000180073790     libucrt:assert.obj
 0002:000187b0       $unwind$_stricmp_l         00000001800737b0     libucrt:stricmp.obj
 0002:000187c0       $unwind$_query_new_handler 00000001800737c0     libucrt:new_handler.obj
 0002:000187e0       $unwind$?common_exit@@YAXHW4_crt_exit_cleanup_mode@@W4_crt_exit_return_mode@@@Z 00000001800737e0     libucrt:exit.obj
 0002:00018820       $unwind$?fin$1@?0??common_exit@@YAXHW4_crt_exit_cleanup_mode@@W4_crt_exit_return_mode@@@Z@4HA 0000000180073820     libucrt:exit.obj
 0002:00018820       $unwind$raise$fin$0        0000000180073820     libucrt:signal.obj
 0002:00018820       $unwind$?fin$0@?0???$?RV<lambda_fb3a7dec4e47f37f22dae91bb15c9095>@@AEAV<lambda_698284760c8add0bfb0756c19673e34b>@@V<lambda_dfb8eca1e75fef3034a8fb18dd509707>@@@?$__crt_seh_guarded_call@X@@QEAAX$$QEAV<lambda_fb3a7dec4e47f37f22dae91bb15c9095>@@AEAV<lambda_698284760c8add0bfb0756c19673e34b>@@$$QEAV<lambda_dfb8eca1e75fef3034a8fb18dd509707>@@@Z@4HA 0000000180073820     libucrt:per_thread_data.obj
 0002:00018820       $unwind$?fin$0@?0???$?RV<lambda_46352004c1216016012b18bd6f87e700>@@AEAV<lambda_3bd07e1a1191394380780325891bf33f>@@V<lambda_334532d3f185bcaa59b5be82d7d22bff>@@@?$__crt_seh_guarded_call@X@@QEAAX$$QEAV<lambda_46352004c1216016012b18bd6f87e700>@@AEAV<lambda_3bd07e1a1191394380780325891bf33f>@@$$QEAV<lambda_334532d3f185bcaa59b5be82d7d22bff>@@@Z@4HA 0000000180073820     libucrt:per_thread_data.obj
 0002:00018820       $unwind$?fin$0@?0???$?RV<lambda_b521505b218e5242e90febf6bfebc422>@@AEAV<lambda_6978c1fb23f02e42e1d9e99668cc68aa>@@V<lambda_314360699dd331753a4119843814e9a7>@@@?$__crt_seh_guarded_call@H@@QEAAH$$QEAV<lambda_b521505b218e5242e90febf6bfebc422>@@AEAV<lambda_6978c1fb23f02e42e1d9e99668cc68aa>@@$$QEAV<lambda_314360699dd331753a4119843814e9a7>@@@Z@4HA 0000000180073820     libucrt:commit.obj
 0002:00018820       $unwind$?fin$0@?0???$?RV<lambda_c36588078e9f5dfd39652860aa6b3aaf>@@AEAV<lambda_ec61778202f4f5fc7e7711acc23c3bca>@@V<lambda_dc9d2797ccde5d239b4a0efae8ebd7db>@@@?$__crt_seh_guarded_call@P6AXH@Z@@QEAAP6AXH@Z$$QEAV<lambda_c36588078e9f5dfd39652860aa6b3aaf>@@AEAV<lambda_ec61778202f4f5fc7e7711acc23c3bca>@@$$QEAV<lambda_dc9d2797ccde5d239b4a0efae8ebd7db>@@@Z@4HA 0000000180073820     libucrt:signal.obj
 0002:00018820       $unwind$?filt$0@?0??common_exit@@YAXHW4_crt_exit_cleanup_mode@@W4_crt_exit_return_mode@@@Z@4HA 0000000180073820     libucrt:exit.obj
 0002:00018820       $unwind$_IsNonwritableInCurrentImage$filt$0 0000000180073820     LIBCMT:pesect.obj
 0002:00018820       $unwind$?fin$0@?0???$?RV<lambda_bfedae4ebbf01fab1bb6dcc6a9e276e0>@@AEAV<lambda_2fe9b910cf3cbf4a0ab98a02ba45b3ec>@@V<lambda_237c231691f317818eb88cc1d5d642d6>@@@?$__crt_seh_guarded_call@H@@QEAAH$$QEAV<lambda_bfedae4ebbf01fab1bb6dcc6a9e276e0>@@AEAV<lambda_2fe9b910cf3cbf4a0ab98a02ba45b3ec>@@$$QEAV<lambda_237c231691f317818eb88cc1d5d642d6>@@@Z@4HA 0000000180073820     libucrt:close.obj
 0002:00018820       $unwind$?fin$0@?0???$?RV<lambda_e24bbb7b643b32fcea6fa61b31d4c984>@@AEAV<lambda_275893d493268fdec8709772e3fcec0e>@@V<lambda_9d71df4d7cf3f480f8d633942495c3b0>@@@?$__crt_seh_guarded_call@H@@QEAAH$$QEAV<lambda_e24bbb7b643b32fcea6fa61b31d4c984>@@AEAV<lambda_275893d493268fdec8709772e3fcec0e>@@$$QEAV<lambda_9d71df4d7cf3f480f8d633942495c3b0>@@@Z@4HA 0000000180073820     libucrt:onexit.obj
 0002:00018820       $unwind$__acrt_initialize_lowio$fin$0 0000000180073820     libucrt:ioinit.obj
 0002:00018820       $unwind$__acrt_update_thread_multibyte_data$fin$0 0000000180073820     libucrt:mbctype.obj
 0002:00018820       $unwind$__acrt_update_thread_locale_data$fin$0 0000000180073820     libucrt:locale_refcounting.obj
 0002:00018820       $unwind$?fin$0@?0???$common_lseek@_J@@YA_JH_JH@Z@4HA 0000000180073820     libucrt:lseek.obj
 0002:00018820       $unwind$?fin$0@?0???$?RV<lambda_72d1df2b273a38828b1ce30cbf4cdab5>@@AEAV<lambda_876a65b173b8412d3a47c70a915b0cf4>@@V<lambda_41932305e351933ebe8f8be3ed8bb5dc>@@@?$__crt_seh_guarded_call@X@@QEAAX$$QEAV<lambda_72d1df2b273a38828b1ce30cbf4cdab5>@@AEAV<lambda_876a65b173b8412d3a47c70a915b0cf4>@@$$QEAV<lambda_41932305e351933ebe8f8be3ed8bb5dc>@@@Z@4HA 0000000180073820     libucrt:per_thread_data.obj
 0002:00018820       $unwind$__acrt_lowio_ensure_fh_exists$fin$0 0000000180073820     libucrt:osfinfo.obj
 0002:00018820       $unwind$?fin$0@?0??dllmain_crt_process_detach@@YAH_N@Z@4HA 0000000180073820     LIBCMT:dll_dllmain.obj
 0002:00018820       $unwind$?fin$0@?0???$?RV<lambda_b8c45f8f788dd370798f47cfe8ac3a86>@@AEAV<lambda_4e60a939b0d047cfe11ddc22648dfba9>@@V<lambda_332c3edc96d0294ec56c57d38c1cdfd5>@@@?$__crt_seh_guarded_call@H@@QEAAH$$QEAV<lambda_b8c45f8f788dd370798f47cfe8ac3a86>@@AEAV<lambda_4e60a939b0d047cfe11ddc22648dfba9>@@$$QEAV<lambda_332c3edc96d0294ec56c57d38c1cdfd5>@@@Z@4HA 0000000180073820     libucrt:onexit.obj
 0002:00018820       $unwind$_query_new_handler$fin$0 0000000180073820     libucrt:new_handler.obj
 0002:00018820       $unwind$?fin$0@?0??dllmain_crt_process_attach@@YAHQEAUHINSTANCE__@@QEAX@Z@4HA 0000000180073820     LIBCMT:dll_dllmain.obj
 0002:00018820       $unwind$__acrt_uninitialize_locale$fin$0 0000000180073820     libucrt:wsetlocale.obj
 0002:00018820       $unwind$common_control87$filt$0 0000000180073820     libucrt:ieee.obj
 0002:00018820       $unwind$?fin$0@?0???$?RV<lambda_7b91131dde12e1c3dfc74ff76b3f2eac>@@AEAV<lambda_dd75445284c072d0bd3768540cc698fa>@@V<lambda_16bc4ecb55b4718497c16bceaea2ceaf>@@@?$__crt_seh_guarded_call@H@@QEAAH$$QEAV<lambda_7b91131dde12e1c3dfc74ff76b3f2eac>@@AEAV<lambda_dd75445284c072d0bd3768540cc698fa>@@$$QEAV<lambda_16bc4ecb55b4718497c16bceaea2ceaf>@@@Z@4HA 0000000180073820     libucrt:output.obj
 0002:00018820       $unwind$fflush$fin$0       0000000180073820     libucrt:fflush.obj
 0002:00018820       $unwind$_fcloseall$fin$0   0000000180073820     libucrt:closeall.obj
 0002:00018820       $unwind$_ctrlfp$filt$0     0000000180073820     libucrt:fpctrl.obj
 0002:00018820       $unwind$fclose$fin$0       0000000180073820     libucrt:fclose.obj
 0002:00018820       $unwind$_write$fin$0       0000000180073820     libucrt:write.obj
 0002:00018820       $unwind$?fin$0@?0???$?RV<lambda_5e887d1dcbef67a5eb4283622ba103bf>@@AEAV<lambda_4466841279450cc726390878d4a41900>@@V<lambda_341c25c0346d94847f1f3c463c57e077>@@@?$__crt_seh_guarded_call@X@@QEAAX$$QEAV<lambda_5e887d1dcbef67a5eb4283622ba103bf>@@AEAV<lambda_4466841279450cc726390878d4a41900>@@$$QEAV<lambda_341c25c0346d94847f1f3c463c57e077>@@@Z@4HA 0000000180073820     libucrt:per_thread_data.obj
 0002:00018820       $unwind$common_flush_all$fin$1 0000000180073820     libucrt:fflush.obj
 0002:00018820       $unwind$?fin$0@?0???$?RV<lambda_99476a1ad63dd22509b5d3e65b0ffc95>@@AEAV<lambda_ad1ced32f4ac17aa236e5ef05d6b3b7c>@@V<lambda_f7424dd8d45958661754dc4f2697e9c3>@@@?$__crt_seh_guarded_call@X@@QEAAX$$QEAV<lambda_99476a1ad63dd22509b5d3e65b0ffc95>@@AEAV<lambda_ad1ced32f4ac17aa236e5ef05d6b3b7c>@@$$QEAV<lambda_f7424dd8d45958661754dc4f2697e9c3>@@@Z@4HA 0000000180073820     libucrt:mbctype.obj
 0002:00018820       $unwind$common_flush_all$fin$0 0000000180073820     libucrt:fflush.obj
 0002:00018820       $unwind$?fin$0@?0???$?RV<lambda_7a5ef57ff966f610505f1d28a3d40618>@@AEAV<lambda_b721fa326cdb32351d23dfa67958c160>@@V<lambda_5e0fb27672408a07956fe59e48ccb2aa>@@@?$__crt_seh_guarded_call@H@@QEAAH$$QEAV<lambda_7a5ef57ff966f610505f1d28a3d40618>@@AEAV<lambda_b721fa326cdb32351d23dfa67958c160>@@$$QEAV<lambda_5e0fb27672408a07956fe59e48ccb2aa>@@@Z@4HA 0000000180073820     libucrt:setvbuf.obj
 0002:00018828       $unwind$??$create_environment@D@@YAQEAPEADQEAD@Z 0000000180073828     libucrt:environment_initialization.obj
 0002:00018840       $unwind$_register_onexit_function 0000000180073840     libucrt:onexit.obj
 0002:00018848       $unwind$_execute_onexit_table 0000000180073848     libucrt:onexit.obj
 0002:00018850       $unwind$??R<lambda_4e60a939b0d047cfe11ddc22648dfba9>@@QEBAHXZ 0000000180073850     libucrt:onexit.obj
 0002:0001886c       $unwind$??$?RV<lambda_b8c45f8f788dd370798f47cfe8ac3a86>@@AEAV<lambda_4e60a939b0d047cfe11ddc22648dfba9>@@V<lambda_332c3edc96d0294ec56c57d38c1cdfd5>@@@?$__crt_seh_guarded_call@H@@QEAAH$$QEAV<lambda_b8c45f8f788dd370798f47cfe8ac3a86>@@AEAV<lambda_4e60a939b0d047cfe11ddc22648dfba9>@@$$QEAV<lambda_332c3edc96d0294ec56c57d38c1cdfd5>@@@Z 000000018007386c     libucrt:onexit.obj
 0002:00018890       $unwind$??$?RV<lambda_e24bbb7b643b32fcea6fa61b31d4c984>@@AEAV<lambda_275893d493268fdec8709772e3fcec0e>@@V<lambda_9d71df4d7cf3f480f8d633942495c3b0>@@@?$__crt_seh_guarded_call@H@@QEAAH$$QEAV<lambda_e24bbb7b643b32fcea6fa61b31d4c984>@@AEAV<lambda_275893d493268fdec8709772e3fcec0e>@@$$QEAV<lambda_9d71df4d7cf3f480f8d633942495c3b0>@@@Z 0000000180073890     libucrt:onexit.obj
 0002:000188c0       $unwind$terminate          00000001800738c0     libucrt:terminate.obj
 0002:000188e0       $unwind$__stdio_common_vfwprintf 00000001800738e0     libucrt:output.obj
 0002:000188e8       $unwind$__stdio_common_vswprintf 00000001800738e8     libucrt:output.obj
 0002:0001890c       $unwind$?write_string@?$stream_output_adapter@_W@__crt_stdio_output@@QEBAXQEB_WHQEAH1@Z 000000018007390c     libucrt:output.obj
 0002:00018924       $unwind$?process@?$output_processor@_WV?$stream_output_adapter@_W@__crt_stdio_output@@V?$standard_base@_WV?$stream_output_adapter@_W@__crt_stdio_output@@@2@@__crt_stdio_output@@QEAAHXZ 0000000180073924     libucrt:output.obj
 0002:0001893c       $unwind$?state_case_type@?$output_processor@_WV?$string_output_adapter@_W@__crt_stdio_output@@V?$standard_base@_WV?$string_output_adapter@_W@__crt_stdio_output@@@2@@__crt_stdio_output@@AEAA_NXZ 000000018007393c     libucrt:output.obj
 0002:0001893c       $unwind$?state_case_type@?$output_processor@_WV?$stream_output_adapter@_W@__crt_stdio_output@@V?$standard_base@_WV?$stream_output_adapter@_W@__crt_stdio_output@@@2@@__crt_stdio_output@@AEAA_NXZ 000000018007393c     libucrt:output.obj
 0002:00018960       $unwind$?write_stored_string_tchar@?$output_processor@_WV?$stream_output_adapter@_W@__crt_stdio_output@@V?$standard_base@_WV?$stream_output_adapter@_W@__crt_stdio_output@@@2@@__crt_stdio_output@@AEAA_N_W@Z 0000000180073960     libucrt:output.obj
 0002:00018974       $unwind$??R<lambda_dd75445284c072d0bd3768540cc698fa>@@QEBAHXZ 0000000180073974     libucrt:output.obj
 0002:00018990       $unwind$?parse_int_from_format_string@?$output_processor@_WV?$stream_output_adapter@_W@__crt_stdio_output@@V?$standard_base@_WV?$stream_output_adapter@_W@__crt_stdio_output@@@2@@__crt_stdio_output@@AEAA_NQEAH@Z 0000000180073990     libucrt:output.obj
 0002:00018990       $unwind$?parse_int_from_format_string@?$output_processor@_WV?$string_output_adapter@_W@__crt_stdio_output@@V?$standard_base@_WV?$string_output_adapter@_W@__crt_stdio_output@@@2@@__crt_stdio_output@@AEAA_NQEAH@Z 0000000180073990     libucrt:output.obj
 0002:000189a4       $unwind$?type_case_a@?$output_processor@_WV?$string_output_adapter@_W@__crt_stdio_output@@V?$standard_base@_WV?$string_output_adapter@_W@__crt_stdio_output@@@2@@__crt_stdio_output@@AEAA_NXZ 00000001800739a4     libucrt:output.obj
 0002:000189a4       $unwind$?type_case_a@?$output_processor@_WV?$stream_output_adapter@_W@__crt_stdio_output@@V?$standard_base@_WV?$stream_output_adapter@_W@__crt_stdio_output@@@2@@__crt_stdio_output@@AEAA_NXZ 00000001800739a4     libucrt:output.obj
 0002:000189b4       $unwind$?write_stored_string_tchar@?$output_processor@_WV?$string_output_adapter@_W@__crt_stdio_output@@V?$standard_base@_WV?$string_output_adapter@_W@__crt_stdio_output@@@2@@__crt_stdio_output@@AEAA_N_W@Z 00000001800739b4     libucrt:output.obj
 0002:000189c8       $unwind$??$write_multiple_characters@V?$stream_output_adapter@_W@__crt_stdio_output@@D@__crt_stdio_output@@YAXAEBV?$stream_output_adapter@_W@0@DHQEAH@Z 00000001800739c8     libucrt:output.obj
 0002:000189e0       $unwind$??$write_multiple_characters@V?$string_output_adapter@_W@__crt_stdio_output@@D@__crt_stdio_output@@YAXAEBV?$string_output_adapter@_W@0@DHQEAH@Z 00000001800739e0     libucrt:output.obj
 0002:000189ec       $unwind$??$?RV<lambda_7b91131dde12e1c3dfc74ff76b3f2eac>@@AEAV<lambda_dd75445284c072d0bd3768540cc698fa>@@V<lambda_16bc4ecb55b4718497c16bceaea2ceaf>@@@?$__crt_seh_guarded_call@H@@QEAAH$$QEAV<lambda_7b91131dde12e1c3dfc74ff76b3f2eac>@@AEAV<lambda_dd75445284c072d0bd3768540cc698fa>@@$$QEAV<lambda_16bc4ecb55b4718497c16bceaea2ceaf>@@@Z 00000001800739ec     libucrt:output.obj
 0002:00018a10       $unwind$??$parse_integer@KV?$c_string_character_source@_W@__crt_strtox@@@__crt_strtox@@YAKQEAU__crt_locale_pointers@@V?$c_string_character_source@_W@0@H_N@Z 0000000180073a10     libucrt:atox.obj
 0002:00018a2c       $unwind$__acrt_call_reportfault 0000000180073a2c     libucrt:invalid_parameter.obj
 0002:00018a4c       $unwind$_mbtowc_l          0000000180073a4c     libucrt:mbtowc.obj
 0002:00018a4c       $unwind$__acrt_LCMapStringEx 0000000180073a4c     libucrt:winapi_thunks.obj
 0002:00018a4c       $unwind$__acrt_show_wide_message_box 0000000180073a4c     libucrt:crtmbox.obj
 0002:00018a64       $unwind$fflush             0000000180073a64     libucrt:fflush.obj
 0002:00018a88       $unwind$common_flush_all   0000000180073a88     libucrt:fflush.obj
 0002:00018ac4       $unwind$setvbuf            0000000180073ac4     libucrt:setvbuf.obj
 0002:00018acc       $unwind$??$?RV<lambda_7a5ef57ff966f610505f1d28a3d40618>@@AEAV<lambda_b721fa326cdb32351d23dfa67958c160>@@V<lambda_5e0fb27672408a07956fe59e48ccb2aa>@@@?$__crt_seh_guarded_call@H@@QEAAH$$QEAV<lambda_7a5ef57ff966f610505f1d28a3d40618>@@AEAV<lambda_b721fa326cdb32351d23dfa67958c160>@@$$QEAV<lambda_5e0fb27672408a07956fe59e48ccb2aa>@@@Z 0000000180073acc     libucrt:setvbuf.obj
 0002:00018af0       $unwind$__acrt_get_sigabrt_handler 0000000180073af0     libucrt:signal.obj
 0002:00018af8       $unwind$raise              0000000180073af8     libucrt:signal.obj
 0002:00018b24       $unwind$??$?RV<lambda_c36588078e9f5dfd39652860aa6b3aaf>@@AEAV<lambda_ec61778202f4f5fc7e7711acc23c3bca>@@V<lambda_dc9d2797ccde5d239b4a0efae8ebd7db>@@@?$__crt_seh_guarded_call@P6AXH@Z@@QEAAP6AXH@Z$$QEAV<lambda_c36588078e9f5dfd39652860aa6b3aaf>@@AEAV<lambda_ec61778202f4f5fc7e7711acc23c3bca>@@$$QEAV<lambda_dc9d2797ccde5d239b4a0efae8ebd7db>@@@Z 0000000180073b24     libucrt:signal.obj
 0002:00018b48       $unwind$_tolower_l         0000000180073b48     libucrt:tolower_toupper.obj
 0002:00018b58       $unwind$?construct_ptd_array@@YAXQEAU__acrt_ptd@@@Z 0000000180073b58     libucrt:per_thread_data.obj
 0002:00018b60       $unwind$?destroy_ptd_array@@YAXQEAU__acrt_ptd@@@Z 0000000180073b60     libucrt:per_thread_data.obj
 0002:00018b68       $unwind$??$?RV<lambda_72d1df2b273a38828b1ce30cbf4cdab5>@@AEAV<lambda_876a65b173b8412d3a47c70a915b0cf4>@@V<lambda_41932305e351933ebe8f8be3ed8bb5dc>@@@?$__crt_seh_guarded_call@X@@QEAAX$$QEAV<lambda_72d1df2b273a38828b1ce30cbf4cdab5>@@AEAV<lambda_876a65b173b8412d3a47c70a915b0cf4>@@$$QEAV<lambda_41932305e351933ebe8f8be3ed8bb5dc>@@@Z 0000000180073b68     libucrt:per_thread_data.obj
 0002:00018b8c       $unwind$??$?RV<lambda_5e887d1dcbef67a5eb4283622ba103bf>@@AEAV<lambda_4466841279450cc726390878d4a41900>@@V<lambda_341c25c0346d94847f1f3c463c57e077>@@@?$__crt_seh_guarded_call@X@@QEAAX$$QEAV<lambda_5e887d1dcbef67a5eb4283622ba103bf>@@AEAV<lambda_4466841279450cc726390878d4a41900>@@$$QEAV<lambda_341c25c0346d94847f1f3c463c57e077>@@@Z 0000000180073b8c     libucrt:per_thread_data.obj
 0002:00018bb0       $unwind$??$?RV<lambda_46352004c1216016012b18bd6f87e700>@@AEAV<lambda_3bd07e1a1191394380780325891bf33f>@@V<lambda_334532d3f185bcaa59b5be82d7d22bff>@@@?$__crt_seh_guarded_call@X@@QEAAX$$QEAV<lambda_46352004c1216016012b18bd6f87e700>@@AEAV<lambda_3bd07e1a1191394380780325891bf33f>@@$$QEAV<lambda_334532d3f185bcaa59b5be82d7d22bff>@@@Z 0000000180073bb0     libucrt:per_thread_data.obj
 0002:00018bd4       $unwind$??$?RV<lambda_fb3a7dec4e47f37f22dae91bb15c9095>@@AEAV<lambda_698284760c8add0bfb0756c19673e34b>@@V<lambda_dfb8eca1e75fef3034a8fb18dd509707>@@@?$__crt_seh_guarded_call@X@@QEAAX$$QEAV<lambda_fb3a7dec4e47f37f22dae91bb15c9095>@@AEAV<lambda_698284760c8add0bfb0756c19673e34b>@@$$QEAV<lambda_dfb8eca1e75fef3034a8fb18dd509707>@@@Z 0000000180073bd4     libucrt:per_thread_data.obj
 0002:00018bf8       $unwind$__acrt_uninitialize_locale 0000000180073bf8     libucrt:wsetlocale.obj
 0002:00018c18       $unwind$_initterm          0000000180073c18     libucrt:initterm.obj
 0002:00018c18       $unwind$__acrt_initialize_stdio 0000000180073c18     libucrt:_file.obj
 0002:00018c18       $unwind$__vcrt_EventRegister 0000000180073c18     libvcruntime:winapi_downlevel.obj
 0002:00018c18       $unwind$__acrt_MessageBoxW 0000000180073c18     libucrt:winapi_thunks.obj
 0002:00018c18       $unwind$__vcrt_EventSetInformation 0000000180073c18     libvcruntime:winapi_downlevel.obj
 0002:00018c18       $unwind$?process@?$output_processor@_WV?$string_output_adapter@_W@__crt_stdio_output@@V?$standard_base@_WV?$string_output_adapter@_W@__crt_stdio_output@@@2@@__crt_stdio_output@@QEAAHXZ 0000000180073c18     libucrt:output.obj
 0002:00018c30       $unwind$__acrt_is_interactive 0000000180073c30     libucrt:winapi_thunks.obj
 0002:00018c44       $unwind$__acrt_update_thread_multibyte_data 0000000180073c44     libucrt:mbctype.obj
 0002:00018c68       $unwind$_setmbcp_nolock    0000000180073c68     libucrt:mbctype.obj
 0002:00018c88       $unwind$?getSystemCP@@YAHH@Z 0000000180073c88     libucrt:mbctype.obj
 0002:00018c88       $unwind$isdigit            0000000180073c88     libucrt:_ctype.obj
 0002:00018c88       $unwind$?_TlgWrite@__vcrt_trace_logging_provider@@YAJPEBU_TlgProvider_t@1@PEFBXPEBU_GUID@@2IPEAU_EVENT_DATA_DESCRIPTOR@@@Z 0000000180073c88     libvcruntime:telemetry.obj
 0002:00018c88       $unwind$_isleadbyte_l      0000000180073c88     libucrt:_wctype.obj
 0002:00018c90       $unwind$?setSBUpLow@@YAXPEAU__crt_multibyte_data@@@Z 0000000180073c90     libucrt:mbctype.obj
 0002:00018cac       $unwind$?setmbcp_internal@@YAHH_N@Z 0000000180073cac     libucrt:mbctype.obj
 0002:00018cbc       $unwind$??$?RV<lambda_99476a1ad63dd22509b5d3e65b0ffc95>@@AEAV<lambda_ad1ced32f4ac17aa236e5ef05d6b3b7c>@@V<lambda_f7424dd8d45958661754dc4f2697e9c3>@@@?$__crt_seh_guarded_call@X@@QEAAX$$QEAV<lambda_99476a1ad63dd22509b5d3e65b0ffc95>@@AEAV<lambda_ad1ced32f4ac17aa236e5ef05d6b3b7c>@@$$QEAV<lambda_f7424dd8d45958661754dc4f2697e9c3>@@@Z 0000000180073cbc     libucrt:mbctype.obj
 0002:00018ce0       $unwind$?fp_format_f_internal@@YAHQEAD_KHQEAU_strflt@@_NQEAU__crt_locale_pointers@@@Z 0000000180073ce0     libucrt:cvt.obj
 0002:00018ce0       $unwind$__dcrt_get_narrow_environment_from_os 0000000180073ce0     libucrt:get_environment_from_os.obj
 0002:00018cf8       $unwind$__acrt_initialize_lowio 0000000180073cf8     libucrt:ioinit.obj
 0002:00018d18       $unwind$?initialize_inherited_file_handles_nolock@@YAXXZ 0000000180073d18     libucrt:ioinit.obj
 0002:00018d34       $unwind$??$common_xtox_s@K_W@@YAHKQEA_W_KI_N@Z 0000000180073d34     libucrt:xtoa.obj
 0002:00018d34       $unwind$wcstol             0000000180073d34     libucrt:strtox.obj
 0002:00018d3c       $unwind$_wctomb_s_l        0000000180073d3c     libucrt:wctomb.obj
 0002:00018d4c       $unwind$wcsnlen            0000000180073d4c     libucrt:strnlen.obj
 0002:00018d54       $unwind$?fp_format_nan_or_infinity@@YAHW4__acrt_fp_class@@_NPEAD_K1@Z 0000000180073d54     libucrt:cvt.obj
 0002:00018d68       $unwind$?fp_format_e_internal@@YAHQEAD_KH_NIQEAU_strflt@@2QEAU__crt_locale_pointers@@@Z 0000000180073d68     libucrt:cvt.obj
 0002:00018d80       $unwind$?fp_format_e@@YAHQEBNQEAD_K12H_NIQEAU__crt_locale_pointers@@@Z 0000000180073d80     libucrt:cvt.obj
 0002:00018d94       $unwind$?fp_format_a@@YAHQEBNPEAD_KQEAD2H_NIQEAU__crt_locale_pointers@@@Z 0000000180073d94     libucrt:cvt.obj
 0002:00018db0       $unwind$?fp_format_g@@YAHQEBNQEAD_K12H_NIQEAU__crt_locale_pointers@@@Z 0000000180073db0     libucrt:cvt.obj
 0002:00018dc4       $unwind$_fputwc_nolock     0000000180073dc4     libucrt:fputwc.obj
 0002:00018de0       $unwind$__acrt_is_packaged_app 0000000180073de0     libucrt:winapi_thunks.obj
 0002:00018de0       $unwind$iswctype           0000000180073de0     libucrt:iswctype.obj
 0002:00018dec       $unwind$_isctype_l         0000000180073dec     libucrt:isctype.obj
 0002:00018e08       $unwind$_fcloseall         0000000180073e08     libucrt:closeall.obj
 0002:00018e2c       $unwind$_commit            0000000180073e2c     libucrt:commit.obj
 0002:00018e2c       $unwind$_close             0000000180073e2c     libucrt:close.obj
 0002:00018e34       $unwind$??$?RV<lambda_b521505b218e5242e90febf6bfebc422>@@AEAV<lambda_6978c1fb23f02e42e1d9e99668cc68aa>@@V<lambda_314360699dd331753a4119843814e9a7>@@@?$__crt_seh_guarded_call@H@@QEAAH$$QEAV<lambda_b521505b218e5242e90febf6bfebc422>@@AEAV<lambda_6978c1fb23f02e42e1d9e99668cc68aa>@@$$QEAV<lambda_314360699dd331753a4119843814e9a7>@@@Z 0000000180073e34     libucrt:commit.obj
 0002:00018e58       $unwind$_write             0000000180073e58     libucrt:write.obj
 0002:00018e88       $unwind$_write_nolock      0000000180073e88     libucrt:write.obj
 0002:00018ea0       $unwind$?write_double_translated_ansi_nolock@@YA?AUwrite_result@?A0x9c548279@@HQEBDI@Z 0000000180073ea0     libucrt:write.obj
 0002:00018ec0       $unwind$?write_text_ansi_nolock@@YA?AUwrite_result@?A0x9c548279@@HQEBDI@Z 0000000180073ec0     libucrt:write.obj
 0002:00018ec0       $unwind$?write_text_utf16le_nolock@@YA?AUwrite_result@?A0x9c548279@@HQEBDI@Z 0000000180073ec0     libucrt:write.obj
 0002:00018ee0       $unwind$?write_text_utf8_nolock@@YA?AUwrite_result@?A0x9c548279@@HQEBDI@Z 0000000180073ee0     libucrt:write.obj
 0002:00018f04       $unwind$__acrt_LCMapStringA 0000000180073f04     libucrt:lcmapstringa.obj
 0002:00018f14       $unwind$__acrt_update_thread_locale_data 0000000180073f14     libucrt:locale_refcounting.obj
 0002:00018f38       $unwind$__acrt_locale_free_monetary 0000000180073f38     libucrt:initmon.obj
 0002:00018f40       $unwind$?destroy_fls@@YAXPEAX@Z 0000000180073f40     libucrt:per_thread_data.obj
 0002:00018f40       $unwind$__acrt_locale_free_lc_time_if_unreferenced 0000000180073f40     libucrt:locale_refcounting.obj
 0002:00018f40       $unwind$_free_base         0000000180073f40     libucrt:free_base.obj
 0002:00018f40       $unwind$__acrt_locale_free_numeric 0000000180073f40     libucrt:initnum.obj
 0002:00018f48       $unwind$__acrt_locale_free_time 0000000180073f48     libucrt:inittime.obj
 0002:00018f58       $unwind$__acrt_GetStringTypeA 0000000180073f58     libucrt:getstringtypea.obj
 0002:00018f80       $unwind$?GetTableIndexFromLocaleName@@YAHPEB_W@Z 0000000180073f80     libucrt:lcidtoname_downlevel.obj
 0002:00018f98       $unwind$__acrt_lowio_destroy_handle_array 0000000180073f98     libucrt:osfinfo.obj
 0002:00018fa8       $unwind$__acrt_lowio_ensure_fh_exists 0000000180073fa8     libucrt:osfinfo.obj
 0002:00018fd4       $unwind$__acrt_fltout      0000000180073fd4     libucrt:cfout.obj
 0002:00018ff4       $unwind$?divide@__crt_strtox@@YA_KAEAUbig_integer@1@AEBU21@@Z 0000000180073ff4     libucrt:cfout.obj
 0002:00019014       $chain$5$?divide@__crt_strtox@@YA_KAEAUbig_integer@1@AEBU21@@Z 0000000180074014     libucrt:cfout.obj
 0002:00019028       $chain$6$?divide@__crt_strtox@@YA_KAEAUbig_integer@1@AEBU21@@Z 0000000180074028     libucrt:cfout.obj
 0002:00019038       $unwind$??$write_buffer_nolock@D@@YA_NDV__crt_stdio_stream@@@Z 0000000180074038     libucrt:_flsbuf.obj
 0002:00019048       $unwind$??$write_buffer_nolock@_W@@YA_N_WV__crt_stdio_stream@@@Z 0000000180074048     libucrt:_flsbuf.obj
 0002:00019058       $unwind$fclose             0000000180074058     libucrt:fclose.obj
 0002:0001907c       $unwind$??$common_lseek@_J@@YA_JH_JH@Z 000000018007407c     libucrt:lseek.obj
 0002:000190b0       $xdatasym                  00000001800740b0     libucrt:log10.obj
 0002:000190bc       $unwind$??$?RV<lambda_bfedae4ebbf01fab1bb6dcc6a9e276e0>@@AEAV<lambda_2fe9b910cf3cbf4a0ab98a02ba45b3ec>@@V<lambda_237c231691f317818eb88cc1d5d642d6>@@@?$__crt_seh_guarded_call@H@@QEAAH$$QEAV<lambda_bfedae4ebbf01fab1bb6dcc6a9e276e0>@@AEAV<lambda_2fe9b910cf3cbf4a0ab98a02ba45b3ec>@@$$QEAV<lambda_237c231691f317818eb88cc1d5d642d6>@@@Z 00000001800740bc     libucrt:close.obj
 0002:000190e0       $unwind$common_control87   00000001800740e0     libucrt:ieee.obj
 0002:00019110       $unwind$_call_matherr      0000000180074110     libucrt:libm_error.obj
 0002:00019118       $unwind$_handle_error      0000000180074118     libucrt:libm_error.obj
 0002:00019138       $unwind$__acrt_initialize_fma3 0000000180074138     libucrt:fma3_available.obj
 0002:00019140       $unwind$_exp_special       0000000180074140     libucrt:exp_special.obj
 0002:00019140       $unwind$_log_special_common 0000000180074140     libucrt:log_special.obj
 0002:0001914c       $unwind$_invalid_parameter_noinfo 000000018007414c     libucrt:invalid_parameter.obj
 0002:0001914c       $unwind$wctomb_s           000000018007414c     libucrt:wctomb.obj
 0002:0001914c       $unwind$_itow_s            000000018007414c     libucrt:xtoa.obj
 0002:0001914c       $unwind$_log_special       000000018007414c     libucrt:log_special.obj
 0002:0001914c       $unwind$_log10_special     000000018007414c     libucrt:log_special.obj
 0002:00019158       $xdatasym                  0000000180074158     libucrt:fpsr.obj
 0002:00019160       $unwind$_raise_exc_ex      0000000180074160     libucrt:fpexcept.obj
 0002:00019174       $unwind$_ctrlfp            0000000180074174     libucrt:fpctrl.obj
 0002:0001919c       $unwind$?DloadMakePermanentImageCommit@@YAXPEAX_K@Z 000000018007419c     DelayImp:delayhlp.obj
 0002:000191a8       $unwind$?DloadProtectSection@@YAXKPEAK@Z 00000001800741a8     DelayImp:delayhlp.obj
 0002:000191b8       $unwind$__delayLoadHelper2 00000001800741b8     DelayImp:delayhlp.obj
 0002:000191d0       $unwind$__GSHandlerCheckCommon 00000001800741d0     LIBCMT:_gshandler_.obj
 0002:000191d8       $unwind$_IsNonwritableInCurrentImage 00000001800741d8     LIBCMT:pesect.obj
 0002:00019200       $xdatasym                  0000000180074200     LIBCMT:_chkstk_.obj
 0002:00019208       $xdatasym                  0000000180074208     libvcruntime:memcmp.obj
 0002:0001920c       $unwind$atan2              000000018007420c     libucrt:atan2.obj
 0002:00019238       $xdatasym                  0000000180074238     libucrt:cos.obj
 0002:00019240       $xdatasym                  0000000180074240     libucrt:exp.obj
 0002:00019248       $xdatasym                  0000000180074248     libucrt:log.obj
 0002:00019258       $xdatasym                  0000000180074258     libucrt:pow.obj
 0002:00019268       $unwind$sqrt               0000000180074268     libucrt:sqrt.obj
 0002:00019270       $xdatasym                  0000000180074270     libucrt:remainder_piby2_forasm.obj
 0002:00019280       $xdatasym                  0000000180074280     libucrt:remainder_piby2_forfma3.obj
 0002:0001928c       $unwind$_pow_special       000000018007428c     libucrt:pow_special.obj
 0002:0001a270       .edata                     0000000180075270     node-opus.exp
 0002:0001a298       rgpv                       0000000180075298     node-opus.exp
 0002:0001a32c       rgszName                   000000018007532c     node-opus.exp
 0002:0001a3c0       rgwOrd                     00000001800753c0     node-opus.exp
 0002:0001a40a       szName                     000000018007540a     node-opus.exp
 0002:0001a419       $N00001                    0000000180075419     node-opus.exp
 0002:0001a42e       $N00002                    000000018007542e     node-opus.exp
 0002:0001a43a       $N00003                    000000018007543a     node-opus.exp
 0002:0001a44c       $N00004                    000000018007544c     node-opus.exp
 0002:0001a460       $N00005                    0000000180075460     node-opus.exp
 0002:0001a471       $N00006                    0000000180075471     node-opus.exp
 0002:0001a486       $N00007                    0000000180075486     node-opus.exp
 0002:0001a4a2       $N00008                    00000001800754a2     node-opus.exp
 0002:0001a4b8       $N00009                    00000001800754b8     node-opus.exp
 0002:0001a4ca       $N00010                    00000001800754ca     node-opus.exp
 0002:0001a4d6       $N00011                    00000001800754d6     node-opus.exp
 0002:0001a4e8       $N00012                    00000001800754e8     node-opus.exp
 0002:0001a4fc       $N00013                    00000001800754fc     node-opus.exp
 0002:0001a50d       $N00014                    000000018007550d     node-opus.exp
 0002:0001a522       $N00015                    0000000180075522     node-opus.exp
 0002:0001a538       $N00016                    0000000180075538     node-opus.exp
 0002:0001a54a       $N00017                    000000018007554a     node-opus.exp
 0002:0001a562       $N00018                    0000000180075562     node-opus.exp
 0002:0001a57e       $N00019                    000000018007557e     node-opus.exp
 0002:0001a59c       $N00020                    000000018007559c     node-opus.exp
 0002:0001a5b6       $N00021                    00000001800755b6     node-opus.exp
 0002:0001a5d2       $N00022                    00000001800755d2     node-opus.exp
 0002:0001a5ec       $N00023                    00000001800755ec     node-opus.exp
 0002:0001a607       $N00024                    0000000180075607     node-opus.exp
 0002:0001a629       $N00025                    0000000180075629     node-opus.exp
 0002:0001a639       $N00026                    0000000180075639     node-opus.exp
 0002:0001a64b       $N00027                    000000018007564b     node-opus.exp
 0002:0001a65d       $N00028                    000000018007565d     node-opus.exp
 0002:0001a670       $N00029                    0000000180075670     node-opus.exp
 0002:0001a686       $N00030                    0000000180075686     node-opus.exp
 0002:0001a69f       $N00031                    000000018007569f     node-opus.exp
 0002:0001a6b9       $N00032                    00000001800756b9     node-opus.exp
 0002:0001a6d9       $N00033                    00000001800756d9     node-opus.exp
 0002:0001a6f4       $N00034                    00000001800756f4     node-opus.exp
 0002:0001a70b       $N00035                    000000018007570b     node-opus.exp
 0002:0001a721       $N00036                    0000000180075721     node-opus.exp
 0002:0001a73d       $N00037                    000000018007573d     node-opus.exp
 0002:0001a9f4       .idata$6                   00000001800759f4     kernel32:KERNEL32.dll
 0002:0001af0c       .idata$6                   0000000180075f0c     advapi32:ADVAPI32.dll
 0003:00000030       ?_Tlg_Microsoft_CRTProviderProv@@3U_TlgProvider_t@__vcrt_trace_logging_provider@@A 0000000180076030     libvcruntime:telemetry.obj
 0003:00000080       ?__vcrt_flsindex@@3KA      0000000180076080     libvcruntime:per_thread_data.obj
 0003:00000088       errno_no_memory            0000000180076088     libucrt:errno.obj
 0003:0000008c       doserrno_no_memory         000000018007608c     libucrt:errno.obj
 0003:00000198       __acrt_flsindex            0000000180076198     libucrt:per_thread_data.obj
 0003:00000540       __rgctypeflag              0000000180076540     libucrt:mbctype.obj
 0003:00000550       __rgcode_page_info         0000000180076550     libucrt:mbctype.obj
 0003:00000948       ?dazSupported@?1??common_control87@@9@9 0000000180076948     libucrt:ieee.obj
 0003:00000950       ?dazSupported@?1??_ctrlfp@@9@9 0000000180076950     libucrt:fpctrl.obj
 0003:00000970       _module                    0000000180076970     node-opus.obj
 0003:00000bd8       ?__proc_attached@@3HA      0000000180076bd8     LIBCMT:dll_dllmain.obj
 0003:00000be0       GS_ExceptionRecord         0000000180076be0     LIBCMT:gs_report.obj
 0003:00000c80       GS_ContextRecord           0000000180076c80     LIBCMT:gs_report.obj
 0003:00001160       ?module_local_atexit_table@@3U_onexit_table_t@@A 0000000180077160     LIBCMT:utility.obj
 0003:00001178       ?module_local_at_quick_exit_table@@3U_onexit_table_t@@A 0000000180077178     LIBCMT:utility.obj
 0003:00001190       ?is_initialized_as_dll@@3_NA 0000000180077190     LIBCMT:utility.obj
 0003:000011d0       ?module_handles@@3PAPEAUHINSTANCE__@@A 00000001800771d0     libvcruntime:winapi_downlevel.obj
 0003:000011f0       ?encoded_function_pointers@@3PAPEAXA 00000001800771f0     libvcruntime:winapi_downlevel.obj
 0003:00001240       ?__vcrt_startup_thread_ptd@@3U__vcrt_ptd@@A 0000000180077240     libvcruntime:per_thread_data.obj
 0003:000012b8       __vcrt_lock_table          00000001800772b8     libvcruntime:locks.obj
 0003:000012e0       __vcrt_locks_initialized   00000001800772e0     libvcruntime:locks.obj
 0003:00001338       ?heap@@3V_HeapManager@@A   0000000180077338     libvcruntime:undname.obj
 0003:00001360       __acrt_new_handler         0000000180077360     libucrt:new_handler.obj
 0003:00001368       c_termination_complete     0000000180077368     libucrt:exit.obj
 0003:00001370       thread_local_exit_callback_func 0000000180077370     libucrt:exit.obj
 0003:00001378       ?c_exit_complete@?5??common_exit@@YAXHW4_crt_exit_cleanup_mode@@W4_crt_exit_return_mode@@@Z@4_NA 0000000180077378     libucrt:exit.obj
 0003:000013d0       __acrt_invalid_parameter_handler 00000001800773d0     libucrt:invalid_parameter.obj
 0003:000013d8       __acrt_app_type            00000001800773d8     libucrt:report_runtime_error.obj
 0003:000013dc       __acrt_error_mode          00000001800773dc     libucrt:set_error_mode.obj
 0003:000013f8       ctrlc_action               00000001800773f8     libucrt:signal.obj
 0003:00001400       ctrlbreak_action           0000000180077400     libucrt:signal.obj
 0003:00001408       abort_action               0000000180077408     libucrt:signal.obj
 0003:00001410       term_action                0000000180077410     libucrt:signal.obj
 0003:00001430       __acrt_lock_table          0000000180077430     libucrt:locks.obj
 0003:00001638       __acrt_locks_initialized   0000000180077638     libucrt:locks.obj
 0003:00001640       module_handles             0000000180077640     libucrt:winapi_thunks.obj
 0003:000016e0       encoded_function_pointers  00000001800776e0     libucrt:winapi_thunks.obj
 0003:000017e0       ?state_cache@?1??__acrt_is_packaged_app@@9@4JA 00000001800777e0     libucrt:winapi_thunks.obj
 0003:000017fc       fSystemSet                 00000001800777fc     libucrt:mbctype.obj
 0003:00001808       ?initialized@?1??__acrt_initialize_multibyte@@9@4_NA 0000000180077808     libucrt:mbctype.obj
 0003:00001c48       user_matherr               0000000180077c48     libucrt:matherr.obj
 0003:00001c60       __acrt_global_new_mode     0000000180077c60     libucrt:new_mode.obj
 0003:00001c68       enable_percent_n           0000000180077c68     libucrt:printf_count_output.obj
 0004:00000000       $pdata$?TraceLoggingRegister@__vcrt_trace_logging_provider@@YAJPEBU_TlgProvider_t@1@PEBU_GUID@@P6AX1KE_K2PEAU_EVENT_FILTER_DESCRIPTOR@@PEAX@Z4@Z 0000000180078000     libvcruntime:telemetry.obj
 0004:0000000c       $pdata$?_TlgEnableCallback@__vcrt_trace_logging_provider@@YAXPEBU_GUID@@KE_K1PEAU_EVENT_FILTER_DESCRIPTOR@@PEAX@Z 000000018007800c     libvcruntime:telemetry.obj
 0004:00000018       $pdata$?_TlgWrite@__vcrt_trace_logging_provider@@YAJPEBU_TlgProvider_t@1@PEFBXPEBU_GUID@@2IPEAU_EVENT_DATA_DESCRIPTOR@@@Z 0000000180078018     libvcruntime:telemetry.obj
 0004:00000024       $pdata$??1ObjectWrap@node@@UEAA@XZ 0000000180078024     node-opus.obj
 0004:00000030       $pdata$?Wrap@ObjectWrap@node@@IEAAXV?$Local@VObject@v8@@@v8@@@Z 0000000180078030     node-opus.obj
 0004:0000003c       $pdata$?Ref@ObjectWrap@node@@MEAAXXZ 000000018007803c     node-opus.obj
 0004:00000048       $pdata$?Unref@ObjectWrap@node@@MEAAXXZ 0000000180078048     node-opus.obj
 0004:00000054       $pdata$?WeakCallback@ObjectWrap@node@@CAXAEBV?$WeakCallbackInfo@VObjectWrap@node@@@v8@@@Z 0000000180078054     node-opus.obj
 0004:00000060       $pdata$??_GObjectWrap@node@@UEAAPEAXI@Z 0000000180078060     node-opus.obj
 0004:0000006c       $pdata$?FunctionCallbackWrapper@imp@Nan@@YAXAEBV?$FunctionCallbackInfo@VValue@v8@@@v8@@@Z 000000018007806c     node-opus.obj
 0004:00000078       $pdata$?New@?$Factory@VFunctionTemplate@v8@@@imp@Nan@@SA?AV?$Local@VFunctionTemplate@v8@@@v8@@P6AXAEBV?$FunctionCallbackInfo@VValue@v8@@@3@@ZV?$Local@VValue@v8@@@5@V?$Local@VSignature@v8@@@5@@Z 0000000180078078     node-opus.obj
 0004:00000084       $pdata$0$?New@?$Factory@VFunctionTemplate@v8@@@imp@Nan@@SA?AV?$Local@VFunctionTemplate@v8@@@v8@@P6AXAEBV?$FunctionCallbackInfo@VValue@v8@@@3@@ZV?$Local@VValue@v8@@@5@V?$Local@VSignature@v8@@@5@@Z 0000000180078084     node-opus.obj
 0004:00000090       $pdata$1$?New@?$Factory@VFunctionTemplate@v8@@@imp@Nan@@SA?AV?$Local@VFunctionTemplate@v8@@@v8@@P6AXAEBV?$FunctionCallbackInfo@VValue@v8@@@3@@ZV?$Local@VValue@v8@@@5@V?$Local@VSignature@v8@@@5@@Z 0000000180078090     node-opus.obj
 0004:0000009c       $pdata$?ThrowError@Nan@@YAXPEBD@Z 000000018007809c     node-opus.obj
 0004:000000a8       $pdata$?ThrowTypeError@Nan@@YAXPEBD@Z 00000001800780a8     node-opus.obj
 0004:000000b4       $pdata$?SetPrototypeMethod@Nan@@YAXV?$Local@VFunctionTemplate@v8@@@v8@@PEBDP6AXAEBV?$FunctionCallbackInfo@VValue@v8@@@1@@Z@Z 00000001800780b4     node-opus.obj
 0004:000000c0       $pdata$?Encode@OpusEncoder@@SAXAEBV?$FunctionCallbackInfo@VValue@v8@@@Nan@@@Z 00000001800780c0     node-opus.obj
 0004:000000cc       $pdata$0$?Encode@OpusEncoder@@SAXAEBV?$FunctionCallbackInfo@VValue@v8@@@Nan@@@Z 00000001800780cc     node-opus.obj
 0004:000000d8       $pdata$3$?Encode@OpusEncoder@@SAXAEBV?$FunctionCallbackInfo@VValue@v8@@@Nan@@@Z 00000001800780d8     node-opus.obj
 0004:000000e4       $pdata$4$?Encode@OpusEncoder@@SAXAEBV?$FunctionCallbackInfo@VValue@v8@@@Nan@@@Z 00000001800780e4     node-opus.obj
 0004:000000f0       $pdata$5$?Encode@OpusEncoder@@SAXAEBV?$FunctionCallbackInfo@VValue@v8@@@Nan@@@Z 00000001800780f0     node-opus.obj
 0004:000000fc       $pdata$?Decode@OpusEncoder@@SAXAEBV?$FunctionCallbackInfo@VValue@v8@@@Nan@@@Z 00000001800780fc     node-opus.obj
 0004:00000108       $pdata$2$?Decode@OpusEncoder@@SAXAEBV?$FunctionCallbackInfo@VValue@v8@@@Nan@@@Z 0000000180078108     node-opus.obj
 0004:00000114       $pdata$4$?Decode@OpusEncoder@@SAXAEBV?$FunctionCallbackInfo@VValue@v8@@@Nan@@@Z 0000000180078114     node-opus.obj
 0004:00000120       $pdata$5$?Decode@OpusEncoder@@SAXAEBV?$FunctionCallbackInfo@VValue@v8@@@Nan@@@Z 0000000180078120     node-opus.obj
 0004:0000012c       $pdata$?SetBitrate@OpusEncoder@@SAXAEBV?$FunctionCallbackInfo@VValue@v8@@@Nan@@@Z 000000018007812c     node-opus.obj
 0004:00000138       $pdata$0$?SetBitrate@OpusEncoder@@SAXAEBV?$FunctionCallbackInfo@VValue@v8@@@Nan@@@Z 0000000180078138     node-opus.obj
 0004:00000144       $pdata$2$?SetBitrate@OpusEncoder@@SAXAEBV?$FunctionCallbackInfo@VValue@v8@@@Nan@@@Z 0000000180078144     node-opus.obj
 0004:00000150       $pdata$3$?SetBitrate@OpusEncoder@@SAXAEBV?$FunctionCallbackInfo@VValue@v8@@@Nan@@@Z 0000000180078150     node-opus.obj
 0004:0000015c       $pdata$?GetBitrate@OpusEncoder@@SAXAEBV?$FunctionCallbackInfo@VValue@v8@@@Nan@@@Z 000000018007815c     node-opus.obj
 0004:00000168       $pdata$?New@OpusEncoder@@SAXAEBV?$FunctionCallbackInfo@VValue@v8@@@Nan@@@Z 0000000180078168     node-opus.obj
 0004:00000174       $pdata$3$?New@OpusEncoder@@SAXAEBV?$FunctionCallbackInfo@VValue@v8@@@Nan@@@Z 0000000180078174     node-opus.obj
 0004:00000180       $pdata$4$?New@OpusEncoder@@SAXAEBV?$FunctionCallbackInfo@VValue@v8@@@Nan@@@Z 0000000180078180     node-opus.obj
 0004:0000018c       $pdata$?Init@OpusEncoder@@SAXV?$Local@VObject@v8@@@v8@@@Z 000000018007818c     node-opus.obj
 0004:00000198       $pdata$??_GOpusEncoder@@UEAAPEAXI@Z 0000000180078198     node-opus.obj
 0004:000001a4       $pdata$?NodeInit@@YAXV?$Local@VObject@v8@@@v8@@@Z 00000001800781a4     node-opus.obj
 0004:000001b0       $pdata$??$Unwrap@VOpusEncoder@@@ObjectWrap@node@@SAPEAVOpusEncoder@@V?$Local@VObject@v8@@@v8@@@Z 00000001800781b0     node-opus.obj
 0004:000001bc       $pdata$?load_exe_hook@@YAP6A_JXZIPEAUDelayLoadInfo@@@Z 00000001800781bc     win_delay_load_hook.obj
 0004:000001c8       $pdata$opus_encoder_get_size 00000001800781c8     libopus:opus_encoder.obj
 0004:000001d4       $pdata$opus_encoder_init   00000001800781d4     libopus:opus_encoder.obj
 0004:000001e0       $pdata$2$opus_encoder_init 00000001800781e0     libopus:opus_encoder.obj
 0004:000001ec       $pdata$4$opus_encoder_init 00000001800781ec     libopus:opus_encoder.obj
 0004:000001f8       $pdata$5$opus_encoder_init 00000001800781f8     libopus:opus_encoder.obj
 0004:00000204       $pdata$silk_biquad_float   0000000180078204     libopus:opus_encoder.obj
 0004:00000210       $pdata$5$silk_biquad_float 0000000180078210     libopus:opus_encoder.obj
 0004:0000021c       $pdata$6$silk_biquad_float 000000018007821c     libopus:opus_encoder.obj
 0004:00000228       $pdata$hp_cutoff           0000000180078228     libopus:opus_encoder.obj
 0004:00000234       $pdata$dc_reject           0000000180078234     libopus:opus_encoder.obj
 0004:00000240       $pdata$5$dc_reject         0000000180078240     libopus:opus_encoder.obj
 0004:0000024c       $pdata$6$dc_reject         000000018007824c     libopus:opus_encoder.obj
 0004:00000258       $pdata$stereo_fade         0000000180078258     libopus:opus_encoder.obj
 0004:00000264       $pdata$0$stereo_fade       0000000180078264     libopus:opus_encoder.obj
 0004:00000270       $pdata$1$stereo_fade       0000000180078270     libopus:opus_encoder.obj
 0004:0000027c       $pdata$gain_fade           000000018007827c     libopus:opus_encoder.obj
 0004:00000288       $pdata$opus_encoder_create 0000000180078288     libopus:opus_encoder.obj
 0004:00000294       $pdata$0$opus_encoder_create 0000000180078294     libopus:opus_encoder.obj
 0004:000002a0       $pdata$1$opus_encoder_create 00000001800782a0     libopus:opus_encoder.obj
 0004:000002ac       $pdata$2$opus_encoder_create 00000001800782ac     libopus:opus_encoder.obj
 0004:000002b8       $pdata$3$opus_encoder_create 00000001800782b8     libopus:opus_encoder.obj
 0004:000002c4       $pdata$transient_boost     00000001800782c4     libopus:opus_encoder.obj
 0004:000002d0       $pdata$transient_viterbi   00000001800782d0     libopus:opus_encoder.obj
 0004:000002dc       $pdata$7$transient_viterbi 00000001800782dc     libopus:opus_encoder.obj
 0004:000002e8       $pdata$12$transient_viterbi 00000001800782e8     libopus:opus_encoder.obj
 0004:000002f4       $pdata$13$transient_viterbi 00000001800782f4     libopus:opus_encoder.obj
 0004:00000300       $pdata$14$transient_viterbi 0000000180078300     libopus:opus_encoder.obj
 0004:0000030c       $pdata$15$transient_viterbi 000000018007830c     libopus:opus_encoder.obj
 0004:00000318       $pdata$optimize_framesize  0000000180078318     libopus:opus_encoder.obj
 0004:00000324       $pdata$downmix_float       0000000180078324     libopus:opus_encoder.obj
 0004:00000330       $pdata$6$downmix_float     0000000180078330     libopus:opus_encoder.obj
 0004:0000033c       $pdata$7$downmix_float     000000018007833c     libopus:opus_encoder.obj
 0004:00000348       $pdata$8$downmix_float     0000000180078348     libopus:opus_encoder.obj
 0004:00000354       $pdata$downmix_int         0000000180078354     libopus:opus_encoder.obj
 0004:00000360       $pdata$6$downmix_int       0000000180078360     libopus:opus_encoder.obj
 0004:0000036c       $pdata$7$downmix_int       000000018007836c     libopus:opus_encoder.obj
 0004:00000378       $pdata$8$downmix_int       0000000180078378     libopus:opus_encoder.obj
 0004:00000384       $pdata$compute_frame_size  0000000180078384     libopus:opus_encoder.obj
 0004:00000390       $pdata$compute_stereo_width 0000000180078390     libopus:opus_encoder.obj
 0004:0000039c       $pdata$7$compute_stereo_width 000000018007839c     libopus:opus_encoder.obj
 0004:000003a8       $pdata$8$compute_stereo_width 00000001800783a8     libopus:opus_encoder.obj
 0004:000003b4       $pdata$9$compute_stereo_width 00000001800783b4     libopus:opus_encoder.obj
 0004:000003c0       $pdata$10$compute_stereo_width 00000001800783c0     libopus:opus_encoder.obj
 0004:000003cc       $pdata$opus_encode_native  00000001800783cc     libopus:opus_encoder.obj
 0004:000003d8       $pdata$opus_encode         00000001800783d8     libopus:opus_encoder.obj
 0004:000003e4       $pdata$opus_encode_float   00000001800783e4     libopus:opus_encoder.obj
 0004:000003f0       $pdata$opus_encoder_ctl    00000001800783f0     libopus:opus_encoder.obj
 0004:000003fc       $pdata$1$opus_encoder_ctl  00000001800783fc     libopus:opus_encoder.obj
 0004:00000408       $pdata$2$opus_encoder_ctl  0000000180078408     libopus:opus_encoder.obj
 0004:00000414       $pdata$opus_decoder_get_size 0000000180078414     libopus:opus_decoder.obj
 0004:00000420       $pdata$opus_decoder_init   0000000180078420     libopus:opus_decoder.obj
 0004:0000042c       $pdata$opus_decoder_create 000000018007842c     libopus:opus_decoder.obj
 0004:00000438       $pdata$smooth_fade         0000000180078438     libopus:opus_decoder.obj
 0004:00000444       $pdata$2$smooth_fade       0000000180078444     libopus:opus_decoder.obj
 0004:00000450       $pdata$3$smooth_fade       0000000180078450     libopus:opus_decoder.obj
 0004:0000045c       $pdata$opus_decode_frame   000000018007845c     libopus:opus_decoder.obj
 0004:00000468       $pdata$opus_decode_native  0000000180078468     libopus:opus_decoder.obj
 0004:00000474       $pdata$opus_decode         0000000180078474     libopus:opus_decoder.obj
 0004:00000480       $pdata$opus_decode_float   0000000180078480     libopus:opus_decoder.obj
 0004:0000048c       $pdata$opus_decoder_ctl    000000018007848c     libopus:opus_decoder.obj
 0004:00000498       $pdata$opus_packet_get_nb_samples 0000000180078498     libopus:opus_decoder.obj
 0004:000004a4       $pdata$silk_InitEncoder    00000001800784a4     libopus:enc_API.obj
 0004:000004b0       $pdata$silk_Encode         00000001800784b0     libopus:enc_API.obj
 0004:000004bc       $pdata$fast_atan2f         00000001800784bc     libopus:analysis.obj
 0004:000004c8       $pdata$0$fast_atan2f       00000001800784c8     libopus:analysis.obj
 0004:000004d4       $pdata$tonality_get_info   00000001800784d4     libopus:analysis.obj
 0004:000004e0       $pdata$tonality_analysis   00000001800784e0     libopus:analysis.obj
 0004:000004ec       $pdata$run_analysis        00000001800784ec     libopus:analysis.obj
 0004:000004f8       $pdata$2$run_analysis      00000001800784f8     libopus:analysis.obj
 0004:00000504       $pdata$3$run_analysis      0000000180078504     libopus:analysis.obj
 0004:00000510       $pdata$ec_enc_uint         0000000180078510     libopus:entenc.obj
 0004:0000051c       $pdata$ec_enc_bits         000000018007851c     libopus:entenc.obj
 0004:00000528       $pdata$ec_enc_done         0000000180078528     libopus:entenc.obj
 0004:00000534       $pdata$opus_repacketizer_create 0000000180078534     libopus:repacketizer.obj
 0004:00000540       $pdata$opus_repacketizer_cat_impl 0000000180078540     libopus:repacketizer.obj
 0004:0000054c       $pdata$1$opus_repacketizer_cat_impl 000000018007854c     libopus:repacketizer.obj
 0004:00000558       $pdata$2$opus_repacketizer_cat_impl 0000000180078558     libopus:repacketizer.obj
 0004:00000564       $pdata$3$opus_repacketizer_cat_impl 0000000180078564     libopus:repacketizer.obj
 0004:00000570       $pdata$4$opus_repacketizer_cat_impl 0000000180078570     libopus:repacketizer.obj
 0004:0000057c       $pdata$opus_repacketizer_out_range_impl 000000018007857c     libopus:repacketizer.obj
 0004:00000588       $pdata$6$opus_repacketizer_out_range_impl 0000000180078588     libopus:repacketizer.obj
 0004:00000594       $pdata$8$opus_repacketizer_out_range_impl 0000000180078594     libopus:repacketizer.obj
 0004:000005a0       $pdata$9$opus_repacketizer_out_range_impl 00000001800785a0     libopus:repacketizer.obj
 0004:000005ac       $pdata$opus_repacketizer_out_range 00000001800785ac     libopus:repacketizer.obj
 0004:000005b8       $pdata$opus_repacketizer_out 00000001800785b8     libopus:repacketizer.obj
 0004:000005c4       $pdata$opus_packet_pad     00000001800785c4     libopus:repacketizer.obj
 0004:000005d0       $pdata$1$opus_packet_pad   00000001800785d0     libopus:repacketizer.obj
 0004:000005dc       $pdata$2$opus_packet_pad   00000001800785dc     libopus:repacketizer.obj
 0004:000005e8       $pdata$opus_packet_unpad   00000001800785e8     libopus:repacketizer.obj
 0004:000005f4       $pdata$opus_multistream_packet_pad 00000001800785f4     libopus:repacketizer.obj
 0004:00000600       $pdata$2$opus_multistream_packet_pad 0000000180078600     libopus:repacketizer.obj
 0004:0000060c       $pdata$3$opus_multistream_packet_pad 000000018007860c     libopus:repacketizer.obj
 0004:00000618       $pdata$4$opus_multistream_packet_pad 0000000180078618     libopus:repacketizer.obj
 0004:00000624       $pdata$opus_multistream_packet_unpad 0000000180078624     libopus:repacketizer.obj
 0004:00000630       $pdata$4$opus_multistream_packet_unpad 0000000180078630     libopus:repacketizer.obj
 0004:0000063c       $pdata$5$opus_multistream_packet_unpad 000000018007863c     libopus:repacketizer.obj
 0004:00000648       $pdata$6$opus_multistream_packet_unpad 0000000180078648     libopus:repacketizer.obj
 0004:00000654       $pdata$opus_custom_encoder_init_arch 0000000180078654     libopus:celt_encoder.obj
 0004:00000660       $pdata$celt_encoder_init   0000000180078660     libopus:celt_encoder.obj
 0004:0000066c       $pdata$transient_analysis  000000018007866c     libopus:celt_encoder.obj
 0004:00000678       $pdata$patch_transient_decision 0000000180078678     libopus:celt_encoder.obj
 0004:00000684       $pdata$compute_mdcts       0000000180078684     libopus:celt_encoder.obj
 0004:00000690       $pdata$celt_preemphasis    0000000180078690     libopus:celt_encoder.obj
 0004:0000069c       $pdata$0$celt_preemphasis  000000018007869c     libopus:celt_encoder.obj
 0004:000006a8       $pdata$1$celt_preemphasis  00000001800786a8     libopus:celt_encoder.obj
 0004:000006b4       $pdata$tf_analysis         00000001800786b4     libopus:celt_encoder.obj
 0004:000006c0       $pdata$tf_encode           00000001800786c0     libopus:celt_encoder.obj
 0004:000006cc       $pdata$alloc_trim_analysis 00000001800786cc     libopus:celt_encoder.obj
 0004:000006d8       $pdata$7$alloc_trim_analysis 00000001800786d8     libopus:celt_encoder.obj
 0004:000006e4       $pdata$13$alloc_trim_analysis 00000001800786e4     libopus:celt_encoder.obj
 0004:000006f0       $pdata$14$alloc_trim_analysis 00000001800786f0     libopus:celt_encoder.obj
 0004:000006fc       $pdata$15$alloc_trim_analysis 00000001800786fc     libopus:celt_encoder.obj
 0004:00000708       $pdata$16$alloc_trim_analysis 0000000180078708     libopus:celt_encoder.obj
 0004:00000714       $pdata$17$alloc_trim_analysis 0000000180078714     libopus:celt_encoder.obj
 0004:00000720       $pdata$18$alloc_trim_analysis 0000000180078720     libopus:celt_encoder.obj
 0004:0000072c       $pdata$19$alloc_trim_analysis 000000018007872c     libopus:celt_encoder.obj
 0004:00000738       $pdata$stereo_analysis     0000000180078738     libopus:celt_encoder.obj
 0004:00000744       $pdata$dynalloc_analysis   0000000180078744     libopus:celt_encoder.obj
 0004:00000750       $pdata$run_prefilter       0000000180078750     libopus:celt_encoder.obj
 0004:0000075c       $pdata$compute_vbr         000000018007875c     libopus:celt_encoder.obj
 0004:00000768       $pdata$celt_encode_with_ec 0000000180078768     libopus:celt_encoder.obj
 0004:00000774       $pdata$opus_custom_encoder_ctl 0000000180078774     libopus:celt_encoder.obj
 0004:00000780       $pdata$1$opus_custom_encoder_ctl 0000000180078780     libopus:celt_encoder.obj
 0004:0000078c       $pdata$2$opus_custom_encoder_ctl 000000018007878c     libopus:celt_encoder.obj
 0004:00000798       $pdata$silk_InitDecoder    0000000180078798     libopus:dec_API.obj
 0004:000007a4       $pdata$silk_Decode         00000001800787a4     libopus:dec_API.obj
 0004:000007b0       $pdata$ec_dec_normalize    00000001800787b0     libopus:entdec.obj
 0004:000007bc       $pdata$1$ec_dec_normalize  00000001800787bc     libopus:entdec.obj
 0004:000007c8       $pdata$2$ec_dec_normalize  00000001800787c8     libopus:entdec.obj
 0004:000007d4       $pdata$ec_dec_bit_logp     00000001800787d4     libopus:entdec.obj
 0004:000007e0       $pdata$ec_dec_uint         00000001800787e0     libopus:entdec.obj
 0004:000007ec       $pdata$ec_dec_bits         00000001800787ec     libopus:entdec.obj
 0004:000007f8       $pdata$0$ec_dec_bits       00000001800787f8     libopus:entdec.obj
 0004:00000804       $pdata$1$ec_dec_bits       0000000180078804     libopus:entdec.obj
 0004:00000810       $pdata$opus_pcm_soft_clip  0000000180078810     libopus:opus.obj
 0004:0000081c       $pdata$0$opus_pcm_soft_clip 000000018007881c     libopus:opus.obj
 0004:00000828       $pdata$10$opus_pcm_soft_clip 0000000180078828     libopus:opus.obj
 0004:00000834       $pdata$11$opus_pcm_soft_clip 0000000180078834     libopus:opus.obj
 0004:00000840       $pdata$12$opus_pcm_soft_clip 0000000180078840     libopus:opus.obj
 0004:0000084c       $pdata$opus_packet_parse_impl 000000018007884c     libopus:opus.obj
 0004:00000858       $pdata$opus_packet_parse   0000000180078858     libopus:opus.obj
 0004:00000864       $pdata$celt_decoder_init   0000000180078864     libopus:celt_decoder.obj
 0004:00000870       $pdata$opus_custom_decoder_init 0000000180078870     libopus:celt_decoder.obj
 0004:0000087c       $pdata$deemphasis          000000018007887c     libopus:celt_decoder.obj
 0004:00000888       $pdata$celt_synthesis      0000000180078888     libopus:celt_decoder.obj
 0004:00000894       $pdata$tf_decode           0000000180078894     libopus:celt_decoder.obj
 0004:000008a0       $pdata$celt_plc_pitch_search 00000001800788a0     libopus:celt_decoder.obj
 0004:000008ac       $pdata$celt_decode_lost    00000001800788ac     libopus:celt_decoder.obj
 0004:000008b8       $pdata$celt_decode_with_ec 00000001800788b8     libopus:celt_decoder.obj
 0004:000008c4       $pdata$opus_custom_decoder_ctl 00000001800788c4     libopus:celt_decoder.obj
 0004:000008d0       $pdata$silk_encode_frame_FLP 00000001800788d0     libopus:encode_frame_FLP.obj
 0004:000008dc       $pdata$3$silk_encode_frame_FLP 00000001800788dc     libopus:encode_frame_FLP.obj
 0004:000008e8       $pdata$13$silk_encode_frame_FLP 00000001800788e8     libopus:encode_frame_FLP.obj
 0004:000008f4       $pdata$14$silk_encode_frame_FLP 00000001800788f4     libopus:encode_frame_FLP.obj
 0004:00000900       $pdata$15$silk_encode_frame_FLP 0000000180078900     libopus:encode_frame_FLP.obj
 0004:0000090c       $pdata$silk_LBRR_encode_FLP 000000018007890c     libopus:encode_frame_FLP.obj
 0004:00000918       $pdata$0$silk_LBRR_encode_FLP 0000000180078918     libopus:encode_frame_FLP.obj
 0004:00000924       $pdata$1$silk_LBRR_encode_FLP 0000000180078924     libopus:encode_frame_FLP.obj
 0004:00000930       $pdata$silk_control_encoder 0000000180078930     libopus:control_codec.obj
 0004:0000093c       $pdata$silk_setup_resamplers 000000018007893c     libopus:control_codec.obj
 0004:00000948       $pdata$silk_setup_fs       0000000180078948     libopus:control_codec.obj
 0004:00000954       $pdata$silk_setup_LBRR     0000000180078954     libopus:control_codec.obj
 0004:00000960       $pdata$silk_encode_indices 0000000180078960     libopus:encode_indices.obj
 0004:0000096c       $pdata$2$silk_encode_indices 000000018007896c     libopus:encode_indices.obj
 0004:00000978       $pdata$5$silk_encode_indices 0000000180078978     libopus:encode_indices.obj
 0004:00000984       $pdata$6$silk_encode_indices 0000000180078984     libopus:encode_indices.obj
 0004:00000990       $pdata$7$silk_encode_indices 0000000180078990     libopus:encode_indices.obj
 0004:0000099c       $pdata$8$silk_encode_indices 000000018007899c     libopus:encode_indices.obj
 0004:000009a8       $pdata$silk_stereo_encode_pred 00000001800789a8     libopus:stereo_encode_pred.obj
 0004:000009b4       $pdata$silk_init_encoder   00000001800789b4     libopus:init_encoder.obj
 0004:000009c0       $pdata$silk_encode_pulses  00000001800789c0     libopus:encode_pulses.obj
 0004:000009cc       $pdata$silk_DIV32_varQ     00000001800789cc     libopus:stereo_find_predictor.obj
 0004:000009cc       $pdata$silk_DIV32_varQ     00000001800789cc     libopus:stereo_LR_to_MS.obj
 0004:000009d8       $pdata$silk_stereo_LR_to_MS 00000001800789d8     libopus:stereo_LR_to_MS.obj
 0004:000009e4       $pdata$silk_control_SNR    00000001800789e4     libopus:control_SNR.obj
 0004:000009f0       $pdata$silk_HP_variable_cutoff 00000001800789f0     libopus:HP_variable_cutoff.obj
 0004:000009fc       $pdata$3$silk_HP_variable_cutoff 00000001800789fc     libopus:HP_variable_cutoff.obj
 0004:00000a08       $pdata$6$silk_HP_variable_cutoff 0000000180078a08     libopus:HP_variable_cutoff.obj
 0004:00000a14       $pdata$7$silk_HP_variable_cutoff 0000000180078a14     libopus:HP_variable_cutoff.obj
 0004:00000a20       $pdata$8$silk_HP_variable_cutoff 0000000180078a20     libopus:HP_variable_cutoff.obj
 0004:00000a2c       $pdata$9$silk_HP_variable_cutoff 0000000180078a2c     libopus:HP_variable_cutoff.obj
 0004:00000a38       $pdata$silk_resampler_init 0000000180078a38     libopus:resampler.obj
 0004:00000a44       $pdata$silk_resampler      0000000180078a44     libopus:resampler.obj
 0004:00000a50       $pdata$kf_bfly2            0000000180078a50     libopus:kiss_fft.obj
 0004:00000a5c       $pdata$0$kf_bfly2          0000000180078a5c     libopus:kiss_fft.obj
 0004:00000a68       $pdata$1$kf_bfly2          0000000180078a68     libopus:kiss_fft.obj
 0004:00000a74       $pdata$kf_bfly4            0000000180078a74     libopus:kiss_fft.obj
 0004:00000a80       $pdata$10$kf_bfly4         0000000180078a80     libopus:kiss_fft.obj
 0004:00000a8c       $pdata$11$kf_bfly4         0000000180078a8c     libopus:kiss_fft.obj
 0004:00000a98       $pdata$kf_bfly3            0000000180078a98     libopus:kiss_fft.obj
 0004:00000aa4       $pdata$5$kf_bfly3          0000000180078aa4     libopus:kiss_fft.obj
 0004:00000ab0       $pdata$6$kf_bfly3          0000000180078ab0     libopus:kiss_fft.obj
 0004:00000abc       $pdata$kf_bfly5            0000000180078abc     libopus:kiss_fft.obj
 0004:00000ac8       $pdata$17$kf_bfly5         0000000180078ac8     libopus:kiss_fft.obj
 0004:00000ad4       $pdata$18$kf_bfly5         0000000180078ad4     libopus:kiss_fft.obj
 0004:00000ae0       $pdata$opus_fft_impl       0000000180078ae0     libopus:kiss_fft.obj
 0004:00000aec       $pdata$2$opus_fft_impl     0000000180078aec     libopus:kiss_fft.obj
 0004:00000af8       $pdata$3$opus_fft_impl     0000000180078af8     libopus:kiss_fft.obj
 0004:00000b04       $pdata$opus_fft_c          0000000180078b04     libopus:kiss_fft.obj
 0004:00000b10       $pdata$2$opus_fft_c        0000000180078b10     libopus:kiss_fft.obj
 0004:00000b1c       $pdata$3$opus_fft_c        0000000180078b1c     libopus:kiss_fft.obj
 0004:00000b28       $pdata$tansig_approx       0000000180078b28     libopus:mlp.obj
 0004:00000b34       $pdata$mlp_process         0000000180078b34     libopus:mlp.obj
 0004:00000b40       $pdata$0$mlp_process       0000000180078b40     libopus:mlp.obj
 0004:00000b4c       $pdata$13$mlp_process      0000000180078b4c     libopus:mlp.obj
 0004:00000b58       $pdata$14$mlp_process      0000000180078b58     libopus:mlp.obj
 0004:00000b64       $pdata$15$mlp_process      0000000180078b64     libopus:mlp.obj
 0004:00000b70       $pdata$comb_filter_const_c 0000000180078b70     libopus:celt.obj
 0004:00000b7c       $pdata$0$comb_filter_const_c 0000000180078b7c     libopus:celt.obj
 0004:00000b88       $pdata$4$comb_filter_const_c 0000000180078b88     libopus:celt.obj
 0004:00000b94       $pdata$5$comb_filter_const_c 0000000180078b94     libopus:celt.obj
 0004:00000ba0       $pdata$6$comb_filter_const_c 0000000180078ba0     libopus:celt.obj
 0004:00000bac       $pdata$comb_filter         0000000180078bac     libopus:celt.obj
 0004:00000bb8       $pdata$13$comb_filter      0000000180078bb8     libopus:celt.obj
 0004:00000bc4       $pdata$14$comb_filter      0000000180078bc4     libopus:celt.obj
 0004:00000bd0       $pdata$15$comb_filter      0000000180078bd0     libopus:celt.obj
 0004:00000bdc       $pdata$16$comb_filter      0000000180078bdc     libopus:celt.obj
 0004:00000be8       $pdata$17$comb_filter      0000000180078be8     libopus:celt.obj
 0004:00000bf4       $pdata$18$comb_filter      0000000180078bf4     libopus:celt.obj
 0004:00000c00       $pdata$init_caps           0000000180078c00     libopus:celt.obj
 0004:00000c0c       $pdata$loss_distortion     0000000180078c0c     libopus:quant_bands.obj
 0004:00000c18       $pdata$quant_coarse_energy_impl 0000000180078c18     libopus:quant_bands.obj
 0004:00000c24       $pdata$11$quant_coarse_energy_impl 0000000180078c24     libopus:quant_bands.obj
 0004:00000c30       $pdata$12$quant_coarse_energy_impl 0000000180078c30     libopus:quant_bands.obj
 0004:00000c3c       $pdata$quant_coarse_energy 0000000180078c3c     libopus:quant_bands.obj
 0004:00000c48       $pdata$quant_fine_energy   0000000180078c48     libopus:quant_bands.obj
 0004:00000c54       $pdata$9$quant_fine_energy 0000000180078c54     libopus:quant_bands.obj
 0004:00000c60       $pdata$10$quant_fine_energy 0000000180078c60     libopus:quant_bands.obj
 0004:00000c6c       $pdata$quant_energy_finalise 0000000180078c6c     libopus:quant_bands.obj
 0004:00000c78       $pdata$unquant_coarse_energy 0000000180078c78     libopus:quant_bands.obj
 0004:00000c84       $pdata$2$unquant_coarse_energy 0000000180078c84     libopus:quant_bands.obj
 0004:00000c90       $pdata$3$unquant_coarse_energy 0000000180078c90     libopus:quant_bands.obj
 0004:00000c9c       $pdata$unquant_fine_energy 0000000180078c9c     libopus:quant_bands.obj
 0004:00000ca8       $pdata$3$unquant_fine_energy 0000000180078ca8     libopus:quant_bands.obj
 0004:00000cb4       $pdata$4$unquant_fine_energy 0000000180078cb4     libopus:quant_bands.obj
 0004:00000cc0       $pdata$unquant_energy_finalise 0000000180078cc0     libopus:quant_bands.obj
 0004:00000ccc       $pdata$amp2Log2            0000000180078ccc     libopus:quant_bands.obj
 0004:00000cd8       $pdata$dual_inner_prod_c   0000000180078cd8     libopus:pitch.obj
 0004:00000cd8       $pdata$dual_inner_prod_c   0000000180078cd8     libopus:bands.obj
 0004:00000ce4       $pdata$1$dual_inner_prod_c 0000000180078ce4     libopus:pitch.obj
 0004:00000ce4       $pdata$1$dual_inner_prod_c 0000000180078ce4     libopus:bands.obj
 0004:00000cf0       $pdata$2$dual_inner_prod_c 0000000180078cf0     libopus:bands.obj
 0004:00000cf0       $pdata$2$dual_inner_prod_c 0000000180078cf0     libopus:pitch.obj
 0004:00000cfc       $pdata$compute_band_energies 0000000180078cfc     libopus:bands.obj
 0004:00000d08       $pdata$normalise_bands     0000000180078d08     libopus:bands.obj
 0004:00000d14       $pdata$denormalise_bands   0000000180078d14     libopus:bands.obj
 0004:00000d20       $pdata$1$denormalise_bands 0000000180078d20     libopus:bands.obj
 0004:00000d2c       $pdata$2$denormalise_bands 0000000180078d2c     libopus:bands.obj
 0004:00000d38       $pdata$anti_collapse       0000000180078d38     libopus:bands.obj
 0004:00000d44       $pdata$14$anti_collapse    0000000180078d44     libopus:bands.obj
 0004:00000d50       $pdata$15$anti_collapse    0000000180078d50     libopus:bands.obj
 0004:00000d5c       $pdata$intensity_stereo    0000000180078d5c     libopus:bands.obj
 0004:00000d68       $pdata$stereo_merge        0000000180078d68     libopus:bands.obj
 0004:00000d74       $pdata$1$stereo_merge      0000000180078d74     libopus:bands.obj
 0004:00000d80       $pdata$2$stereo_merge      0000000180078d80     libopus:bands.obj
 0004:00000d8c       $pdata$3$stereo_merge      0000000180078d8c     libopus:bands.obj
 0004:00000d98       $pdata$4$stereo_merge      0000000180078d98     libopus:bands.obj
 0004:00000da4       $pdata$spreading_decision  0000000180078da4     libopus:bands.obj
 0004:00000db0       $pdata$1$spreading_decision 0000000180078db0     libopus:bands.obj
 0004:00000dbc       $pdata$2$spreading_decision 0000000180078dbc     libopus:bands.obj
 0004:00000dc8       $pdata$deinterleave_hadamard 0000000180078dc8     libopus:bands.obj
 0004:00000dd4       $pdata$interleave_hadamard 0000000180078dd4     libopus:bands.obj
 0004:00000de0       $pdata$haar1               0000000180078de0     libopus:bands.obj
 0004:00000dec       $pdata$2$haar1             0000000180078dec     libopus:bands.obj
 0004:00000df8       $pdata$3$haar1             0000000180078df8     libopus:bands.obj
 0004:00000e04       $pdata$compute_theta       0000000180078e04     libopus:bands.obj
 0004:00000e10       $pdata$quant_band_n1       0000000180078e10     libopus:bands.obj
 0004:00000e1c       $pdata$quant_partition     0000000180078e1c     libopus:bands.obj
 0004:00000e28       $pdata$1$quant_partition   0000000180078e28     libopus:bands.obj
 0004:00000e34       $pdata$2$quant_partition   0000000180078e34     libopus:bands.obj
 0004:00000e40       $pdata$4$quant_partition   0000000180078e40     libopus:bands.obj
 0004:00000e4c       $pdata$5$quant_partition   0000000180078e4c     libopus:bands.obj
 0004:00000e58       $pdata$quant_band          0000000180078e58     libopus:bands.obj
 0004:00000e64       $pdata$quant_band_stereo   0000000180078e64     libopus:bands.obj
 0004:00000e70       $pdata$quant_all_bands     0000000180078e70     libopus:bands.obj
 0004:00000e7c       $pdata$interp_bits2pulses  0000000180078e7c     libopus:rate.obj
 0004:00000e88       $pdata$compute_allocation  0000000180078e88     libopus:rate.obj
 0004:00000e94       $pdata$xcorr_kernel_c      0000000180078e94     libopus:pitch.obj
 0004:00000ea0       $pdata$0$xcorr_kernel_c    0000000180078ea0     libopus:pitch.obj
 0004:00000eac       $pdata$2$xcorr_kernel_c    0000000180078eac     libopus:pitch.obj
 0004:00000eb8       $pdata$3$xcorr_kernel_c    0000000180078eb8     libopus:pitch.obj
 0004:00000ec4       $pdata$4$xcorr_kernel_c    0000000180078ec4     libopus:pitch.obj
 0004:00000ed0       $pdata$find_best_pitch     0000000180078ed0     libopus:pitch.obj
 0004:00000edc       $pdata$1$find_best_pitch   0000000180078edc     libopus:pitch.obj
 0004:00000ee8       $pdata$2$find_best_pitch   0000000180078ee8     libopus:pitch.obj
 0004:00000ef4       $pdata$celt_fir5           0000000180078ef4     libopus:pitch.obj
 0004:00000f00       $pdata$0$celt_fir5         0000000180078f00     libopus:pitch.obj
 0004:00000f0c       $pdata$1$celt_fir5         0000000180078f0c     libopus:pitch.obj
 0004:00000f18       $pdata$pitch_downsample    0000000180078f18     libopus:pitch.obj
 0004:00000f24       $pdata$celt_pitch_xcorr    0000000180078f24     libopus:pitch.obj
 0004:00000f30       $pdata$0$celt_pitch_xcorr  0000000180078f30     libopus:pitch.obj
 0004:00000f3c       $pdata$1$celt_pitch_xcorr  0000000180078f3c     libopus:pitch.obj
 0004:00000f48       $pdata$pitch_search        0000000180078f48     libopus:pitch.obj
 0004:00000f54       $pdata$remove_doubling     0000000180078f54     libopus:pitch.obj
 0004:00000f60       $pdata$opus_custom_mode_create 0000000180078f60     libopus:modes.obj
 0004:00000f6c       $pdata$clt_mdct_forward_c  0000000180078f6c     libopus:mdct.obj
 0004:00000f78       $pdata$clt_mdct_backward_c 0000000180078f78     libopus:mdct.obj
 0004:00000f84       $pdata$1$clt_mdct_backward_c 0000000180078f84     libopus:mdct.obj
 0004:00000f90       $pdata$4$clt_mdct_backward_c 0000000180078f90     libopus:mdct.obj
 0004:00000f9c       $pdata$5$clt_mdct_backward_c 0000000180078f9c     libopus:mdct.obj
 0004:00000fa8       $pdata$6$clt_mdct_backward_c 0000000180078fa8     libopus:mdct.obj
 0004:00000fb4       $pdata$7$clt_mdct_backward_c 0000000180078fb4     libopus:mdct.obj
 0004:00000fc0       $pdata$8$clt_mdct_backward_c 0000000180078fc0     libopus:mdct.obj
 0004:00000fcc       $pdata$9$clt_mdct_backward_c 0000000180078fcc     libopus:mdct.obj
 0004:00000fd8       $pdata$silk_decode_frame   0000000180078fd8     libopus:decode_frame.obj
 0004:00000fe4       $pdata$silk_decode_indices 0000000180078fe4     libopus:decode_indices.obj
 0004:00000ff0       $pdata$silk_stereo_decode_pred 0000000180078ff0     libopus:stereo_decode_pred.obj
 0004:00000ffc       $pdata$silk_stereo_MS_to_LR 0000000180078ffc     libopus:stereo_MS_to_LR.obj
 0004:00001008       $pdata$5$silk_stereo_MS_to_LR 0000000180079008     libopus:stereo_MS_to_LR.obj
 0004:00001014       $pdata$6$silk_stereo_MS_to_LR 0000000180079014     libopus:stereo_MS_to_LR.obj
 0004:00001020       $pdata$silk_decode_pulses  0000000180079020     libopus:decode_pulses.obj
 0004:0000102c       $pdata$silk_decoder_set_fs 000000018007902c     libopus:decoder_set_fs.obj
 0004:00001038       $pdata$xcorr_kernel_c      0000000180079038     libopus:celt_lpc.obj
 0004:00001044       $pdata$_celt_lpc           0000000180079044     libopus:celt_lpc.obj
 0004:00001050       $pdata$0$_celt_lpc         0000000180079050     libopus:celt_lpc.obj
 0004:0000105c       $pdata$3$_celt_lpc         000000018007905c     libopus:celt_lpc.obj
 0004:00001068       $pdata$4$_celt_lpc         0000000180079068     libopus:celt_lpc.obj
 0004:00001074       $pdata$5$_celt_lpc         0000000180079074     libopus:celt_lpc.obj
 0004:00001080       $pdata$celt_fir_c          0000000180079080     libopus:celt_lpc.obj
 0004:0000108c       $pdata$celt_iir            000000018007908c     libopus:celt_lpc.obj
 0004:00001098       $pdata$_celt_autocorr      0000000180079098     libopus:celt_lpc.obj
 0004:000010a4       $pdata$exp_rotation1       00000001800790a4     libopus:vq.obj
 0004:000010b0       $pdata$0$exp_rotation1     00000001800790b0     libopus:vq.obj
 0004:000010bc       $pdata$1$exp_rotation1     00000001800790bc     libopus:vq.obj
 0004:000010c8       $pdata$exp_rotation        00000001800790c8     libopus:vq.obj
 0004:000010d4       $pdata$2$exp_rotation      00000001800790d4     libopus:vq.obj
 0004:000010e0       $pdata$3$exp_rotation      00000001800790e0     libopus:vq.obj
 0004:000010ec       $pdata$4$exp_rotation      00000001800790ec     libopus:vq.obj
 0004:000010f8       $pdata$5$exp_rotation      00000001800790f8     libopus:vq.obj
 0004:00001104       $pdata$extract_collapse_mask 0000000180079104     libopus:vq.obj
 0004:00001110       $pdata$alg_quant           0000000180079110     libopus:vq.obj
 0004:0000111c       $pdata$alg_unquant         000000018007911c     libopus:vq.obj
 0004:00001128       $pdata$renormalise_vector  0000000180079128     libopus:vq.obj
 0004:00001134       $pdata$stereo_itheta       0000000180079134     libopus:vq.obj
 0004:00001140       $pdata$warped_true2monic_coefs 0000000180079140     libopus:noise_shape_analysis_FLP.obj
 0004:0000114c       $pdata$silk_noise_shape_analysis_FLP 000000018007914c     libopus:noise_shape_analysis_FLP.obj
 0004:00001158       $pdata$7$silk_noise_shape_analysis_FLP 0000000180079158     libopus:noise_shape_analysis_FLP.obj
 0004:00001164       $pdata$10$silk_noise_shape_analysis_FLP 0000000180079164     libopus:noise_shape_analysis_FLP.obj
 0004:00001170       $pdata$11$silk_noise_shape_analysis_FLP 0000000180079170     libopus:noise_shape_analysis_FLP.obj
 0004:0000117c       $pdata$12$silk_noise_shape_analysis_FLP 000000018007917c     libopus:noise_shape_analysis_FLP.obj
 0004:00001188       $pdata$13$silk_noise_shape_analysis_FLP 0000000180079188     libopus:noise_shape_analysis_FLP.obj
 0004:00001194       $pdata$silk_gains_quant    0000000180079194     libopus:gain_quant.obj
 0004:000011a0       $pdata$2$silk_gains_quant  00000001800791a0     libopus:gain_quant.obj
 0004:000011ac       $pdata$3$silk_gains_quant  00000001800791ac     libopus:gain_quant.obj
 0004:000011b8       $pdata$silk_gains_dequant  00000001800791b8     libopus:gain_quant.obj
 0004:000011c4       $pdata$0$silk_gains_dequant 00000001800791c4     libopus:gain_quant.obj
 0004:000011d0       $pdata$1$silk_gains_dequant 00000001800791d0     libopus:gain_quant.obj
 0004:000011dc       $pdata$silk_warped_LPC_analysis_filter_FLP 00000001800791dc     libopus:prefilter_FLP.obj
 0004:000011e8       $pdata$1$silk_warped_LPC_analysis_filter_FLP 00000001800791e8     libopus:prefilter_FLP.obj
 0004:000011f4       $pdata$2$silk_warped_LPC_analysis_filter_FLP 00000001800791f4     libopus:prefilter_FLP.obj
 0004:00001200       $pdata$silk_prefilter_FLP  0000000180079200     libopus:prefilter_FLP.obj
 0004:0000120c       $pdata$11$silk_prefilter_FLP 000000018007920c     libopus:prefilter_FLP.obj
 0004:00001218       $pdata$12$silk_prefilter_FLP 0000000180079218     libopus:prefilter_FLP.obj
 0004:00001224       $pdata$silk_prefilt_FLP    0000000180079224     libopus:prefilter_FLP.obj
 0004:00001230       $pdata$0$silk_prefilt_FLP  0000000180079230     libopus:prefilter_FLP.obj
 0004:0000123c       $pdata$1$silk_prefilt_FLP  000000018007923c     libopus:prefilter_FLP.obj
 0004:00001248       $pdata$silk_LP_interpolate_filter_taps 0000000180079248     libopus:LP_variable_cutoff.obj
 0004:00001254       $pdata$1$silk_LP_interpolate_filter_taps 0000000180079254     libopus:LP_variable_cutoff.obj
 0004:00001260       $pdata$3$silk_LP_interpolate_filter_taps 0000000180079260     libopus:LP_variable_cutoff.obj
 0004:0000126c       $pdata$4$silk_LP_interpolate_filter_taps 000000018007926c     libopus:LP_variable_cutoff.obj
 0004:00001278       $pdata$silk_LP_variable_cutoff 0000000180079278     libopus:LP_variable_cutoff.obj
 0004:00001284       $pdata$0$silk_LP_variable_cutoff 0000000180079284     libopus:LP_variable_cutoff.obj
 0004:00001290       $pdata$1$silk_LP_variable_cutoff 0000000180079290     libopus:LP_variable_cutoff.obj
 0004:0000129c       $pdata$silk_VAD_GetSA_Q8_c 000000018007929c     libopus:VAD.obj
 0004:000012a8       $pdata$silk_VAD_GetNoiseLevels 00000001800792a8     libopus:VAD.obj
 0004:000012b4       $pdata$silk_find_pitch_lags_FLP 00000001800792b4     libopus:find_pitch_lags_FLP.obj
 0004:000012c0       $pdata$silk_process_gains_FLP 00000001800792c0     libopus:process_gains_FLP.obj
 0004:000012cc       $pdata$4$silk_process_gains_FLP 00000001800792cc     libopus:process_gains_FLP.obj
 0004:000012d8       $pdata$6$silk_process_gains_FLP 00000001800792d8     libopus:process_gains_FLP.obj
 0004:000012e4       $pdata$7$silk_process_gains_FLP 00000001800792e4     libopus:process_gains_FLP.obj
 0004:000012f0       $pdata$8$silk_process_gains_FLP 00000001800792f0     libopus:process_gains_FLP.obj
 0004:000012fc       $pdata$9$silk_process_gains_FLP 00000001800792fc     libopus:process_gains_FLP.obj
 0004:00001308       $pdata$10$silk_process_gains_FLP 0000000180079308     libopus:process_gains_FLP.obj
 0004:00001314       $pdata$silk_NLSF2A_FLP     0000000180079314     libopus:wrappers_FLP.obj
 0004:00001320       $pdata$silk_NSQ_wrapper_FLP 0000000180079320     libopus:wrappers_FLP.obj
 0004:0000132c       $pdata$silk_quant_LTP_gains_FLP 000000018007932c     libopus:wrappers_FLP.obj
 0004:00001338       $pdata$silk_find_pred_coefs_FLP 0000000180079338     libopus:find_pred_coefs_FLP.obj
 0004:00001344       $pdata$0$silk_find_pred_coefs_FLP 0000000180079344     libopus:find_pred_coefs_FLP.obj
 0004:00001350       $pdata$1$silk_find_pred_coefs_FLP 0000000180079350     libopus:find_pred_coefs_FLP.obj
 0004:0000135c       $pdata$decode_split        000000018007935c     libopus:shell_coder.obj
 0004:00001368       $pdata$0$decode_split      0000000180079368     libopus:shell_coder.obj
 0004:00001374       $pdata$1$decode_split      0000000180079374     libopus:shell_coder.obj
 0004:00001380       $pdata$silk_shell_encoder  0000000180079380     libopus:shell_coder.obj
 0004:0000138c       $pdata$silk_shell_decoder  000000018007938c     libopus:shell_coder.obj
 0004:00001398       $pdata$silk_encode_signs   0000000180079398     libopus:code_signs.obj
 0004:000013a4       $pdata$2$silk_encode_signs 00000001800793a4     libopus:code_signs.obj
 0004:000013b0       $pdata$3$silk_encode_signs 00000001800793b0     libopus:code_signs.obj
 0004:000013bc       $pdata$silk_decode_signs   00000001800793bc     libopus:code_signs.obj
 0004:000013c8       $pdata$2$silk_decode_signs 00000001800793c8     libopus:code_signs.obj
 0004:000013d4       $pdata$3$silk_decode_signs 00000001800793d4     libopus:code_signs.obj
 0004:000013e0       $pdata$silk_stereo_quant_pred 00000001800793e0     libopus:stereo_quant_pred.obj
 0004:000013ec       $pdata$silk_stereo_find_predictor 00000001800793ec     libopus:stereo_find_predictor.obj
 0004:000013f8       $pdata$silk_resampler_private_up2_HQ 00000001800793f8     libopus:resampler_private_up2_HQ.obj
 0004:00001404       $pdata$2$silk_resampler_private_up2_HQ 0000000180079404     libopus:resampler_private_up2_HQ.obj
 0004:00001410       $pdata$3$silk_resampler_private_up2_HQ 0000000180079410     libopus:resampler_private_up2_HQ.obj
 0004:0000141c       $pdata$silk_resampler_private_IIR_FIR_INTERPOL 000000018007941c     libopus:resampler_private_IIR_FIR.obj
 0004:00001428       $pdata$1$silk_resampler_private_IIR_FIR_INTERPOL 0000000180079428     libopus:resampler_private_IIR_FIR.obj
 0004:00001434       $pdata$2$silk_resampler_private_IIR_FIR_INTERPOL 0000000180079434     libopus:resampler_private_IIR_FIR.obj
 0004:00001440       $pdata$silk_resampler_private_IIR_FIR 0000000180079440     libopus:resampler_private_IIR_FIR.obj
 0004:0000144c       $pdata$silk_resampler_private_down_FIR_INTERPOL 000000018007944c     libopus:resampler_private_down_FIR.obj
 0004:00001458       $pdata$silk_resampler_private_down_FIR 0000000180079458     libopus:resampler_private_down_FIR.obj
 0004:00001464       $pdata$ec_laplace_encode   0000000180079464     libopus:laplace.obj
 0004:00001470       $pdata$1$ec_laplace_encode 0000000180079470     libopus:laplace.obj
 0004:0000147c       $pdata$3$ec_laplace_encode 000000018007947c     libopus:laplace.obj
 0004:00001488       $pdata$4$ec_laplace_encode 0000000180079488     libopus:laplace.obj
 0004:00001494       $pdata$5$ec_laplace_encode 0000000180079494     libopus:laplace.obj
 0004:000014a0       $pdata$ec_laplace_decode   00000001800794a0     libopus:laplace.obj
 0004:000014ac       $pdata$silk_INVERSE32_varQ 00000001800794ac     libopus:PLC.obj
 0004:000014b8       $pdata$silk_PLC_update     00000001800794b8     libopus:PLC.obj
 0004:000014c4       $pdata$silk_PLC_conceal    00000001800794c4     libopus:PLC.obj
 0004:000014d0       $pdata$silk_PLC_glue_frames 00000001800794d0     libopus:PLC.obj
 0004:000014dc       $pdata$silk_DIV32_varQ     00000001800794dc     libopus:NSQ_del_dec.obj
 0004:000014dc       $pdata$silk_DIV32_varQ     00000001800794dc     libopus:NSQ.obj
 0004:000014dc       $pdata$silk_DIV32_varQ     00000001800794dc     libopus:decode_core.obj
 0004:000014e8       $pdata$silk_INVERSE32_varQ 00000001800794e8     libopus:NSQ_del_dec.obj
 0004:000014e8       $pdata$silk_INVERSE32_varQ 00000001800794e8     libopus:decode_core.obj
 0004:000014e8       $pdata$silk_INVERSE32_varQ 00000001800794e8     libopus:NSQ.obj
 0004:000014f4       $pdata$silk_decode_core    00000001800794f4     libopus:decode_core.obj
 0004:00001500       $pdata$silk_decode_parameters 0000000180079500     libopus:decode_parameters.obj
 0004:0000150c       $pdata$1$silk_decode_parameters 000000018007950c     libopus:decode_parameters.obj
 0004:00001518       $pdata$2$silk_decode_parameters 0000000180079518     libopus:decode_parameters.obj
 0004:00001524       $pdata$silk_CNG_exc        0000000180079524     libopus:CNG.obj
 0004:00001530       $pdata$1$silk_CNG_exc      0000000180079530     libopus:CNG.obj
 0004:0000153c       $pdata$2$silk_CNG_exc      000000018007953c     libopus:CNG.obj
 0004:00001548       $pdata$silk_CNG            0000000180079548     libopus:CNG.obj
 0004:00001554       $pdata$icwrs               0000000180079554     libopus:cwrs.obj
 0004:00001560       $pdata$cwrsi               0000000180079560     libopus:cwrs.obj
 0004:0000156c       $pdata$4$cwrsi             000000018007956c     libopus:cwrs.obj
 0004:00001578       $pdata$5$cwrsi             0000000180079578     libopus:cwrs.obj
 0004:00001584       $pdata$decode_pulses       0000000180079584     libopus:cwrs.obj
 0004:00001590       $pdata$silk_autocorrelation_FLP 0000000180079590     libopus:autocorrelation_FLP.obj
 0004:0000159c       $pdata$0$silk_autocorrelation_FLP 000000018007959c     libopus:autocorrelation_FLP.obj
 0004:000015a8       $pdata$1$silk_autocorrelation_FLP 00000001800795a8     libopus:autocorrelation_FLP.obj
 0004:000015b4       $pdata$silk_warped_autocorrelation_FLP 00000001800795b4     libopus:warped_autocorrelation_FLP.obj
 0004:000015c0       $pdata$silk_levinsondurbin_FLP 00000001800795c0     libopus:levinsondurbin_FLP.obj
 0004:000015cc       $pdata$3$silk_levinsondurbin_FLP 00000001800795cc     libopus:levinsondurbin_FLP.obj
 0004:000015d8       $pdata$4$silk_levinsondurbin_FLP 00000001800795d8     libopus:levinsondurbin_FLP.obj
 0004:000015e4       $pdata$silk_apply_sine_window_FLP 00000001800795e4     libopus:apply_sine_window_FLP.obj
 0004:000015f0       $pdata$silk_LPC_inverse_pred_gain_FLP 00000001800795f0     libopus:LPC_inv_pred_gain_FLP.obj
 0004:000015fc       $pdata$silk_biquad_alt     00000001800795fc     libopus:biquad_alt.obj
 0004:00001608       $pdata$4$silk_biquad_alt   0000000180079608     libopus:biquad_alt.obj
 0004:00001614       $pdata$5$silk_biquad_alt   0000000180079614     libopus:biquad_alt.obj
 0004:00001620       $pdata$silk_ana_filt_bank_1 0000000180079620     libopus:ana_filt_bank_1.obj
 0004:0000162c       $pdata$2$silk_ana_filt_bank_1 000000018007962c     libopus:ana_filt_bank_1.obj
 0004:00001638       $pdata$3$silk_ana_filt_bank_1 0000000180079638     libopus:ana_filt_bank_1.obj
 0004:00001644       $pdata$silk_schur_FLP      0000000180079644     libopus:schur_FLP.obj
 0004:00001650       $pdata$0$silk_schur_FLP    0000000180079650     libopus:schur_FLP.obj
 0004:0000165c       $pdata$1$silk_schur_FLP    000000018007965c     libopus:schur_FLP.obj
 0004:00001668       $pdata$silk_pitch_analysis_core_FLP 0000000180079668     libopus:pitch_analysis_core_FLP.obj
 0004:00001674       $pdata$0$silk_pitch_analysis_core_FLP 0000000180079674     libopus:pitch_analysis_core_FLP.obj
 0004:00001680       $pdata$4$silk_pitch_analysis_core_FLP 0000000180079680     libopus:pitch_analysis_core_FLP.obj
 0004:0000168c       $pdata$6$silk_pitch_analysis_core_FLP 000000018007968c     libopus:pitch_analysis_core_FLP.obj
 0004:00001698       $pdata$7$silk_pitch_analysis_core_FLP 0000000180079698     libopus:pitch_analysis_core_FLP.obj
 0004:000016a4       $pdata$8$silk_pitch_analysis_core_FLP 00000001800796a4     libopus:pitch_analysis_core_FLP.obj
 0004:000016b0       $pdata$9$silk_pitch_analysis_core_FLP 00000001800796b0     libopus:pitch_analysis_core_FLP.obj
 0004:000016bc       $pdata$10$silk_pitch_analysis_core_FLP 00000001800796bc     libopus:pitch_analysis_core_FLP.obj
 0004:000016c8       $pdata$11$silk_pitch_analysis_core_FLP 00000001800796c8     libopus:pitch_analysis_core_FLP.obj
 0004:000016d4       $pdata$silk_P_Ana_calc_corr_st3 00000001800796d4     libopus:pitch_analysis_core_FLP.obj
 0004:000016e0       $pdata$silk_P_Ana_calc_energy_st3 00000001800796e0     libopus:pitch_analysis_core_FLP.obj
 0004:000016ec       $pdata$2$silk_P_Ana_calc_energy_st3 00000001800796ec     libopus:pitch_analysis_core_FLP.obj
 0004:000016f8       $pdata$3$silk_P_Ana_calc_energy_st3 00000001800796f8     libopus:pitch_analysis_core_FLP.obj
 0004:00001704       $pdata$silk_LPC_analysis_filter16_FLP 0000000180079704     libopus:LPC_analysis_filter_FLP.obj
 0004:00001710       $pdata$silk_LPC_analysis_filter12_FLP 0000000180079710     libopus:LPC_analysis_filter_FLP.obj
 0004:0000171c       $pdata$silk_LPC_analysis_filter10_FLP 000000018007971c     libopus:LPC_analysis_filter_FLP.obj
 0004:00001728       $pdata$silk_LPC_analysis_filter8_FLP 0000000180079728     libopus:LPC_analysis_filter_FLP.obj
 0004:00001734       $pdata$silk_LPC_analysis_filter6_FLP 0000000180079734     libopus:LPC_analysis_filter_FLP.obj
 0004:00001740       $pdata$silk_k2a_FLP        0000000180079740     libopus:k2a_FLP.obj
 0004:0000174c       $pdata$4$silk_k2a_FLP      000000018007974c     libopus:k2a_FLP.obj
 0004:00001758       $pdata$5$silk_k2a_FLP      0000000180079758     libopus:k2a_FLP.obj
 0004:00001764       $pdata$silk_process_NLSFs  0000000180079764     libopus:process_NLSFs.obj
 0004:00001770       $pdata$2$silk_process_NLSFs 0000000180079770     libopus:process_NLSFs.obj
 0004:0000177c       $pdata$3$silk_process_NLSFs 000000018007977c     libopus:process_NLSFs.obj
 0004:00001788       $pdata$silk_quant_LTP_gains 0000000180079788     libopus:quant_LTP_gains.obj
 0004:00001794       $pdata$silk_NSQ_c          0000000180079794     libopus:NSQ.obj
 0004:000017a0       $pdata$silk_noise_shape_quantizer 00000001800797a0     libopus:NSQ.obj
 0004:000017ac       $pdata$5$silk_noise_shape_quantizer 00000001800797ac     libopus:NSQ.obj
 0004:000017b8       $pdata$6$silk_noise_shape_quantizer 00000001800797b8     libopus:NSQ.obj
 0004:000017c4       $pdata$silk_nsq_scale_states 00000001800797c4     libopus:NSQ.obj
 0004:000017d0       $pdata$silk_A2NLSF_init    00000001800797d0     libopus:A2NLSF.obj
 0004:000017dc       $pdata$0$silk_A2NLSF_init  00000001800797dc     libopus:A2NLSF.obj
 0004:000017e8       $pdata$2$silk_A2NLSF_init  00000001800797e8     libopus:A2NLSF.obj
 0004:000017f4       $pdata$4$silk_A2NLSF_init  00000001800797f4     libopus:A2NLSF.obj
 0004:00001800       $pdata$5$silk_A2NLSF_init  0000000180079800     libopus:A2NLSF.obj
 0004:0000180c       $pdata$6$silk_A2NLSF_init  000000018007980c     libopus:A2NLSF.obj
 0004:00001818       $pdata$7$silk_A2NLSF_init  0000000180079818     libopus:A2NLSF.obj
 0004:00001824       $pdata$8$silk_A2NLSF_init  0000000180079824     libopus:A2NLSF.obj
 0004:00001830       $pdata$silk_A2NLSF         0000000180079830     libopus:A2NLSF.obj
 0004:0000183c       $pdata$silk_NSQ_del_dec_c  000000018007983c     libopus:NSQ_del_dec.obj
 0004:00001848       $pdata$silk_noise_shape_quantizer_del_dec 0000000180079848     libopus:NSQ_del_dec.obj
 0004:00001854       $pdata$silk_nsq_del_dec_scale_states 0000000180079854     libopus:NSQ_del_dec.obj
 0004:00001860       $pdata$1$silk_nsq_del_dec_scale_states 0000000180079860     libopus:NSQ_del_dec.obj
 0004:0000186c       $pdata$2$silk_nsq_del_dec_scale_states 000000018007986c     libopus:NSQ_del_dec.obj
 0004:00001878       $pdata$silk_NLSF2A         0000000180079878     libopus:NLSF2A.obj
 0004:00001884       $pdata$0$silk_NLSF2A       0000000180079884     libopus:NLSF2A.obj
 0004:00001890       $pdata$silk_scale_copy_vector_FLP 0000000180079890     libopus:scale_copy_vector_FLP.obj
 0004:0000189c       $pdata$1$silk_scale_copy_vector_FLP 000000018007989c     libopus:scale_copy_vector_FLP.obj
 0004:000018a8       $pdata$2$silk_scale_copy_vector_FLP 00000001800798a8     libopus:scale_copy_vector_FLP.obj
 0004:000018b4       $pdata$3$silk_scale_copy_vector_FLP 00000001800798b4     libopus:scale_copy_vector_FLP.obj
 0004:000018c0       $pdata$4$silk_scale_copy_vector_FLP 00000001800798c0     libopus:scale_copy_vector_FLP.obj
 0004:000018cc       $pdata$silk_LTP_analysis_filter_FLP 00000001800798cc     libopus:LTP_analysis_filter_FLP.obj
 0004:000018d8       $pdata$5$silk_LTP_analysis_filter_FLP 00000001800798d8     libopus:LTP_analysis_filter_FLP.obj
 0004:000018e4       $pdata$6$silk_LTP_analysis_filter_FLP 00000001800798e4     libopus:LTP_analysis_filter_FLP.obj
 0004:000018f0       $pdata$silk_find_LPC_FLP   00000001800798f0     libopus:find_LPC_FLP.obj
 0004:000018fc       $pdata$3$silk_find_LPC_FLP 00000001800798fc     libopus:find_LPC_FLP.obj
 0004:00001908       $pdata$5$silk_find_LPC_FLP 0000000180079908     libopus:find_LPC_FLP.obj
 0004:00001914       $pdata$6$silk_find_LPC_FLP 0000000180079914     libopus:find_LPC_FLP.obj
 0004:00001920       $pdata$7$silk_find_LPC_FLP 0000000180079920     libopus:find_LPC_FLP.obj
 0004:0000192c       $pdata$silk_residual_energy_covar_FLP 000000018007992c     libopus:residual_energy_FLP.obj
 0004:00001938       $pdata$silk_residual_energy_FLP 0000000180079938     libopus:residual_energy_FLP.obj
 0004:00001944       $pdata$silk_find_LTP_FLP   0000000180079944     libopus:find_LTP_FLP.obj
 0004:00001950       $pdata$2$silk_find_LTP_FLP 0000000180079950     libopus:find_LTP_FLP.obj
 0004:0000195c       $pdata$4$silk_find_LTP_FLP 000000018007995c     libopus:find_LTP_FLP.obj
 0004:00001968       $pdata$5$silk_find_LTP_FLP 0000000180079968     libopus:find_LTP_FLP.obj
 0004:00001974       $pdata$6$silk_find_LTP_FLP 0000000180079974     libopus:find_LTP_FLP.obj
 0004:00001980       $pdata$7$silk_find_LTP_FLP 0000000180079980     libopus:find_LTP_FLP.obj
 0004:0000198c       $pdata$silk_sum_sqr_shift  000000018007998c     libopus:sum_sqr_shift.obj
 0004:00001998       $pdata$silk_inner_prod_aligned_scale 0000000180079998     libopus:inner_prod_aligned.obj
 0004:000019a4       $pdata$silk_INVERSE32_varQ 00000001800799a4     libopus:LPC_inv_pred_gain.obj
 0004:000019b0       $pdata$silk_LPC_inverse_pred_gain 00000001800799b0     libopus:LPC_inv_pred_gain.obj
 0004:000019bc       $pdata$5$silk_LPC_inverse_pred_gain 00000001800799bc     libopus:LPC_inv_pred_gain.obj
 0004:000019c8       $pdata$6$silk_LPC_inverse_pred_gain 00000001800799c8     libopus:LPC_inv_pred_gain.obj
 0004:000019d4       $pdata$silk_LPC_analysis_filter 00000001800799d4     libopus:LPC_analysis_filter.obj
 0004:000019e0       $pdata$2$silk_LPC_analysis_filter 00000001800799e0     libopus:LPC_analysis_filter.obj
 0004:000019ec       $pdata$3$silk_LPC_analysis_filter 00000001800799ec     libopus:LPC_analysis_filter.obj
 0004:000019f8       $pdata$silk_NLSF_decode    00000001800799f8     libopus:NLSF_decode.obj
 0004:00001a04       $pdata$1$silk_NLSF_decode  0000000180079a04     libopus:NLSF_decode.obj
 0004:00001a10       $pdata$2$silk_NLSF_decode  0000000180079a10     libopus:NLSF_decode.obj
 0004:00001a1c       $pdata$3$silk_NLSF_decode  0000000180079a1c     libopus:NLSF_decode.obj
 0004:00001a28       $pdata$4$silk_NLSF_decode  0000000180079a28     libopus:NLSF_decode.obj
 0004:00001a34       $pdata$silk_decode_pitch   0000000180079a34     libopus:decode_pitch.obj
 0004:00001a40       $pdata$silk_insertion_sort_decreasing_FLP 0000000180079a40     libopus:sort_FLP.obj
 0004:00001a4c       $pdata$1$silk_insertion_sort_decreasing_FLP 0000000180079a4c     libopus:sort_FLP.obj
 0004:00001a58       $pdata$2$silk_insertion_sort_decreasing_FLP 0000000180079a58     libopus:sort_FLP.obj
 0004:00001a64       $pdata$silk_resampler_down2_3 0000000180079a64     libopus:resampler_down2_3.obj
 0004:00001a70       $pdata$silk_NLSF_encode    0000000180079a70     libopus:NLSF_encode.obj
 0004:00001a7c       $pdata$silk_NLSF_VQ_weights_laroia 0000000180079a7c     libopus:NLSF_VQ_weights_laroia.obj
 0004:00001a88       $pdata$2$silk_NLSF_VQ_weights_laroia 0000000180079a88     libopus:NLSF_VQ_weights_laroia.obj
 0004:00001a94       $pdata$3$silk_NLSF_VQ_weights_laroia 0000000180079a94     libopus:NLSF_VQ_weights_laroia.obj
 0004:00001aa0       $pdata$silk_interpolate    0000000180079aa0     libopus:interpolate.obj
 0004:00001aac       $pdata$0$silk_interpolate  0000000180079aac     libopus:interpolate.obj
 0004:00001ab8       $pdata$1$silk_interpolate  0000000180079ab8     libopus:interpolate.obj
 0004:00001ac4       $pdata$silk_VQ_WMat_EC_c   0000000180079ac4     libopus:VQ_WMat_EC.obj
 0004:00001ad0       $pdata$6$silk_VQ_WMat_EC_c 0000000180079ad0     libopus:VQ_WMat_EC.obj
 0004:00001adc       $pdata$7$silk_VQ_WMat_EC_c 0000000180079adc     libopus:VQ_WMat_EC.obj
 0004:00001ae8       $pdata$silk_bwexpander_32  0000000180079ae8     libopus:bwexpander_32.obj
 0004:00001af4       $pdata$0$silk_bwexpander_32 0000000180079af4     libopus:bwexpander_32.obj
 0004:00001b00       $pdata$1$silk_bwexpander_32 0000000180079b00     libopus:bwexpander_32.obj
 0004:00001b0c       $pdata$silk_burg_modified_FLP 0000000180079b0c     libopus:burg_modified_FLP.obj
 0004:00001b18       $pdata$3$silk_burg_modified_FLP 0000000180079b18     libopus:burg_modified_FLP.obj
 0004:00001b24       $pdata$7$silk_burg_modified_FLP 0000000180079b24     libopus:burg_modified_FLP.obj
 0004:00001b30       $pdata$8$silk_burg_modified_FLP 0000000180079b30     libopus:burg_modified_FLP.obj
 0004:00001b3c       $pdata$9$silk_burg_modified_FLP 0000000180079b3c     libopus:burg_modified_FLP.obj
 0004:00001b48       $pdata$silk_corrVector_FLP 0000000180079b48     libopus:corrMatrix_FLP.obj
 0004:00001b54       $pdata$silk_corrMatrix_FLP 0000000180079b54     libopus:corrMatrix_FLP.obj
 0004:00001b60       $pdata$silk_SolveWithUpperTriangularFromLowerWdiagOnes_FLP 0000000180079b60     libopus:solve_LS_FLP.obj
 0004:00001b6c       $pdata$silk_LDL_FLP        0000000180079b6c     libopus:solve_LS_FLP.obj
 0004:00001b78       $pdata$silk_NLSF_stabilize 0000000180079b78     libopus:NLSF_stabilize.obj
 0004:00001b84       $pdata$silk_NLSF_VQ        0000000180079b84     libopus:NLSF_VQ.obj
 0004:00001b90       $pdata$silk_insertion_sort_increasing 0000000180079b90     libopus:sort.obj
 0004:00001b9c       $pdata$1$silk_insertion_sort_increasing 0000000180079b9c     libopus:sort.obj
 0004:00001ba8       $pdata$2$silk_insertion_sort_increasing 0000000180079ba8     libopus:sort.obj
 0004:00001bb4       $pdata$silk_NLSF_del_dec_quant 0000000180079bb4     libopus:NLSF_del_dec_quant.obj
 0004:00001bd8       $pdata$??2@YAPEAX_K@Z      0000000180079bd8     LIBCMT:new_scalar.obj
 0004:00001be4       $pdata$?dllmain_crt_dispatch@@YAHQEAUHINSTANCE__@@KQEAX@Z 0000000180079be4     LIBCMT:dll_dllmain.obj
 0004:00001bf0       $pdata$?dllmain_crt_process_attach@@YAHQEAUHINSTANCE__@@QEAX@Z 0000000180079bf0     LIBCMT:dll_dllmain.obj
 0004:00001bfc       $pdata$?dllmain_crt_process_detach@@YAH_N@Z 0000000180079bfc     LIBCMT:dll_dllmain.obj
 0004:00001c08       $pdata$?dllmain_dispatch@@YAHQEAUHINSTANCE__@@KQEAX@Z 0000000180079c08     LIBCMT:dll_dllmain.obj
 0004:00001c14       $pdata$?dllmain_raw@@YAHQEAUHINSTANCE__@@KQEAX@Z 0000000180079c14     LIBCMT:dll_dllmain.obj
 0004:00001c20       $pdata$_DllMainCRTStartup  0000000180079c20     LIBCMT:dll_dllmain.obj
 0004:00001c2c       $pdata$__raise_securityfailure 0000000180079c2c     LIBCMT:gs_report.obj
 0004:00001c38       $pdata$__report_gsfailure  0000000180079c38     LIBCMT:gs_report.obj
 0004:00001c44       $pdata$__report_rangecheckfailure 0000000180079c44     LIBCMT:gs_report.obj
 0004:00001c50       $pdata$__report_securityfailure 0000000180079c50     LIBCMT:gs_report.obj
 0004:00001c5c       $pdata$capture_current_context 0000000180079c5c     LIBCMT:gs_report.obj
 0004:00001c68       $pdata$capture_previous_context 0000000180079c68     LIBCMT:gs_report.obj
 0004:00001c74       $pdata$??0bad_alloc@std@@QEAA@AEBV01@@Z 0000000180079c74     LIBCMT:throw_bad_alloc.obj
 0004:00001c80       $pdata$??0bad_array_new_length@std@@QEAA@AEBV01@@Z 0000000180079c80     LIBCMT:throw_bad_alloc.obj
 0004:00001c8c       $pdata$??0exception@std@@QEAA@AEBV01@@Z 0000000180079c8c     LIBCMT:throw_bad_alloc.obj
 0004:00001c98       $pdata$??_Gexception@std@@UEAAPEAXI@Z 0000000180079c98     LIBCMT:throw_bad_alloc.obj
 0004:00001c98       $pdata$??_Gbad_alloc@std@@UEAAPEAXI@Z 0000000180079c98     LIBCMT:throw_bad_alloc.obj
 0004:00001c98       $pdata$??_Gbad_array_new_length@std@@UEAAPEAXI@Z 0000000180079c98     LIBCMT:throw_bad_alloc.obj
 0004:00001ca4       $pdata$?__scrt_throw_std_bad_alloc@@YAXXZ 0000000180079ca4     LIBCMT:throw_bad_alloc.obj
 0004:00001cb0       $pdata$?__scrt_throw_std_bad_array_new_length@@YAXXZ 0000000180079cb0     LIBCMT:throw_bad_alloc.obj
 0004:00001cbc       $pdata$__scrt_acquire_startup_lock 0000000180079cbc     LIBCMT:utility.obj
 0004:00001cc8       $pdata$__scrt_dllmain_after_initialize_c 0000000180079cc8     LIBCMT:utility.obj
 0004:00001cd4       $pdata$__scrt_dllmain_before_initialize_c 0000000180079cd4     LIBCMT:utility.obj
 0004:00001ce0       $pdata$__scrt_dllmain_crt_thread_attach 0000000180079ce0     LIBCMT:utility.obj
 0004:00001cec       $pdata$__scrt_dllmain_crt_thread_detach 0000000180079cec     LIBCMT:utility.obj
 0004:00001cf8       $pdata$__scrt_dllmain_exception_filter 0000000180079cf8     LIBCMT:utility.obj
 0004:00001d04       $pdata$__scrt_dllmain_uninitialize_c 0000000180079d04     LIBCMT:utility.obj
 0004:00001d10       $pdata$__scrt_dllmain_uninitialize_critical 0000000180079d10     LIBCMT:utility.obj
 0004:00001d1c       $pdata$__scrt_initialize_crt 0000000180079d1c     LIBCMT:utility.obj
 0004:00001d28       $pdata$__scrt_initialize_onexit_tables 0000000180079d28     LIBCMT:utility.obj
 0004:00001d34       $pdata$__scrt_is_nonwritable_in_current_image 0000000180079d34     LIBCMT:utility.obj
 0004:00001d40       $pdata$__scrt_release_startup_lock 0000000180079d40     LIBCMT:utility.obj
 0004:00001d4c       $pdata$__scrt_uninitialize_crt 0000000180079d4c     LIBCMT:utility.obj
 0004:00001d58       $pdata$_onexit             0000000180079d58     LIBCMT:utility.obj
 0004:00001d64       $pdata$atexit              0000000180079d64     LIBCMT:utility.obj
 0004:00001d70       $pdata$__security_init_cookie 0000000180079d70     LIBCMT:gs_support.obj
 0004:00001d7c       $pdata$__scrt_initialize_default_local_stdio_options 0000000180079d7c     LIBCMT:default_local_stdio_options.obj
 0004:00001d88       $pdata$__scrt_fastfail     0000000180079d88     LIBCMT:utility_desktop.obj
 0004:00001d94       $pdata$_RTC_Initialize     0000000180079d94     LIBCMT:_initsect_.obj
 0004:00001da0       $pdata$_RTC_Terminate      0000000180079da0     LIBCMT:_initsect_.obj
 0004:00001dac       $pdata$??_Gtype_info@@UEAAPEAXI@Z 0000000180079dac     LIBCMT:std_type_info_static.obj
 0004:00001db8       $pdata$__isa_available_init 0000000180079db8     LIBCMT:_cpu_disp_.obj
 0004:00001dd0       $pdata$__telemetry_main_invoke_trigger 0000000180079dd0     libvcruntime:telemetry.obj
 0004:00001ddc       $pdata$__telemetry_main_return_trigger 0000000180079ddc     libvcruntime:telemetry.obj
 0004:00001de8       $pdata$__vcrt_uninitialize_telemetry_provider 0000000180079de8     libvcruntime:telemetry.obj
 0004:00001df4       $pdata$__C_specific_handler 0000000180079df4     libvcruntime:_chandler_.obj
 0004:00001e00       $pdata$__std_exception_copy 0000000180079e00     libvcruntime:std_exception.obj
 0004:00001e0c       $pdata$__std_exception_destroy 0000000180079e0c     libvcruntime:std_exception.obj
 0004:00001e18       $pdata$_CxxThrowException  0000000180079e18     libvcruntime:throw.obj
 0004:00001e24       $pdata$__vcrt_initialize   0000000180079e24     libvcruntime:initialization.obj
 0004:00001e30       $pdata$__vcrt_thread_attach 0000000180079e30     libvcruntime:initialization.obj
 0004:00001e3c       $pdata$__vcrt_thread_detach 0000000180079e3c     libvcruntime:initialization.obj
 0004:00001e48       $pdata$__vcrt_uninitialize 0000000180079e48     libvcruntime:initialization.obj
 0004:00001e54       $pdata$__vcrt_uninitialize_critical 0000000180079e54     libvcruntime:initialization.obj
 0004:00001e60       $pdata$__std_type_info_destroy_list 0000000180079e60     libvcruntime:std_type_info.obj
 0004:00001e78       $pdata$?try_get_function@@YAPEAXW4function_id@?A0x61ce2399@@QEBDQEBW4module_id@2@2@Z 0000000180079e78     libvcruntime:winapi_downlevel.obj
 0004:00001e84       $pdata$__vcrt_EventRegister 0000000180079e84     libvcruntime:winapi_downlevel.obj
 0004:00001e90       $pdata$__vcrt_EventSetInformation 0000000180079e90     libvcruntime:winapi_downlevel.obj
 0004:00001e9c       $pdata$__vcrt_EventUnregister 0000000180079e9c     libvcruntime:winapi_downlevel.obj
 0004:00001ea8       $pdata$__vcrt_EventWriteTransfer 0000000180079ea8     libvcruntime:winapi_downlevel.obj
 0004:00001eb4       $pdata$__vcrt_FlsAlloc     0000000180079eb4     libvcruntime:winapi_downlevel.obj
 0004:00001ec0       $pdata$__vcrt_FlsFree      0000000180079ec0     libvcruntime:winapi_downlevel.obj
 0004:00001ecc       $pdata$__vcrt_FlsGetValue  0000000180079ecc     libvcruntime:winapi_downlevel.obj
 0004:00001ed8       $pdata$__vcrt_FlsSetValue  0000000180079ed8     libvcruntime:winapi_downlevel.obj
 0004:00001ee4       $pdata$__vcrt_InitializeCriticalSectionEx 0000000180079ee4     libvcruntime:winapi_downlevel.obj
 0004:00001ef0       $pdata$__vcrt_initialize_winapi_thunks 0000000180079ef0     libvcruntime:winapi_downlevel.obj
 0004:00001efc       $pdata$__vcrt_uninitialize_winapi_thunks 0000000180079efc     libvcruntime:winapi_downlevel.obj
 0004:00001f38       $pdata$__vcrt_freefls      0000000180079f38     libvcruntime:per_thread_data.obj
 0004:00001f44       $pdata$__vcrt_freeptd      0000000180079f44     libvcruntime:per_thread_data.obj
 0004:00001f50       $pdata$__vcrt_getptd_noexit 0000000180079f50     libvcruntime:per_thread_data.obj
 0004:00001f5c       $pdata$__vcrt_initialize_ptd 0000000180079f5c     libvcruntime:per_thread_data.obj
 0004:00001f68       $pdata$__vcrt_uninitialize_ptd 0000000180079f68     libvcruntime:per_thread_data.obj
 0004:00001f74       $pdata$__vcrt_initialize_locks 0000000180079f74     libvcruntime:locks.obj
 0004:00001f80       $pdata$__vcrt_uninitialize_locks 0000000180079f80     libvcruntime:locks.obj
 0004:00001f8c       $pdata$??$common_assert_to_message_box@_W@@YAXQEB_W0IQEAX@Z 0000000180079f8c     libucrt:assert.obj
 0004:00001f98       $pdata$??$common_assert_to_message_box_build_string@_W@@YAXQEA_W_KQEB_W2IQEAX@Z 0000000180079f98     libucrt:assert.obj
 0004:00001fa4       $pdata$??$common_assert_to_stderr@_W@@YAXQEB_W0I@Z 0000000180079fa4     libucrt:assert.obj
 0004:00001fb0       $pdata$_wassert            0000000180079fb0     libucrt:assert.obj
 0004:00001fbc       $pdata$fwprintf            0000000180079fbc     libucrt:assert.obj
 0004:00001fc8       $pdata$swprintf            0000000180079fc8     libucrt:assert.obj
 0004:00001fd4       $pdata$??0_LocaleUpdate@@QEAA@QEAU__crt_locale_pointers@@@Z 0000000180079fd4     libucrt:stricmp.obj
 0004:00001fe0       $pdata$_stricmp            0000000180079fe0     libucrt:stricmp.obj
 0004:00001fec       $pdata$_stricmp_l          0000000180079fec     libucrt:stricmp.obj
 0004:00001ff8       $pdata$_callnewh           0000000180079ff8     libucrt:new_handler.obj
 0004:00002004       $pdata$_query_new_handler  000000018007a004     libucrt:new_handler.obj
 0004:00002010       $pdata$_initterm           000000018007a010     libucrt:initterm.obj
 0004:0000201c       $pdata$_initterm_e         000000018007a01c     libucrt:initterm.obj
 0004:00002028       $pdata$_seh_filter_exe     000000018007a028     libucrt:exception_filter.obj
 0004:00002034       $pdata$?common_exit@@YAXHW4_crt_exit_cleanup_mode@@W4_crt_exit_return_mode@@@Z 000000018007a034     libucrt:exit.obj
 0004:00002040       $pdata$?exit_or_terminate_process@@YAXI@Z 000000018007a040     libucrt:exit.obj
 0004:0000204c       $pdata$?try_cor_exit_process@@YAXI@Z 000000018007a04c     libucrt:exit.obj
 0004:00002058       $pdata$??$common_initialize_environment_nolock@D@@YAHXZ 000000018007a058     libucrt:environment_initialization.obj
 0004:00002064       $pdata$??$create_environment@D@@YAQEAPEADQEAD@Z 000000018007a064     libucrt:environment_initialization.obj
 0004:00002070       $pdata$??$free_environment@_W@@YAXQEAPEA_W@Z 000000018007a070     libucrt:environment_initialization.obj
 0004:00002070       $pdata$??$free_environment@D@@YAXQEAPEAD@Z 000000018007a070     libucrt:environment_initialization.obj
 0004:0000207c       $pdata$??$uninitialize_environment_internal@D@@YAXAEAPEAPEAD@Z 000000018007a07c     libucrt:environment_initialization.obj
 0004:00002088       $pdata$??$uninitialize_environment_internal@_W@@YAXAEAPEAPEA_W@Z 000000018007a088     libucrt:environment_initialization.obj
 0004:00002094       $pdata$__dcrt_uninitialize_environments_nolock 000000018007a094     libucrt:environment_initialization.obj
 0004:000020a0       $pdata$??$?RV<lambda_b8c45f8f788dd370798f47cfe8ac3a86>@@AEAV<lambda_4e60a939b0d047cfe11ddc22648dfba9>@@V<lambda_332c3edc96d0294ec56c57d38c1cdfd5>@@@?$__crt_seh_guarded_call@H@@QEAAH$$QEAV<lambda_b8c45f8f788dd370798f47cfe8ac3a86>@@AEAV<lambda_4e60a939b0d047cfe11ddc22648dfba9>@@$$QEAV<lambda_332c3edc96d0294ec56c57d38c1cdfd5>@@@Z 000000018007a0a0     libucrt:onexit.obj
 0004:000020ac       $pdata$??$?RV<lambda_e24bbb7b643b32fcea6fa61b31d4c984>@@AEAV<lambda_275893d493268fdec8709772e3fcec0e>@@V<lambda_9d71df4d7cf3f480f8d633942495c3b0>@@@?$__crt_seh_guarded_call@H@@QEAAH$$QEAV<lambda_e24bbb7b643b32fcea6fa61b31d4c984>@@AEAV<lambda_275893d493268fdec8709772e3fcec0e>@@$$QEAV<lambda_9d71df4d7cf3f480f8d633942495c3b0>@@@Z 000000018007a0ac     libucrt:onexit.obj
 0004:000020b8       $pdata$??R<lambda_4e60a939b0d047cfe11ddc22648dfba9>@@QEBAHXZ 000000018007a0b8     libucrt:onexit.obj
 0004:000020c4       $pdata$_execute_onexit_table 000000018007a0c4     libucrt:onexit.obj
 0004:000020d0       $pdata$_register_onexit_function 000000018007a0d0     libucrt:onexit.obj
 0004:000020dc       $pdata$initialize_c        000000018007a0dc     libucrt:initialization.obj
 0004:000020e8       $pdata$uninitialize_environment 000000018007a0e8     libucrt:initialization.obj
 0004:000020f4       $pdata$initialize_pointers 000000018007a0f4     libucrt:initialization.obj
 0004:00002100       $pdata$uninitialize_allocated_memory 000000018007a100     libucrt:initialization.obj
 0004:0000210c       $pdata$__acrt_thread_attach 000000018007a10c     libucrt:initialization.obj
 0004:00002118       $pdata$__acrt_thread_detach 000000018007a118     libucrt:initialization.obj
 0004:00002124       $pdata$__acrt_uninitialize_critical 000000018007a124     libucrt:initialization.obj
 0004:00002130       $pdata$terminate           000000018007a130     libucrt:terminate.obj
 0004:0000213c       $pdata$strcpy_s            000000018007a13c     libucrt:strcpy_s.obj
 0004:00002148       $pdata$_free_base          000000018007a148     libucrt:free_base.obj
 0004:00002154       $pdata$_malloc_base        000000018007a154     libucrt:malloc_base.obj
 0004:00002160       $pdata$abort               000000018007a160     libucrt:abort.obj
 0004:0000216c       $pdata$_calloc_base        000000018007a16c     libucrt:calloc_base.obj
 0004:00002178       $pdata$??$?RV<lambda_7b91131dde12e1c3dfc74ff76b3f2eac>@@AEAV<lambda_dd75445284c072d0bd3768540cc698fa>@@V<lambda_16bc4ecb55b4718497c16bceaea2ceaf>@@@?$__crt_seh_guarded_call@H@@QEAAH$$QEAV<lambda_7b91131dde12e1c3dfc74ff76b3f2eac>@@AEAV<lambda_dd75445284c072d0bd3768540cc698fa>@@$$QEAV<lambda_16bc4ecb55b4718497c16bceaea2ceaf>@@@Z 000000018007a178     libucrt:output.obj
 0004:00002184       $pdata$??$ensure_buffer_is_big_enough@D@formatting_buffer@__crt_stdio_output@@QEAA_N_K@Z 000000018007a184     libucrt:output.obj
 0004:00002190       $pdata$??$type_case_integer_parse_into_buffer@I@?$output_processor@_WV?$stream_output_adapter@_W@__crt_stdio_output@@V?$standard_base@_WV?$stream_output_adapter@_W@__crt_stdio_output@@@2@@__crt_stdio_output@@AEAAXII_N@Z 000000018007a190     libucrt:output.obj
 0004:00002190       $pdata$??$type_case_integer_parse_into_buffer@I@?$output_processor@_WV?$string_output_adapter@_W@__crt_stdio_output@@V?$standard_base@_WV?$string_output_adapter@_W@__crt_stdio_output@@@2@@__crt_stdio_output@@AEAAXII_N@Z 000000018007a190     libucrt:output.obj
 0004:0000219c       $pdata$??$type_case_integer_parse_into_buffer@_K@?$output_processor@_WV?$stream_output_adapter@_W@__crt_stdio_output@@V?$standard_base@_WV?$stream_output_adapter@_W@__crt_stdio_output@@@2@@__crt_stdio_output@@AEAAX_KI_N@Z 000000018007a19c     libucrt:output.obj
 0004:0000219c       $pdata$??$type_case_integer_parse_into_buffer@_K@?$output_processor@_WV?$string_output_adapter@_W@__crt_stdio_output@@V?$standard_base@_WV?$string_output_adapter@_W@__crt_stdio_output@@@2@@__crt_stdio_output@@AEAAX_KI_N@Z 000000018007a19c     libucrt:output.obj
 0004:000021a8       $pdata$??$write_multiple_characters@V?$stream_output_adapter@_W@__crt_stdio_output@@D@__crt_stdio_output@@YAXAEBV?$stream_output_adapter@_W@0@DHQEAH@Z 000000018007a1a8     libucrt:output.obj
 0004:000021b4       $pdata$??$write_multiple_characters@V?$string_output_adapter@_W@__crt_stdio_output@@D@__crt_stdio_output@@YAXAEBV?$string_output_adapter@_W@0@DHQEAH@Z 000000018007a1b4     libucrt:output.obj
 0004:000021c0       $pdata$??0?$output_processor@_WV?$stream_output_adapter@_W@__crt_stdio_output@@V?$standard_base@_WV?$stream_output_adapter@_W@__crt_stdio_output@@@2@@__crt_stdio_output@@QEAA@AEBV?$stream_output_adapter@_W@1@_KQEB_WQEAU__crt_locale_pointers@@QEAD@Z 000000018007a1c0     libucrt:output.obj
 0004:000021c0       $pdata$??0?$output_processor@_WV?$string_output_adapter@_W@__crt_stdio_output@@V?$standard_base@_WV?$string_output_adapter@_W@__crt_stdio_output@@@2@@__crt_stdio_output@@QEAA@AEBV?$string_output_adapter@_W@1@_KQEB_WQEAU__crt_locale_pointers@@QEAD@Z 000000018007a1c0     libucrt:output.obj
 0004:000021cc       $pdata$??R<lambda_dd75445284c072d0bd3768540cc698fa>@@QEBAHXZ 000000018007a1cc     libucrt:output.obj
 0004:000021d8       $pdata$?force_decimal_point@__crt_stdio_output@@YAXPEADQEAU__crt_locale_pointers@@@Z 000000018007a1d8     libucrt:output.obj
 0004:000021e4       $pdata$?parse_int_from_format_string@?$output_processor@_WV?$string_output_adapter@_W@__crt_stdio_output@@V?$standard_base@_WV?$string_output_adapter@_W@__crt_stdio_output@@@2@@__crt_stdio_output@@AEAA_NQEAH@Z 000000018007a1e4     libucrt:output.obj
 0004:000021e4       $pdata$?parse_int_from_format_string@?$output_processor@_WV?$stream_output_adapter@_W@__crt_stdio_output@@V?$standard_base@_WV?$stream_output_adapter@_W@__crt_stdio_output@@@2@@__crt_stdio_output@@AEAA_NQEAH@Z 000000018007a1e4     libucrt:output.obj
 0004:000021f0       $pdata$?process@?$output_processor@_WV?$stream_output_adapter@_W@__crt_stdio_output@@V?$standard_base@_WV?$stream_output_adapter@_W@__crt_stdio_output@@@2@@__crt_stdio_output@@QEAAHXZ 000000018007a1f0     libucrt:output.obj
 0004:000021fc       $pdata$?process@?$output_processor@_WV?$string_output_adapter@_W@__crt_stdio_output@@V?$standard_base@_WV?$string_output_adapter@_W@__crt_stdio_output@@@2@@__crt_stdio_output@@QEAAHXZ 000000018007a1fc     libucrt:output.obj
 0004:00002208       $pdata$?state_case_size@?$output_processor@_WV?$stream_output_adapter@_W@__crt_stdio_output@@V?$standard_base@_WV?$stream_output_adapter@_W@__crt_stdio_output@@@2@@__crt_stdio_output@@AEAA_NXZ 000000018007a208     libucrt:output.obj
 0004:00002214       $pdata$?state_case_size@?$output_processor@_WV?$string_output_adapter@_W@__crt_stdio_output@@V?$standard_base@_WV?$string_output_adapter@_W@__crt_stdio_output@@@2@@__crt_stdio_output@@AEAA_NXZ 000000018007a214     libucrt:output.obj
 0004:00002220       $pdata$?state_case_type@?$output_processor@_WV?$stream_output_adapter@_W@__crt_stdio_output@@V?$standard_base@_WV?$stream_output_adapter@_W@__crt_stdio_output@@@2@@__crt_stdio_output@@AEAA_NXZ 000000018007a220     libucrt:output.obj
 0004:0000222c       $pdata$?state_case_type@?$output_processor@_WV?$string_output_adapter@_W@__crt_stdio_output@@V?$standard_base@_WV?$string_output_adapter@_W@__crt_stdio_output@@@2@@__crt_stdio_output@@AEAA_NXZ 000000018007a22c     libucrt:output.obj
 0004:00002238       $pdata$?type_case_Z@?$output_processor@_WV?$string_output_adapter@_W@__crt_stdio_output@@V?$standard_base@_WV?$string_output_adapter@_W@__crt_stdio_output@@@2@@__crt_stdio_output@@AEAA_NXZ 000000018007a238     libucrt:output.obj
 0004:00002238       $pdata$?type_case_Z@?$output_processor@_WV?$stream_output_adapter@_W@__crt_stdio_output@@V?$standard_base@_WV?$stream_output_adapter@_W@__crt_stdio_output@@@2@@__crt_stdio_output@@AEAA_NXZ 000000018007a238     libucrt:output.obj
 0004:00002244       $pdata$?type_case_a@?$output_processor@_WV?$string_output_adapter@_W@__crt_stdio_output@@V?$standard_base@_WV?$string_output_adapter@_W@__crt_stdio_output@@@2@@__crt_stdio_output@@AEAA_NXZ 000000018007a244     libucrt:output.obj
 0004:00002244       $pdata$?type_case_a@?$output_processor@_WV?$stream_output_adapter@_W@__crt_stdio_output@@V?$standard_base@_WV?$stream_output_adapter@_W@__crt_stdio_output@@@2@@__crt_stdio_output@@AEAA_NXZ 000000018007a244     libucrt:output.obj
 0004:00002250       $pdata$?type_case_c_tchar@?$output_processor@_WV?$stream_output_adapter@_W@__crt_stdio_output@@V?$standard_base@_WV?$stream_output_adapter@_W@__crt_stdio_output@@@2@@__crt_stdio_output@@AEAA_N_W@Z 000000018007a250     libucrt:output.obj
 0004:00002250       $pdata$?type_case_c_tchar@?$output_processor@_WV?$string_output_adapter@_W@__crt_stdio_output@@V?$standard_base@_WV?$string_output_adapter@_W@__crt_stdio_output@@@2@@__crt_stdio_output@@AEAA_N_W@Z 000000018007a250     libucrt:output.obj
 0004:0000225c       $pdata$?type_case_integer@?$output_processor@_WV?$string_output_adapter@_W@__crt_stdio_output@@V?$standard_base@_WV?$string_output_adapter@_W@__crt_stdio_output@@@2@@__crt_stdio_output@@AEAA_NI_N@Z 000000018007a25c     libucrt:output.obj
 0004:0000225c       $pdata$?type_case_integer@?$output_processor@_WV?$stream_output_adapter@_W@__crt_stdio_output@@V?$standard_base@_WV?$stream_output_adapter@_W@__crt_stdio_output@@@2@@__crt_stdio_output@@AEAA_NI_N@Z 000000018007a25c     libucrt:output.obj
 0004:00002268       $pdata$?type_case_n@?$output_processor@_WV?$string_output_adapter@_W@__crt_stdio_output@@V?$standard_base@_WV?$string_output_adapter@_W@__crt_stdio_output@@@2@@__crt_stdio_output@@AEAA_NXZ 000000018007a268     libucrt:output.obj
 0004:00002268       $pdata$?type_case_n@?$output_processor@_WV?$stream_output_adapter@_W@__crt_stdio_output@@V?$standard_base@_WV?$stream_output_adapter@_W@__crt_stdio_output@@@2@@__crt_stdio_output@@AEAA_NXZ 000000018007a268     libucrt:output.obj
 0004:00002274       $pdata$?type_case_s@?$output_processor@_WV?$stream_output_adapter@_W@__crt_stdio_output@@V?$standard_base@_WV?$stream_output_adapter@_W@__crt_stdio_output@@@2@@__crt_stdio_output@@AEAA_NXZ 000000018007a274     libucrt:output.obj
 0004:00002274       $pdata$?type_case_s@?$output_processor@_WV?$string_output_adapter@_W@__crt_stdio_output@@V?$standard_base@_WV?$string_output_adapter@_W@__crt_stdio_output@@@2@@__crt_stdio_output@@AEAA_NXZ 000000018007a274     libucrt:output.obj
 0004:00002280       $pdata$?write_stored_string_tchar@?$output_processor@_WV?$stream_output_adapter@_W@__crt_stdio_output@@V?$standard_base@_WV?$stream_output_adapter@_W@__crt_stdio_output@@@2@@__crt_stdio_output@@AEAA_N_W@Z 000000018007a280     libucrt:output.obj
 0004:0000228c       $pdata$?write_stored_string_tchar@?$output_processor@_WV?$string_output_adapter@_W@__crt_stdio_output@@V?$standard_base@_WV?$string_output_adapter@_W@__crt_stdio_output@@@2@@__crt_stdio_output@@AEAA_N_W@Z 000000018007a28c     libucrt:output.obj
 0004:00002298       $pdata$?write_string@?$stream_output_adapter@_W@__crt_stdio_output@@QEBAXQEB_WHQEAH1@Z 000000018007a298     libucrt:output.obj
 0004:000022a4       $pdata$?write_string@?$string_output_adapter@_W@__crt_stdio_output@@QEBAXQEB_WHQEAH1@Z 000000018007a2a4     libucrt:output.obj
 0004:000022b0       $pdata$__stdio_common_vfwprintf 000000018007a2b0     libucrt:output.obj
 0004:000022bc       $pdata$__stdio_common_vswprintf 000000018007a2bc     libucrt:output.obj
 0004:000022c8       $pdata$??$parse_integer@KV?$c_string_character_source@_W@__crt_strtox@@@__crt_strtox@@YAKQEAU__crt_locale_pointers@@V?$c_string_character_source@_W@0@H_N@Z 000000018007a2c8     libucrt:atox.obj
 0004:000022d4       $pdata$__acrt_call_reportfault 000000018007a2d4     libucrt:invalid_parameter.obj
 0004:000022e0       $pdata$_invalid_parameter  000000018007a2e0     libucrt:invalid_parameter.obj
 0004:000022ec       $pdata$_invalid_parameter_noinfo 000000018007a2ec     libucrt:invalid_parameter.obj
 0004:000022f8       $pdata$_invoke_watson      000000018007a2f8     libucrt:invalid_parameter.obj
 0004:00002304       $pdata$__acrt_errno_map_os_error 000000018007a304     libucrt:errno.obj
 0004:00002310       $pdata$__doserrno          000000018007a310     libucrt:errno.obj
 0004:0000231c       $pdata$_errno              000000018007a31c     libucrt:errno.obj
 0004:00002328       $pdata$??$common_xtox@K_W@@YAHKQEA_W_KI_N@Z 000000018007a328     libucrt:xtoa.obj
 0004:00002334       $pdata$??$common_xtox_s@K_W@@YAHKQEA_W_KI_N@Z 000000018007a334     libucrt:xtoa.obj
 0004:00002340       $pdata$_itow_s             000000018007a340     libucrt:xtoa.obj
 0004:0000234c       $pdata$_set_error_mode     000000018007a34c     libucrt:set_error_mode.obj
 0004:00002358       $pdata$wcscat_s            000000018007a358     libucrt:wcscat_s.obj
 0004:00002364       $pdata$wcscpy_s            000000018007a364     libucrt:wcscpy_s.obj
 0004:00002370       $pdata$wcsncat_s           000000018007a370     libucrt:wcsncat_s.obj
 0004:0000237c       $pdata$??$message_box_wait_thread@_W@@YAKQEAX@Z 000000018007a37c     libucrt:crtmbox.obj
 0004:00002388       $pdata$__acrt_show_wide_message_box 000000018007a388     libucrt:crtmbox.obj
 0004:00002394       $pdata$__acrt_initialize_stdio 000000018007a394     libucrt:_file.obj
 0004:000023a0       $pdata$__acrt_uninitialize_stdio 000000018007a3a0     libucrt:_file.obj
 0004:000023ac       $pdata$__acrt_stdio_flush_nolock 000000018007a3ac     libucrt:fflush.obj
 0004:000023b8       $pdata$_fflush_nolock      000000018007a3b8     libucrt:fflush.obj
 0004:000023c4       $pdata$common_flush_all    000000018007a3c4     libucrt:fflush.obj
 0004:000023d0       $pdata$fflush              000000018007a3d0     libucrt:fflush.obj
 0004:000023dc       $pdata$??$?RV<lambda_7a5ef57ff966f610505f1d28a3d40618>@@AEAV<lambda_b721fa326cdb32351d23dfa67958c160>@@V<lambda_5e0fb27672408a07956fe59e48ccb2aa>@@@?$__crt_seh_guarded_call@H@@QEAAH$$QEAV<lambda_7a5ef57ff966f610505f1d28a3d40618>@@AEAV<lambda_b721fa326cdb32351d23dfa67958c160>@@$$QEAV<lambda_5e0fb27672408a07956fe59e48ccb2aa>@@@Z 000000018007a3dc     libucrt:setvbuf.obj
 0004:000023e8       $pdata$??R<lambda_b721fa326cdb32351d23dfa67958c160>@@QEBAHXZ 000000018007a3e8     libucrt:setvbuf.obj
 0004:000023f4       $pdata$setvbuf             000000018007a3f4     libucrt:setvbuf.obj
 0004:00002400       $pdata$??$?RV<lambda_c36588078e9f5dfd39652860aa6b3aaf>@@AEAV<lambda_ec61778202f4f5fc7e7711acc23c3bca>@@V<lambda_dc9d2797ccde5d239b4a0efae8ebd7db>@@@?$__crt_seh_guarded_call@P6AXH@Z@@QEAAP6AXH@Z$$QEAV<lambda_c36588078e9f5dfd39652860aa6b3aaf>@@AEAV<lambda_ec61778202f4f5fc7e7711acc23c3bca>@@$$QEAV<lambda_dc9d2797ccde5d239b4a0efae8ebd7db>@@@Z 000000018007a400     libucrt:signal.obj
 0004:0000240c       $pdata$__acrt_get_sigabrt_handler 000000018007a40c     libucrt:signal.obj
 0004:00002418       $pdata$raise               000000018007a418     libucrt:signal.obj
 0004:00002424       $pdata$?internal_isupper_l@@YA_NHQEAU__crt_locale_pointers@@@Z 000000018007a424     libucrt:tolower_toupper.obj
 0004:00002430       $pdata$_tolower_l          000000018007a430     libucrt:tolower_toupper.obj
 0004:0000243c       $pdata$tolower             000000018007a43c     libucrt:tolower_toupper.obj
 0004:00002448       $pdata$??$?RV<lambda_46352004c1216016012b18bd6f87e700>@@AEAV<lambda_3bd07e1a1191394380780325891bf33f>@@V<lambda_334532d3f185bcaa59b5be82d7d22bff>@@@?$__crt_seh_guarded_call@X@@QEAAX$$QEAV<lambda_46352004c1216016012b18bd6f87e700>@@AEAV<lambda_3bd07e1a1191394380780325891bf33f>@@$$QEAV<lambda_334532d3f185bcaa59b5be82d7d22bff>@@@Z 000000018007a448     libucrt:per_thread_data.obj
 0004:00002454       $pdata$??$?RV<lambda_5e887d1dcbef67a5eb4283622ba103bf>@@AEAV<lambda_4466841279450cc726390878d4a41900>@@V<lambda_341c25c0346d94847f1f3c463c57e077>@@@?$__crt_seh_guarded_call@X@@QEAAX$$QEAV<lambda_5e887d1dcbef67a5eb4283622ba103bf>@@AEAV<lambda_4466841279450cc726390878d4a41900>@@$$QEAV<lambda_341c25c0346d94847f1f3c463c57e077>@@@Z 000000018007a454     libucrt:per_thread_data.obj
 0004:00002460       $pdata$??$?RV<lambda_72d1df2b273a38828b1ce30cbf4cdab5>@@AEAV<lambda_876a65b173b8412d3a47c70a915b0cf4>@@V<lambda_41932305e351933ebe8f8be3ed8bb5dc>@@@?$__crt_seh_guarded_call@X@@QEAAX$$QEAV<lambda_72d1df2b273a38828b1ce30cbf4cdab5>@@AEAV<lambda_876a65b173b8412d3a47c70a915b0cf4>@@$$QEAV<lambda_41932305e351933ebe8f8be3ed8bb5dc>@@@Z 000000018007a460     libucrt:per_thread_data.obj
 0004:0000246c       $pdata$??$?RV<lambda_fb3a7dec4e47f37f22dae91bb15c9095>@@AEAV<lambda_698284760c8add0bfb0756c19673e34b>@@V<lambda_dfb8eca1e75fef3034a8fb18dd509707>@@@?$__crt_seh_guarded_call@X@@QEAAX$$QEAV<lambda_fb3a7dec4e47f37f22dae91bb15c9095>@@AEAV<lambda_698284760c8add0bfb0756c19673e34b>@@$$QEAV<lambda_dfb8eca1e75fef3034a8fb18dd509707>@@@Z 000000018007a46c     libucrt:per_thread_data.obj
 0004:00002478       $pdata$?construct_ptd_array@@YAXQEAU__acrt_ptd@@@Z 000000018007a478     libucrt:per_thread_data.obj
 0004:00002484       $pdata$?destroy_fls@@YAXPEAX@Z 000000018007a484     libucrt:per_thread_data.obj
 0004:00002490       $pdata$?destroy_ptd_array@@YAXQEAU__acrt_ptd@@@Z 000000018007a490     libucrt:per_thread_data.obj
 0004:0000249c       $pdata$?replace_current_thread_locale_nolock@@YAXQEAU__acrt_ptd@@QEAU__crt_locale_data@@@Z 000000018007a49c     libucrt:per_thread_data.obj
 0004:000024a8       $pdata$__acrt_freeptd      000000018007a4a8     libucrt:per_thread_data.obj
 0004:000024b4       $pdata$__acrt_getptd       000000018007a4b4     libucrt:per_thread_data.obj
 0004:000024c0       $pdata$__acrt_getptd_noexit 000000018007a4c0     libucrt:per_thread_data.obj
 0004:000024cc       $pdata$__acrt_initialize_ptd 000000018007a4cc     libucrt:per_thread_data.obj
 0004:000024d8       $pdata$__acrt_uninitialize_ptd 000000018007a4d8     libucrt:per_thread_data.obj
 0004:000024e4       $pdata$__acrt_update_locale_info 000000018007a4e4     libucrt:locale_update.obj
 0004:000024f0       $pdata$__acrt_update_multibyte_info 000000018007a4f0     libucrt:locale_update.obj
 0004:000024fc       $pdata$__acrt_uninitialize_locale 000000018007a4fc     libucrt:wsetlocale.obj
 0004:00002508       $pdata$__acrt_initialize_locks 000000018007a508     libucrt:locks.obj
 0004:00002514       $pdata$__acrt_uninitialize_locks 000000018007a514     libucrt:locks.obj
 0004:00002520       $pdata$?try_get_function@@YAPEAXW4function_id@?A0x63058377@@QEBDQEBW4module_id@2@2@Z 000000018007a520     libucrt:winapi_thunks.obj
 0004:0000252c       $pdata$__acrt_FlsAlloc     000000018007a52c     libucrt:winapi_thunks.obj
 0004:00002538       $pdata$__acrt_FlsFree      000000018007a538     libucrt:winapi_thunks.obj
 0004:00002544       $pdata$__acrt_FlsGetValue  000000018007a544     libucrt:winapi_thunks.obj
 0004:00002550       $pdata$__acrt_FlsSetValue  000000018007a550     libucrt:winapi_thunks.obj
 0004:0000255c       $pdata$__acrt_InitializeCriticalSectionEx 000000018007a55c     libucrt:winapi_thunks.obj
 0004:00002568       $pdata$__acrt_LCMapStringEx 000000018007a568     libucrt:winapi_thunks.obj
 0004:00002574       $pdata$__acrt_LocaleNameToLCID 000000018007a574     libucrt:winapi_thunks.obj
 0004:00002580       $pdata$__acrt_MessageBoxW  000000018007a580     libucrt:winapi_thunks.obj
 0004:0000258c       $pdata$__acrt_can_show_message_box 000000018007a58c     libucrt:winapi_thunks.obj
 0004:00002598       $pdata$__acrt_get_parent_window 000000018007a598     libucrt:winapi_thunks.obj
 0004:000025a4       $pdata$__acrt_initialize_winapi_thunks 000000018007a5a4     libucrt:winapi_thunks.obj
 0004:000025b0       $pdata$__acrt_is_interactive 000000018007a5b0     libucrt:winapi_thunks.obj
 0004:000025bc       $pdata$__acrt_is_packaged_app 000000018007a5bc     libucrt:winapi_thunks.obj
 0004:000025c8       $pdata$__acrt_uninitialize_winapi_thunks 000000018007a5c8     libucrt:winapi_thunks.obj
 0004:000025d4       $pdata$??$?RV<lambda_99476a1ad63dd22509b5d3e65b0ffc95>@@AEAV<lambda_ad1ced32f4ac17aa236e5ef05d6b3b7c>@@V<lambda_f7424dd8d45958661754dc4f2697e9c3>@@@?$__crt_seh_guarded_call@X@@QEAAX$$QEAV<lambda_99476a1ad63dd22509b5d3e65b0ffc95>@@AEAV<lambda_ad1ced32f4ac17aa236e5ef05d6b3b7c>@@$$QEAV<lambda_f7424dd8d45958661754dc4f2697e9c3>@@@Z 000000018007a5d4     libucrt:mbctype.obj
 0004:000025e0       $pdata$??R<lambda_ad1ced32f4ac17aa236e5ef05d6b3b7c>@@QEBAXXZ 000000018007a5e0     libucrt:mbctype.obj
 0004:000025ec       $pdata$?getSystemCP@@YAHH@Z 000000018007a5ec     libucrt:mbctype.obj
 0004:000025f8       $pdata$?setSBCS@@YAXPEAU__crt_multibyte_data@@@Z 000000018007a5f8     libucrt:mbctype.obj
 0004:00002604       $pdata$?setSBUpLow@@YAXPEAU__crt_multibyte_data@@@Z 000000018007a604     libucrt:mbctype.obj
 0004:00002610       $pdata$?setmbcp_internal@@YAHH_N@Z 000000018007a610     libucrt:mbctype.obj
 0004:0000261c       $pdata$__acrt_initialize_multibyte 000000018007a61c     libucrt:mbctype.obj
 0004:00002628       $pdata$__acrt_update_thread_multibyte_data 000000018007a628     libucrt:mbctype.obj
 0004:00002634       $pdata$_setmbcp_nolock     000000018007a634     libucrt:mbctype.obj
 0004:00002640       $pdata$__dcrt_get_narrow_environment_from_os 000000018007a640     libucrt:get_environment_from_os.obj
 0004:0000264c       $pdata$_recalloc_base      000000018007a64c     libucrt:recalloc.obj
 0004:00002658       $pdata$__acrt_initialize_heap 000000018007a658     libucrt:heap_handle.obj
 0004:00002664       $pdata$?initialize_inherited_file_handles_nolock@@YAXXZ 000000018007a664     libucrt:ioinit.obj
 0004:00002670       $pdata$?initialize_stdio_handles_nolock@@YAXXZ 000000018007a670     libucrt:ioinit.obj
 0004:0000267c       $pdata$__acrt_initialize_lowio 000000018007a67c     libucrt:ioinit.obj
 0004:00002688       $pdata$__acrt_uninitialize_lowio 000000018007a688     libucrt:ioinit.obj
 0004:00002694       $pdata$__acrt_initialize_command_line 000000018007a694     libucrt:argv_data.obj
 0004:000026a0       $pdata$__acrt_execute_initializers 000000018007a6a0     libucrt:shared_initialization.obj
 0004:000026ac       $pdata$__acrt_execute_uninitializers 000000018007a6ac     libucrt:shared_initialization.obj
 0004:000026b8       $pdata$__acrt_invoke_user_matherr 000000018007a6b8     libucrt:matherr.obj
 0004:000026c4       $pdata$__acrt_stdio_begin_temporary_buffering_nolock 000000018007a6c4     libucrt:_sftbuf.obj
 0004:000026d0       $pdata$__acrt_stdio_end_temporary_buffering_nolock 000000018007a6d0     libucrt:_sftbuf.obj
 0004:000026dc       $pdata$isdigit             000000018007a6dc     libucrt:_ctype.obj
 0004:000026e8       $pdata$wcstol              000000018007a6e8     libucrt:strtox.obj
 0004:000026f4       $pdata$_mbtowc_l           000000018007a6f4     libucrt:mbtowc.obj
 0004:00002700       $pdata$_wctomb_s_l         000000018007a700     libucrt:wctomb.obj
 0004:0000270c       $pdata$wctomb_s            000000018007a70c     libucrt:wctomb.obj
 0004:00002718       $pdata$wcsnlen             000000018007a718     libucrt:strnlen.obj
 0004:00002724       $pdata$?fp_format_a@@YAHQEBNPEAD_KQEAD2H_NIQEAU__crt_locale_pointers@@@Z 000000018007a724     libucrt:cvt.obj
 0004:00002730       $pdata$?fp_format_e@@YAHQEBNQEAD_K12H_NIQEAU__crt_locale_pointers@@@Z 000000018007a730     libucrt:cvt.obj
 0004:0000273c       $pdata$?fp_format_e_internal@@YAHQEAD_KH_NIQEAU_strflt@@2QEAU__crt_locale_pointers@@@Z 000000018007a73c     libucrt:cvt.obj
 0004:00002748       $pdata$?fp_format_f_internal@@YAHQEAD_KHQEAU_strflt@@_NQEAU__crt_locale_pointers@@@Z 000000018007a748     libucrt:cvt.obj
 0004:00002754       $pdata$?fp_format_g@@YAHQEBNQEAD_K12H_NIQEAU__crt_locale_pointers@@@Z 000000018007a754     libucrt:cvt.obj
 0004:00002760       $pdata$?fp_format_nan_or_infinity@@YAHW4__acrt_fp_class@@_NPEAD_K1@Z 000000018007a760     libucrt:cvt.obj
 0004:0000276c       $pdata$__acrt_fp_format    000000018007a76c     libucrt:cvt.obj
 0004:00002778       $pdata$_fputwc_nolock      000000018007a778     libucrt:fputwc.obj
 0004:00002784       $pdata$_fileno             000000018007a784     libucrt:fileno.obj
 0004:00002790       $pdata$__pctype_func       000000018007a790     libucrt:ctype.obj
 0004:0000279c       $pdata$iswctype            000000018007a79c     libucrt:iswctype.obj
 0004:000027a8       $pdata$_isctype_l          000000018007a7a8     libucrt:isctype.obj
 0004:000027b4       $pdata$_fcloseall          000000018007a7b4     libucrt:closeall.obj
 0004:000027c0       $pdata$__acrt_stdio_free_buffer_nolock 000000018007a7c0     libucrt:_freebuf.obj
 0004:000027cc       $pdata$??$?RV<lambda_b521505b218e5242e90febf6bfebc422>@@AEAV<lambda_6978c1fb23f02e42e1d9e99668cc68aa>@@V<lambda_314360699dd331753a4119843814e9a7>@@@?$__crt_seh_guarded_call@H@@QEAAH$$QEAV<lambda_b521505b218e5242e90febf6bfebc422>@@AEAV<lambda_6978c1fb23f02e42e1d9e99668cc68aa>@@$$QEAV<lambda_314360699dd331753a4119843814e9a7>@@@Z 000000018007a7cc     libucrt:commit.obj
 0004:000027d8       $pdata$_commit             000000018007a7d8     libucrt:commit.obj
 0004:000027e4       $pdata$?write_double_translated_ansi_nolock@@YA?AUwrite_result@?A0x9c548279@@HQEBDI@Z 000000018007a7e4     libucrt:write.obj
 0004:000027f0       $pdata$?write_text_ansi_nolock@@YA?AUwrite_result@?A0x9c548279@@HQEBDI@Z 000000018007a7f0     libucrt:write.obj
 0004:000027fc       $pdata$?write_text_utf16le_nolock@@YA?AUwrite_result@?A0x9c548279@@HQEBDI@Z 000000018007a7fc     libucrt:write.obj
 0004:00002808       $pdata$?write_text_utf8_nolock@@YA?AUwrite_result@?A0x9c548279@@HQEBDI@Z 000000018007a808     libucrt:write.obj
 0004:00002814       $pdata$_write              000000018007a814     libucrt:write.obj
 0004:00002820       $pdata$_write_nolock       000000018007a820     libucrt:write.obj
 0004:0000282c       $pdata$_isleadbyte_l       000000018007a82c     libucrt:_wctype.obj
 0004:00002838       $pdata$?__acrt_LCMapStringA_stat@@YAHPEAU__crt_locale_pointers@@PEB_WKPEBDHPEADHHH@Z 000000018007a838     libucrt:lcmapstringa.obj
 0004:00002844       $pdata$__acrt_LCMapStringA 000000018007a844     libucrt:lcmapstringa.obj
 0004:00002850       $pdata$__acrt_free_locale  000000018007a850     libucrt:locale_refcounting.obj
 0004:0000285c       $pdata$__acrt_locale_free_lc_time_if_unreferenced 000000018007a85c     libucrt:locale_refcounting.obj
 0004:00002868       $pdata$__acrt_release_locale_ref 000000018007a868     libucrt:locale_refcounting.obj
 0004:00002874       $pdata$__acrt_update_thread_locale_data 000000018007a874     libucrt:locale_refcounting.obj
 0004:00002880       $pdata$_updatetlocinfoEx_nolock 000000018007a880     libucrt:locale_refcounting.obj
 0004:0000288c       $pdata$__acrt_locale_free_monetary 000000018007a88c     libucrt:initmon.obj
 0004:00002898       $pdata$__acrt_locale_free_numeric 000000018007a898     libucrt:initnum.obj
 0004:000028a4       $pdata$?free_crt_array_internal@@YAXQEAPEBX_K@Z 000000018007a8a4     libucrt:inittime.obj
 0004:000028b0       $pdata$__acrt_locale_free_time 000000018007a8b0     libucrt:inittime.obj
 0004:000028bc       $pdata$__acrt_GetStringTypeA 000000018007a8bc     libucrt:getstringtypea.obj
 0004:000028c8       $pdata$?GetTableIndexFromLocaleName@@YAHPEB_W@Z 000000018007a8c8     libucrt:lcidtoname_downlevel.obj
 0004:000028d4       $pdata$__acrt_DownlevelLocaleNameToLCID 000000018007a8d4     libucrt:lcidtoname_downlevel.obj
 0004:000028e0       $pdata$?initialize_multibyte@@YAHXZ 000000018007a8e0     libucrt:multibyte_initializer.obj
 0004:000028ec       $pdata$_msize              000000018007a8ec     libucrt:msize.obj
 0004:000028f8       $pdata$_realloc_base       000000018007a8f8     libucrt:realloc_base.obj
 0004:00002904       $pdata$__acrt_lowio_create_handle_array 000000018007a904     libucrt:osfinfo.obj
 0004:00002910       $pdata$__acrt_lowio_destroy_handle_array 000000018007a910     libucrt:osfinfo.obj
 0004:0000291c       $pdata$__acrt_lowio_ensure_fh_exists 000000018007a91c     libucrt:osfinfo.obj
 0004:00002928       $pdata$_free_osfhnd        000000018007a928     libucrt:osfinfo.obj
 0004:00002934       $pdata$_get_osfhandle      000000018007a934     libucrt:osfinfo.obj
 0004:00002940       $pdata$_isatty             000000018007a940     libucrt:isatty.obj
 0004:0000294c       $pdata$__acrt_fp_strflt_to_string 000000018007a94c     libucrt:_fptostr.obj
 0004:00002958       $pdata$?divide@__crt_strtox@@YA_KAEAUbig_integer@1@AEBU21@@Z 000000018007a958     libucrt:cfout.obj
 0004:00002964       $pdata$5$?divide@__crt_strtox@@YA_KAEAUbig_integer@1@AEBU21@@Z 000000018007a964     libucrt:cfout.obj
 0004:00002970       $pdata$6$?divide@__crt_strtox@@YA_KAEAUbig_integer@1@AEBU21@@Z 000000018007a970     libucrt:cfout.obj
 0004:0000297c       $pdata$__acrt_fltout       000000018007a97c     libucrt:cfout.obj
 0004:00002988       $pdata$memcpy_s            000000018007a988     libucrt:cfout.obj
 0004:00002994       $pdata$??$write_buffer_nolock@D@@YA_NDV__crt_stdio_stream@@@Z 000000018007a994     libucrt:_flsbuf.obj
 0004:000029a0       $pdata$??$write_buffer_nolock@_W@@YA_N_WV__crt_stdio_stream@@@Z 000000018007a9a0     libucrt:_flsbuf.obj
 0004:000029ac       $pdata$__acrt_stdio_flush_and_write_narrow_nolock 000000018007a9ac     libucrt:_flsbuf.obj
 0004:000029b8       $pdata$__acrt_stdio_flush_and_write_wide_nolock 000000018007a9b8     libucrt:_flsbuf.obj
 0004:000029c4       $pdata$_fclose_nolock      000000018007a9c4     libucrt:fclose.obj
 0004:000029d0       $pdata$fclose              000000018007a9d0     libucrt:fclose.obj
 0004:000029dc       $pdata$??$common_lseek@_J@@YA_JH_JH@Z 000000018007a9dc     libucrt:lseek.obj
 0004:000029e8       $pdata$??$common_lseek_nolock@_J@@YA_JH_JH@Z 000000018007a9e8     libucrt:lseek.obj
 0004:000029f4       $pdata$_putwch_nolock      000000018007a9f4     libucrt:putwch.obj
 0004:00002a00       $pdata$fegetenv            000000018007aa00     libucrt:fegetenv.obj
 0004:00002a0c       $pdata$fesetenv            000000018007aa0c     libucrt:fesetenv.obj
 0004:00002a18       $pdata$feholdexcept        000000018007aa18     libucrt:feholdexcept.obj
 0004:00002a30       $pdata$__acrt_stdio_allocate_buffer_nolock 000000018007aa30     libucrt:_getbuf.obj
 0004:00002a3c       $pdata$??$?RV<lambda_bfedae4ebbf01fab1bb6dcc6a9e276e0>@@AEAV<lambda_2fe9b910cf3cbf4a0ab98a02ba45b3ec>@@V<lambda_237c231691f317818eb88cc1d5d642d6>@@@?$__crt_seh_guarded_call@H@@QEAAH$$QEAV<lambda_bfedae4ebbf01fab1bb6dcc6a9e276e0>@@AEAV<lambda_2fe9b910cf3cbf4a0ab98a02ba45b3ec>@@$$QEAV<lambda_237c231691f317818eb88cc1d5d642d6>@@@Z 000000018007aa3c     libucrt:close.obj
 0004:00002a48       $pdata$_close              000000018007aa48     libucrt:close.obj
 0004:00002a54       $pdata$_close_nolock       000000018007aa54     libucrt:close.obj
 0004:00002a60       $pdata$__dcrt_lowio_initialize_console_output 000000018007aa60     libucrt:initcon.obj
 0004:00002a6c       $pdata$__dcrt_terminate_console_output 000000018007aa6c     libucrt:initcon.obj
 0004:00002a78       $pdata$_getfpcontrolword   000000018007aa78     libucrt:_fenvutils.obj
 0004:00002a84       $pdata$_getfpstatusword    000000018007aa84     libucrt:_fenvutils.obj
 0004:00002a90       $pdata$_setfpstatusword    000000018007aa90     libucrt:_fenvutils.obj
 0004:00002a9c       $pdata$_clearfp            000000018007aa9c     libucrt:ieee.obj
 0004:00002aa8       $pdata$common_control87    000000018007aaa8     libucrt:ieee.obj
 0004:00002ab4       $pdata$_call_matherr       000000018007aab4     libucrt:libm_error.obj
 0004:00002ac0       $pdata$_exception_enabled  000000018007aac0     libucrt:libm_error.obj
 0004:00002acc       $pdata$_handle_error       000000018007aacc     libucrt:libm_error.obj
 0004:00002ad8       $pdata$__acrt_initialize_fma3 000000018007aad8     libucrt:fma3_available.obj
 0004:00002ae4       $pdata$_log10_special      000000018007aae4     libucrt:log_special.obj
 0004:00002af0       $pdata$_log_special        000000018007aaf0     libucrt:log_special.obj
 0004:00002afc       $pdata$_log_special_common 000000018007aafc     libucrt:log_special.obj
 0004:00002b14       $pdata$_raise_exc          000000018007ab14     libucrt:fpexcept.obj
 0004:00002b20       $pdata$_raise_exc_ex       000000018007ab20     libucrt:fpexcept.obj
 0004:00002b2c       $pdata$_set_errno_from_matherr 000000018007ab2c     libucrt:fpexcept.obj
 0004:00002b38       $pdata$_clrfp              000000018007ab38     libucrt:fpctrl.obj
 0004:00002b44       $pdata$_ctrlfp             000000018007ab44     libucrt:fpctrl.obj
 0004:00002b50       $pdata$_set_statfp         000000018007ab50     libucrt:fpctrl.obj
 0004:00002b5c       $pdata$_statfp             000000018007ab5c     libucrt:fpctrl.obj
 0004:00002b68       $pdata$?DloadAcquireSectionWriteAccess@@YAXXZ 000000018007ab68     DelayImp:delayhlp.obj
 0004:00002b74       $pdata$?DloadGetSRWLockFunctionPointers@@YAEXZ 000000018007ab74     DelayImp:delayhlp.obj
 0004:00002b80       $pdata$?DloadMakePermanentImageCommit@@YAXPEAX_K@Z 000000018007ab80     DelayImp:delayhlp.obj
 0004:00002b8c       $pdata$?DloadObtainSection@@YAPEAXPEAK0@Z 000000018007ab8c     DelayImp:delayhlp.obj
 0004:00002b98       $pdata$?DloadProtectSection@@YAXKPEAK@Z 000000018007ab98     DelayImp:delayhlp.obj
 0004:00002ba4       $pdata$?DloadReleaseSectionWriteAccess@@YAXXZ 000000018007aba4     DelayImp:delayhlp.obj
 0004:00002bb0       $pdata$__delayLoadHelper2  000000018007abb0     DelayImp:delayhlp.obj
 0004:00002bbc       $pdata$__GSHandlerCheck    000000018007abbc     LIBCMT:_gshandler_.obj
 0004:00002bc8       $pdata$__GSHandlerCheckCommon 000000018007abc8     LIBCMT:_gshandler_.obj
 0004:00002bd4       $pdata$_IsNonwritableInCurrentImage 000000018007abd4     LIBCMT:pesect.obj
 0004:00002bf8       $pdata$strrchr             000000018007abf8     libvcruntime:strrchr.obj
 0004:00002c04       $pdata$atan2               000000018007ac04     libucrt:atan2.obj
 0004:00002c40       $pdata$sqrt                000000018007ac40     libucrt:sqrt.obj
 0004:00002c7c       $pdata$_sincos_special     000000018007ac7c     libucrt:sincos_special.obj
 0004:00002c88       $pdata$_exp_special        000000018007ac88     libucrt:exp_special.obj
 0004:00002c94       $pdata$_pow_special        000000018007ac94     libucrt:pow_special.obj
 0004:00002cac       $pdata$?fin$0@?0??dllmain_crt_process_attach@@YAHQEAUHINSTANCE__@@QEAX@Z@4HA 000000018007acac     LIBCMT:dll_dllmain.obj
 0004:00002cb8       $pdata$?fin$0@?0??dllmain_crt_process_detach@@YAH_N@Z@4HA 000000018007acb8     LIBCMT:dll_dllmain.obj
 0004:00002cc4       $pdata$?filt$0@?0??dllmain_dispatch@@YAHQEAUHINSTANCE__@@KQEAX@Z@4HA 000000018007acc4     LIBCMT:dll_dllmain.obj
 0004:00002cd0       $pdata$__scrt_is_nonwritable_in_current_image$filt$0 000000018007acd0     LIBCMT:utility.obj
 0004:00002cdc       $pdata$_query_new_handler$fin$0 000000018007acdc     libucrt:new_handler.obj
 0004:00002ce8       $pdata$?filt$0@?0??common_exit@@YAXHW4_crt_exit_cleanup_mode@@W4_crt_exit_return_mode@@@Z@4HA 000000018007ace8     libucrt:exit.obj
 0004:00002cf4       $pdata$?fin$1@?0??common_exit@@YAXHW4_crt_exit_cleanup_mode@@W4_crt_exit_return_mode@@@Z@4HA 000000018007acf4     libucrt:exit.obj
 0004:00002d00       $pdata$?fin$0@?0???$?RV<lambda_e24bbb7b643b32fcea6fa61b31d4c984>@@AEAV<lambda_275893d493268fdec8709772e3fcec0e>@@V<lambda_9d71df4d7cf3f480f8d633942495c3b0>@@@?$__crt_seh_guarded_call@H@@QEAAH$$QEAV<lambda_e24bbb7b643b32fcea6fa61b31d4c984>@@AEAV<lambda_275893d493268fdec8709772e3fcec0e>@@$$QEAV<lambda_9d71df4d7cf3f480f8d633942495c3b0>@@@Z@4HA 000000018007ad00     libucrt:onexit.obj
 0004:00002d0c       $pdata$common_flush_all$fin$0 000000018007ad0c     libucrt:fflush.obj
 0004:00002d18       $pdata$common_flush_all$fin$1 000000018007ad18     libucrt:fflush.obj
 0004:00002d24       $pdata$fflush$fin$0        000000018007ad24     libucrt:fflush.obj
 0004:00002d24       $pdata$fclose$fin$0        000000018007ad24     libucrt:fclose.obj
 0004:00002d30       $pdata$?fin$0@?0???$?RV<lambda_7b91131dde12e1c3dfc74ff76b3f2eac>@@AEAV<lambda_dd75445284c072d0bd3768540cc698fa>@@V<lambda_16bc4ecb55b4718497c16bceaea2ceaf>@@@?$__crt_seh_guarded_call@H@@QEAAH$$QEAV<lambda_7b91131dde12e1c3dfc74ff76b3f2eac>@@AEAV<lambda_dd75445284c072d0bd3768540cc698fa>@@$$QEAV<lambda_16bc4ecb55b4718497c16bceaea2ceaf>@@@Z@4HA 000000018007ad30     libucrt:output.obj
 0004:00002d30       $pdata$?fin$0@?0???$?RV<lambda_7a5ef57ff966f610505f1d28a3d40618>@@AEAV<lambda_b721fa326cdb32351d23dfa67958c160>@@V<lambda_5e0fb27672408a07956fe59e48ccb2aa>@@@?$__crt_seh_guarded_call@H@@QEAAH$$QEAV<lambda_7a5ef57ff966f610505f1d28a3d40618>@@AEAV<lambda_b721fa326cdb32351d23dfa67958c160>@@$$QEAV<lambda_5e0fb27672408a07956fe59e48ccb2aa>@@@Z@4HA 000000018007ad30     libucrt:setvbuf.obj
 0004:00002d3c       $pdata$raise$fin$0         000000018007ad3c     libucrt:signal.obj
 0004:00002d48       $pdata$?fin$0@?0???$?RV<lambda_c36588078e9f5dfd39652860aa6b3aaf>@@AEAV<lambda_ec61778202f4f5fc7e7711acc23c3bca>@@V<lambda_dc9d2797ccde5d239b4a0efae8ebd7db>@@@?$__crt_seh_guarded_call@P6AXH@Z@@QEAAP6AXH@Z$$QEAV<lambda_c36588078e9f5dfd39652860aa6b3aaf>@@AEAV<lambda_ec61778202f4f5fc7e7711acc23c3bca>@@$$QEAV<lambda_dc9d2797ccde5d239b4a0efae8ebd7db>@@@Z@4HA 000000018007ad48     libucrt:signal.obj
 0004:00002d48       $pdata$?fin$0@?0???$?RV<lambda_99476a1ad63dd22509b5d3e65b0ffc95>@@AEAV<lambda_ad1ced32f4ac17aa236e5ef05d6b3b7c>@@V<lambda_f7424dd8d45958661754dc4f2697e9c3>@@@?$__crt_seh_guarded_call@X@@QEAAX$$QEAV<lambda_99476a1ad63dd22509b5d3e65b0ffc95>@@AEAV<lambda_ad1ced32f4ac17aa236e5ef05d6b3b7c>@@$$QEAV<lambda_f7424dd8d45958661754dc4f2697e9c3>@@@Z@4HA 000000018007ad48     libucrt:mbctype.obj
 0004:00002d48       $pdata$?fin$0@?0???$?RV<lambda_46352004c1216016012b18bd6f87e700>@@AEAV<lambda_3bd07e1a1191394380780325891bf33f>@@V<lambda_334532d3f185bcaa59b5be82d7d22bff>@@@?$__crt_seh_guarded_call@X@@QEAAX$$QEAV<lambda_46352004c1216016012b18bd6f87e700>@@AEAV<lambda_3bd07e1a1191394380780325891bf33f>@@$$QEAV<lambda_334532d3f185bcaa59b5be82d7d22bff>@@@Z@4HA 000000018007ad48     libucrt:per_thread_data.obj
 0004:00002d48       $pdata$?fin$0@?0???$?RV<lambda_fb3a7dec4e47f37f22dae91bb15c9095>@@AEAV<lambda_698284760c8add0bfb0756c19673e34b>@@V<lambda_dfb8eca1e75fef3034a8fb18dd509707>@@@?$__crt_seh_guarded_call@X@@QEAAX$$QEAV<lambda_fb3a7dec4e47f37f22dae91bb15c9095>@@AEAV<lambda_698284760c8add0bfb0756c19673e34b>@@$$QEAV<lambda_dfb8eca1e75fef3034a8fb18dd509707>@@@Z@4HA 000000018007ad48     libucrt:per_thread_data.obj
 0004:00002d48       $pdata$?fin$0@?0???$?RV<lambda_5e887d1dcbef67a5eb4283622ba103bf>@@AEAV<lambda_4466841279450cc726390878d4a41900>@@V<lambda_341c25c0346d94847f1f3c463c57e077>@@@?$__crt_seh_guarded_call@X@@QEAAX$$QEAV<lambda_5e887d1dcbef67a5eb4283622ba103bf>@@AEAV<lambda_4466841279450cc726390878d4a41900>@@$$QEAV<lambda_341c25c0346d94847f1f3c463c57e077>@@@Z@4HA 000000018007ad48     libucrt:per_thread_data.obj
 0004:00002d48       $pdata$?fin$0@?0???$?RV<lambda_72d1df2b273a38828b1ce30cbf4cdab5>@@AEAV<lambda_876a65b173b8412d3a47c70a915b0cf4>@@V<lambda_41932305e351933ebe8f8be3ed8bb5dc>@@@?$__crt_seh_guarded_call@X@@QEAAX$$QEAV<lambda_72d1df2b273a38828b1ce30cbf4cdab5>@@AEAV<lambda_876a65b173b8412d3a47c70a915b0cf4>@@$$QEAV<lambda_41932305e351933ebe8f8be3ed8bb5dc>@@@Z@4HA 000000018007ad48     libucrt:per_thread_data.obj
 0004:00002d48       $pdata$?fin$0@?0???$?RV<lambda_b8c45f8f788dd370798f47cfe8ac3a86>@@AEAV<lambda_4e60a939b0d047cfe11ddc22648dfba9>@@V<lambda_332c3edc96d0294ec56c57d38c1cdfd5>@@@?$__crt_seh_guarded_call@H@@QEAAH$$QEAV<lambda_b8c45f8f788dd370798f47cfe8ac3a86>@@AEAV<lambda_4e60a939b0d047cfe11ddc22648dfba9>@@$$QEAV<lambda_332c3edc96d0294ec56c57d38c1cdfd5>@@@Z@4HA 000000018007ad48     libucrt:onexit.obj
 0004:00002d54       $pdata$__acrt_update_thread_multibyte_data$fin$0 000000018007ad54     libucrt:mbctype.obj
 0004:00002d60       $pdata$__acrt_lowio_ensure_fh_exists$fin$0 000000018007ad60     libucrt:osfinfo.obj
 0004:00002d60       $pdata$__acrt_initialize_lowio$fin$0 000000018007ad60     libucrt:ioinit.obj
 0004:00002d6c       $pdata$_fcloseall$fin$0    000000018007ad6c     libucrt:closeall.obj
 0004:00002d78       $pdata$?fin$0@?0???$?RV<lambda_bfedae4ebbf01fab1bb6dcc6a9e276e0>@@AEAV<lambda_2fe9b910cf3cbf4a0ab98a02ba45b3ec>@@V<lambda_237c231691f317818eb88cc1d5d642d6>@@@?$__crt_seh_guarded_call@H@@QEAAH$$QEAV<lambda_bfedae4ebbf01fab1bb6dcc6a9e276e0>@@AEAV<lambda_2fe9b910cf3cbf4a0ab98a02ba45b3ec>@@$$QEAV<lambda_237c231691f317818eb88cc1d5d642d6>@@@Z@4HA 000000018007ad78     libucrt:close.obj
 0004:00002d78       $pdata$?fin$0@?0???$?RV<lambda_b521505b218e5242e90febf6bfebc422>@@AEAV<lambda_6978c1fb23f02e42e1d9e99668cc68aa>@@V<lambda_314360699dd331753a4119843814e9a7>@@@?$__crt_seh_guarded_call@H@@QEAAH$$QEAV<lambda_b521505b218e5242e90febf6bfebc422>@@AEAV<lambda_6978c1fb23f02e42e1d9e99668cc68aa>@@$$QEAV<lambda_314360699dd331753a4119843814e9a7>@@@Z@4HA 000000018007ad78     libucrt:commit.obj
 0004:00002d84       $pdata$__acrt_update_thread_locale_data$fin$0 000000018007ad84     libucrt:locale_refcounting.obj
 0004:00002d84       $pdata$__acrt_uninitialize_locale$fin$0 000000018007ad84     libucrt:wsetlocale.obj
 0004:00002d90       $pdata$_write$fin$0        000000018007ad90     libucrt:write.obj
 0004:00002d90       $pdata$?fin$0@?0???$common_lseek@_J@@YA_JH_JH@Z@4HA 000000018007ad90     libucrt:lseek.obj
 0004:00002d9c       $pdata$common_control87$filt$0 000000018007ad9c     libucrt:ieee.obj
 0004:00002d9c       $pdata$_ctrlfp$filt$0      000000018007ad9c     libucrt:fpctrl.obj
 0004:00002da8       $pdata$_IsNonwritableInCurrentImage$filt$0 000000018007ada8     LIBCMT:pesect.obj
 0005:00000000       __guard_fids__             000000018007b000     libucrt:initialization.obj
 0005:00000060       __guard_fids___acrt_show_wide_message_box 000000018007b060     libucrt:crtmbox.obj
 0005:00000064       __guard_fids___acrt_initialize_ptd 000000018007b064     libucrt:per_thread_data.obj
 0005:00000068       __guard_fids__             000000018007b068     libucrt:stdio_initializer.obj
 0005:0000006c       __guard_fids__             000000018007b06c     libucrt:stdio_initializer.obj
 0005:00000070       __guard_fids__             000000018007b070     libucrt:locale_initializer.obj
 0005:00000074       __guard_fids__             000000018007b074     libucrt:multibyte_initializer.obj
 0005:00000078       __guard_fids__             000000018007b078     libucrt:console_output_initializer.obj
 0005:0000007c       __guard_fids__             000000018007b07c     libucrt:fma3_initializer.obj
 0005:00000080       __guard_fids_?dllmain_crt_process_attach@@YAHQEAUHINSTANCE__@@QEAX@Z 000000018007b080     LIBCMT:dll_dllmain.obj
 0005:00000088       __guard_fids_?dllmain_dispatch@@YAHQEAUHINSTANCE__@@KQEAX@Z 000000018007b088     LIBCMT:dll_dllmain.obj
 0005:0000008c       __guard_fids__             000000018007b08c     LIBCMT:throw_bad_alloc.obj
 0005:00000094       __guard_fids__             000000018007b094     LIBCMT:throw_bad_alloc.obj
 0005:0000009c       __guard_fids__             000000018007b09c     LIBCMT:throw_bad_alloc.obj
 0005:000000a4       __guard_fids__             000000018007b0a4     LIBCMT:std_type_info_static.obj
 0005:000000a8       __guard_fids__             000000018007b0a8     LIBCMT:guard_support.obj
 0005:000000ac       __guard_fids__             000000018007b0ac     libvcruntime:telemetry.obj
 0005:000000b0       __guard_fids_?TraceLoggingRegister@__vcrt_trace_logging_provider@@YAJPEBU_TlgProvider_t@1@PEBU_GUID@@P6AX1KE_K2PEAU_EVENT_FILTER_DESCRIPTOR@@PEAX@Z4@Z 000000018007b0b0     libvcruntime:telemetry.obj
 0005:000000b4       __guard_fids___vcrt_initialize_ptd 000000018007b0b4     libvcruntime:per_thread_data.obj
 0006:00000060       $R000000                   000000018007c060     * linker generated manifest res *

 Exports

  ordinal    name

        1    _register_node_opus_
        2    opus_decode
        3    opus_decode_float
        4    opus_decoder_create
        5    opus_decoder_ctl
        6    opus_decoder_destroy
        7    opus_decoder_get_nb_samples
        8    opus_decoder_get_size
        9    opus_decoder_init
       10    opus_encode
       11    opus_encode_float
       12    opus_encoder_create
       13    opus_encoder_ctl
       14    opus_encoder_destroy
       15    opus_encoder_get_size
       16    opus_encoder_init
       17    opus_get_version_string
       18    opus_multistream_packet_pad
       19    opus_multistream_packet_unpad
       20    opus_packet_get_bandwidth
       21    opus_packet_get_nb_channels
       22    opus_packet_get_nb_frames
       23    opus_packet_get_nb_samples
       24    opus_packet_get_samples_per_frame
       25    opus_packet_pad
       26    opus_packet_parse
       27    opus_packet_unpad
       28    opus_pcm_soft_clip
       29    opus_repacketizer_cat
       30    opus_repacketizer_create
       31    opus_repacketizer_destroy
       32    opus_repacketizer_get_nb_frames
       33    opus_repacketizer_get_size
       34    opus_repacketizer_init
       35    opus_repacketizer_out
       36    opus_repacketizer_out_range
       37    opus_strerror
